 PETOOLS

 Timestamp is 5f520de8 (Fri Sep  4 17:50:32 2020)

 Preferred load address is 00400000

 Start         Length     Name                   Class
 0001:00000000 00007290H .text$di                CODE
 0001:00007290 000658b0H .text$mn                CODE
 0001:0006cb40 00005a30H .text$x                 CODE
 0001:00072570 00001467H .text$yd                CODE
 0002:00000000 00000104H .CRT$XCA                DATA
 0002:00000104 00000104H .CRT$XCAA               DATA
 0002:00000208 0000010cH .CRT$XCL                DATA
 0002:00000314 0000018cH .CRT$XCU                DATA
 0002:000004a0 00000104H .CRT$XCZ                DATA
 0002:000005a4 00000104H .CRT$XIA                DATA
 0002:000006a8 00000104H .CRT$XIAA               DATA
 0002:000007ac 00000104H .CRT$XIAC               DATA
 0002:000008b0 00000104H .CRT$XIC                DATA
 0002:000009b4 00000104H .CRT$XIZ                DATA
 0002:00000ab8 00000004H .CRT$XLA                DATA
 0002:00000abc 00000004H .CRT$XLZ                DATA
 0002:00000ac0 00000104H .CRT$XPA                DATA
 0002:00000bc4 00000104H .CRT$XPZ                DATA
 0002:00000cc8 00000104H .CRT$XTA                DATA
 0002:00000dcc 00000104H .CRT$XTZ                DATA
 0002:00000ed0 00012490H .rdata                  DATA
 0002:00013360 0000011cH .rdata$T                DATA
 0002:0001347c 000011a4H .rdata$r                DATA
 0002:00014620 00000564H .rdata$sxdata           DATA
 0002:00014b84 0000016cH .rdata$zzzdbg           DATA
 0002:00014cf0 00000104H .rtc$IAA                DATA
 0002:00014df4 000001acH .rtc$IMZ                DATA
 0002:00014fa0 00000104H .rtc$IZZ                DATA
 0002:000150a4 00000104H .rtc$TAA                DATA
 0002:000151a8 000001acH .rtc$TMZ                DATA
 0002:00015354 00000104H .rtc$TZZ                DATA
 0002:00015458 000043c8H .xdata$x                DATA
 0002:00019820 00000104H ATL$__a                 DATA
 0002:00019924 00000104H ATL$__z                 DATA
 0002:00019a28 00000000H .edata                  DATA
 0003:00000000 0000032cH .data                   DATA
 0003:0000032c 0000072cH .data$r                 DATA
 0003:00000a58 000045acH .bss                    DATA
 0004:00000000 00000c14H .idata$5                DATA
 0004:00000c14 0000012cH .idata$2                DATA
 0004:00000d40 00000014H .idata$3                DATA
 0004:00000d54 00000c14H .idata$4                DATA
 0004:00001968 000011b9H .idata$6                DATA
 0005:00000000 00000108H .tls                    DATA
 0005:00000108 00000139H .tls$                   DATA
 0005:00000241 00000101H .tls$ZZZ                DATA
 0006:00000000 00000239H .gfids$y                DATA
 0007:00000000 00000104H .00cfg                  DATA
 0008:00000000 00000104H .giats$y                DATA
 0009:00000000 00000a60H .rsrc$01                DATA
 0009:00000a60 00019793H .rsrc$02                DATA

  Address         Publics by Value              Rva+Base       Lib:Object

 0000:00000000       ___guard_longjmp_count     00000000     <absolute>
 0000:00000000       ___guard_iat_table         00000000     <absolute>
 0000:00000000       ___guard_iat_count         00000000     <absolute>
 0000:00000000       ___dynamic_value_reloc_table 00000000     <absolute>
 0000:00000000       ___guard_longjmp_table     00000000     <absolute>
 0000:00000000       ___guard_fids_table        00000000     <absolute>
 0000:00000000       ___guard_fids_count        00000000     <absolute>
 0000:0000002c       __tls_array                0000002c     <absolute>
 0000:000000ea       ___safe_se_handler_count   000000ea     <absolute>
 0000:00000100       ___guard_flags             00000100     <absolute>
 0000:00000000       ___ImageBase               00400000     <linker-defined>
 0001:00007290       ??$__vcrt_va_start_verify_argument_type@QBD@@YAXXZ 00408290 f i asmserv.obj
 0001:000072b6       __mbscmp                   004082b6 f   ucrtd:ucrtbased.dll
 0001:000072c0       ?Decodeaddress@@YAHKPADH0@Z 004082c0 f   asmserv.obj
 0001:000072e8       ?GetWindowTextA@CWnd@@QBEHPADH@Z 004082e8 f   mfc140d:mfc140d.dll
 0001:000072f0       ?Disassembleback@@YAKPADKKKH@Z 004082f0 f   asmserv.obj
 0001:00007510       __tcscmp                   00408510 f i PETOOLSDlg.obj
 0001:000075a0       ?Disassembleforward@@YAKPADKKKH@Z 004085a0 f   asmserv.obj
 0001:00007730       ?Isfilling@@YAHKPADKK@Z    00408730 f   asmserv.obj
 0001:00007a30       ?Print3dnow@@YAHPAD0@Z     00408a30 f   asmserv.obj
 0001:00007af0       ?Printfloat10@@YAHPADO@Z   00408af0 f   asmserv.obj
 0001:00007f10       ?Printfloat4@@YAHPADM@Z    00408f10 f   asmserv.obj
 0001:00008070       ?Printfloat8@@YAHPADN@Z    00409070 f   asmserv.obj
 0001:00008210       ___local_stdio_printf_options 00409210 f i asmserv.obj
 0001:00008250       __vsnprintf_l              00409250 f i asmserv.obj
 0001:00008300       __vsprintf_l               00409300 f i asmserv.obj
 0001:00008360       _sprintf                   00409360 f i asmserv.obj
 0001:000083e0       ??$_strupr_s@$0BAA@@@YAHAAY0BAA@D@Z 004093e0 f i assembl.obj
 0001:00008440       ?Assemble@@YAHPADKPAUt_asmmodel@@HH0@Z 00409440 f   assembl.obj
 0001:0000b190       ?OnBnClickedMfcbutton5@CPETOOLSDlg@@QAEXXZ 0040c190 f   PETOOLSDlg.obj
 0001:0000b4d0       ?OnDisa@CPETOOLSDlg@@QAEXXZ 0040c4d0 f   PETOOLSDlg.obj
 0001:0000b5d0       ?OnEncryptImportTable@CPETOOLSDlg@@QAEXXZ 0040c5d0 f   PETOOLSDlg.obj
 0001:0000b710       ?OnSaveAs@CPETOOLSDlg@@QAEXXZ 0040c710 f   PETOOLSDlg.obj
 0001:0000b900       ?OnPosCalc@CPETOOLSDlg@@QAEXXZ 0040c900 f   PETOOLSDlg.obj
 0001:0000ba50       ?EnumChildProc@CPETOOLSDlg@@SGHPAUHWND__@@J@Z 0040ca50 f   PETOOLSDlg.obj
 0001:0000bb50       ?SetControlUI@CPETOOLSDlg@@QAEXQADPAVCMFCButton@@PAD@Z 0040cb50 f   PETOOLSDlg.obj
 0001:0000c9f0       ?OnInitDialog@CPETOOLSDlg@@MAEHXZ 0040d9f0 f   PETOOLSDlg.obj
 0001:0000e580       ??1CPETOOLSDlg@@UAE@XZ     0040f580 f   PETOOLSDlg.obj
 0001:0000eb90       _powl                      0040fb90 f i assembl.obj
 0001:0000ec00       ??$__vcrt_va_start_verify_argument_type@PBD@@YAXXZ 0040fc00 f i disasm.obj
 0001:0000ec30       ??$sprintf_s@$0BAA@@@YAHAAY0BAA@DPBDZZ 0040fc30 f i disasm.obj
 0001:0000eca0       ?Checkcondition@@YAHHK@Z   0040fca0 f   disasm.obj
 0001:00011b90       ?Disasm@@YAKPADKKPAUt_disasm@@H@Z 00412b90 f   disasm.obj
 0001:000141b0       ??0CPETOOLSDlg@@QAE@PAVCWnd@@@Z 004151b0 f   PETOOLSDlg.obj
 0001:00015300       __vsprintf_s_l             00416300 f i disasm.obj
 0001:000153b0       _vsprintf_s                004163b0 f i disasm.obj
 0001:00015410       ??0Ini@@QAE@XZ             00416410 f   Ini.obj
 0001:00015470       ??1Ini@@QAE@XZ             00416470 f   Ini.obj
 0001:000154b0       ?GetIntKey@Ini@@QAEHPAD00@Z 004164b0 f   Ini.obj
 0001:00015580       ?GetPath@Ini@@QAEPADXZ     00416580 f   Ini.obj
 0001:000155c0       ?GetStrKey@Ini@@QAEXPAD000@Z 004165c0 f   Ini.obj
 0001:000156a0       ?strrchr@@YAPADQADH@Z      004166a0 f i Ini.obj
 0001:00015700       ??$?0AAU?$_Wrap_alloc@V?$allocator@D@std@@@std@@@?$_Wrap_alloc@V?$allocator@U_Container_proxy@std@@@std@@@std@@QAE@AAU?$_Wrap_alloc@V?$allocator@D@std@@@1@@Z 00416700 f i DebugLog.obj
 0001:00015770       ??$?0D@?$allocator@U_Container_proxy@std@@@std@@QAE@ABV?$allocator@D@1@@Z 00416770 f i DebugLog.obj
 0001:000157b0       ??$?6DU?$char_traits@D@std@@V?$allocator@D@1@@Log4zStream@log4z@zsummer@@QAEAAV012@ABV?$basic_string@DU?$char_traits@D@std@@V?$allocator@D@2@@std@@@Z 004167b0 f i DebugLog.obj
 0001:00015820       ??$_Unfancy@D@std@@YAPADPAD@Z 00416820 f i DebugLog.obj
 0001:00015860       ??$addressof@PAD@std@@YAPAPADAAPAD@Z 00416860 f i DebugLog.obj
 0001:000158a0       ??$addressof@U_Container_proxy@std@@@std@@YAPAU_Container_proxy@0@AAU10@@Z 004168a0 f i DebugLog.obj
 0001:000158e0       ??$destroy@PAD@?$_Wrap_alloc@V?$allocator@D@std@@@std@@QAEXPAPAD@Z 004168e0 f i DebugLog.obj
 0001:00015940       ??$destroy@PAD@?$allocator@D@std@@QAEXPAPAD@Z 00416940 f i DebugLog.obj
 0001:00015980       ??$destroy@PAD@?$allocator_traits@V?$allocator@D@std@@@std@@SAXAAV?$allocator@D@1@PAPAD@Z 00416980 f i DebugLog.obj
 0001:000159d0       ??$destroy@U_Container_proxy@std@@@?$_Wrap_alloc@V?$allocator@U_Container_proxy@std@@@std@@@std@@QAEXPAU_Container_proxy@1@@Z 004169d0 f i DebugLog.obj
 0001:00015a30       ??$destroy@U_Container_proxy@std@@@?$allocator@U_Container_proxy@std@@@std@@QAEXPAU_Container_proxy@1@@Z 00416a30 f i DebugLog.obj
 0001:00015a70       ??$destroy@U_Container_proxy@std@@@?$allocator_traits@V?$allocator@U_Container_proxy@std@@@std@@@std@@SAXAAV?$allocator@U_Container_proxy@std@@@1@PAU_Container_proxy@1@@Z 00416a70 f i DebugLog.obj
 0001:00015ac0       ??$forward@AAU?$_Wrap_alloc@V?$allocator@D@std@@@std@@@std@@YAAAU?$_Wrap_alloc@V?$allocator@D@std@@@0@AAU10@@Z 00416ac0 f i DebugLog.obj
 0001:00015b00       ??0Log4zBinary@log4z@zsummer@@QAE@PBXI@Z 00416b00 f i DebugLog.obj
 0001:00015b50       ??0Log4zStream@log4z@zsummer@@QAE@PADH@Z 00416b50 f i DebugLog.obj
 0001:00015bc0       ??1?$_Compressed_pair@U?$_Wrap_alloc@V?$allocator@D@std@@@std@@V?$_String_val@U?$_Simple_types@D@std@@@2@$00@std@@QAE@XZ 00416bc0 f i DebugLog.obj
 0001:00015c10       ??1?$_String_alloc@U?$_String_base_types@DV?$allocator@D@std@@@std@@@std@@QAE@XZ 00416c10 f i DebugLog.obj
 0001:00015ca0       ??1?$_String_val@U?$_Simple_types@D@std@@@std@@QAE@XZ 00416ca0 f i DebugLog.obj
 0001:00015d00       ??1?$basic_string@DU?$char_traits@D@std@@V?$allocator@D@2@@std@@QAE@XZ 00416d00 f i DebugLog.obj
 0001:00015da0       ??1_Bxty@?$_String_val@U?$_Simple_types@D@std@@@std@@QAE@XZ 00416da0 f i DebugLog.obj
 0001:00015de0       ??1_Container_base12@std@@QAE@XZ 00416de0 f i DebugLog.obj
 0001:00015e70       ??6Log4zStream@log4z@zsummer@@QAEAAV012@ABVLog4zBinary@12@@Z 00416e70 f i DebugLog.obj
 0001:00015ed0       ??6Log4zStream@log4z@zsummer@@QAEAAV012@PBD@Z 00416ed0 f i DebugLog.obj
 0001:00015f30       ??6Log4zStream@log4z@zsummer@@QAEAAV012@PBX@Z 00416f30 f i DebugLog.obj
 0001:00015f90       ?DebugLog@SurrealDebugLog@@YAXABV?$basic_string@DU?$char_traits@D@std@@V?$allocator@D@2@@std@@@Z 00416f90 f   DebugLog.obj
 0001:000161d0       ?DebugLog@SurrealDebugLog@@YAXABV?$basic_string@DU?$char_traits@D@std@@V?$allocator@D@2@@std@@V23@@Z 004171d0 f   DebugLog.obj
 0001:00016480       ?DebugLogHex@SurrealDebugLog@@YAXABV?$basic_string@DU?$char_traits@D@std@@V?$allocator@D@2@@std@@AAV23@I@Z 00417480 f   DebugLog.obj
 0001:00016700       ?_Bx@?$_String_alloc@U?$_String_base_types@DV?$allocator@D@std@@@std@@@std@@QAEAAT_Bxty@?$_String_val@U?$_Simple_types@D@std@@@2@XZ 00417700 f i DebugLog.obj
 0001:00016760       ?_Deallocate@std@@YAXPAXII@Z 00417760 f i DebugLog.obj
 0001:00016b80       ?_Eos@?$basic_string@DU?$char_traits@D@std@@V?$allocator@D@2@@std@@QAEXI@Z 00417b80 f i DebugLog.obj
 0001:00016c10       ?_Free_proxy@?$_String_alloc@U?$_String_base_types@DV?$allocator@D@std@@@std@@@std@@QAEXXZ 00417c10 f i DebugLog.obj
 0001:00016d00       ?_Get_data@?$_String_alloc@U?$_String_base_types@DV?$allocator@D@std@@@std@@@std@@QAEAAV?$_String_val@U?$_Simple_types@D@std@@@2@XZ 00417d00 f i DebugLog.obj
 0001:00016d50       ?_Get_data@?$_String_alloc@U?$_String_base_types@DV?$allocator@D@std@@@std@@@std@@QBEABV?$_String_val@U?$_Simple_types@D@std@@@2@XZ 00417d50 f i DebugLog.obj
 0001:00016da0       ?_Get_first@?$_Compressed_pair@U?$_Wrap_alloc@V?$allocator@D@std@@@std@@V?$_String_val@U?$_Simple_types@D@std@@@2@$00@std@@QAEAAU?$_Wrap_alloc@V?$allocator@D@std@@@2@XZ 00417da0 f i DebugLog.obj
 0001:00016de0       ?_Get_second@?$_Compressed_pair@U?$_Wrap_alloc@V?$allocator@D@std@@@std@@V?$_String_val@U?$_Simple_types@D@std@@@2@$00@std@@QAEAAV?$_String_val@U?$_Simple_types@D@std@@@2@XZ 00417de0 f i DebugLog.obj
 0001:00016e20       ?_Get_second@?$_Compressed_pair@U?$_Wrap_alloc@V?$allocator@D@std@@@std@@V?$_String_val@U?$_Simple_types@D@std@@@2@$00@std@@QBEABV?$_String_val@U?$_Simple_types@D@std@@@2@XZ 00417e20 f i DebugLog.obj
 0001:00016e60       ?_Getal@?$_String_alloc@U?$_String_base_types@DV?$allocator@D@std@@@std@@@std@@QAEAAU?$_Wrap_alloc@V?$allocator@D@std@@@2@XZ 00417e60 f i DebugLog.obj
 0001:00016eb0       ?_Myproxy@?$_String_alloc@U?$_String_base_types@DV?$allocator@D@std@@@std@@@std@@QAEAAPAU_Container_proxy@2@XZ 00417eb0 f i DebugLog.obj
 0001:00016f00       ?_Myptr@?$_String_alloc@U?$_String_base_types@DV?$allocator@D@std@@@std@@@std@@QBEPBDXZ 00417f00 f i DebugLog.obj
 0001:00016f60       ?_Myptr@?$_String_val@U?$_Simple_types@D@std@@@std@@QAEPADXZ 00417f60 f i DebugLog.obj
 0001:00016ff0       ?_Myptr@?$_String_val@U?$_Simple_types@D@std@@@std@@QBEPBDXZ 00417ff0 f i DebugLog.obj
 0001:00017080       ?_Myres@?$_String_alloc@U?$_String_base_types@DV?$allocator@D@std@@@std@@@std@@QAEAAIXZ 00418080 f i DebugLog.obj
 0001:000170e0       ?_Mysize@?$_String_alloc@U?$_String_base_types@DV?$allocator@D@std@@@std@@@std@@QBEABIXZ 004180e0 f i DebugLog.obj
 0001:00017140       ?_Orphan_all@?$_String_alloc@U?$_String_base_types@DV?$allocator@D@std@@@std@@@std@@QAEXXZ 00418140 f i DebugLog.obj
 0001:000171a0       ?_Orphan_all@_Container_base12@std@@QAEXXZ 004181a0 f i DebugLog.obj
 0001:000172b0       ?_Tidy@?$basic_string@DU?$char_traits@D@std@@V?$allocator@D@2@@std@@QAEX_NI@Z 004182b0 f i DebugLog.obj
 0001:000173d0       ?__empty_global_delete@@YAXPAX@Z 004183d0 f i DebugLog.obj
 0001:00017400       ?__global_delete@@YAXPAXI@Z 00418400 f i DebugLog.obj
 0001:00017400       ?__empty_global_delete@@YAXPAXI@Z 00418400 f i DebugLog.obj
 0001:00017430       ?address@?$_Wrap_alloc@V?$allocator@U_Container_proxy@std@@@std@@@std@@QBEPAU_Container_proxy@2@AAU32@@Z 00418430 f i DebugLog.obj
 0001:00017490       ?assign@?$char_traits@D@std@@SAXAADABD@Z 00418490 f i DebugLog.obj
 0001:000174d0       ?c_str@?$basic_string@DU?$char_traits@D@std@@V?$allocator@D@2@@std@@QBEPBDXZ 004184d0 f i DebugLog.obj
 0001:00017560       ?copy@?$char_traits@D@std@@SAPADPADPBDI@Z 00418560 f i DebugLog.obj
 0001:000175e0       ?deallocate@?$_Wrap_alloc@V?$allocator@D@std@@@std@@QAEXPADI@Z 004185e0 f i DebugLog.obj
 0001:00017640       ?deallocate@?$_Wrap_alloc@V?$allocator@U_Container_proxy@std@@@std@@@std@@QAEXPAU_Container_proxy@2@I@Z 00418640 f i DebugLog.obj
 0001:000176a0       ?deallocate@?$allocator@D@std@@QAEXPADI@Z 004186a0 f i DebugLog.obj
 0001:00017700       ?deallocate@?$allocator@U_Container_proxy@std@@@std@@QAEXPAU_Container_proxy@2@I@Z 00418700 f i DebugLog.obj
 0001:00017760       ?getCurrentLen@Log4zStream@log4z@zsummer@@QAEHXZ 00418760 f i DebugLog.obj
 0001:000177b0       ?getPtr@ILog4zManager@log4z@zsummer@@SAPAV123@XZ 004187b0 f i DebugLog.obj
 0001:00017800       ?getRef@ILog4zManager@log4z@zsummer@@SAAAV123@XZ 00418800 f i DebugLog.obj
 0001:00017850       ?length@?$basic_string@DU?$char_traits@D@std@@V?$allocator@D@2@@std@@QBEIXZ 00418850 f i DebugLog.obj
 0001:000178b0       ?pointer_to@?$pointer_traits@PAU_Container_proxy@std@@@std@@SAPAU_Container_proxy@2@AAU32@@Z 004188b0 f i DebugLog.obj
 0001:00017900       ?writeBinary@Log4zStream@log4z@zsummer@@QAEAAV123@ABVLog4zBinary@23@@Z 00418900 f i DebugLog.obj
 0001:00017b30       ?writeChar@Log4zStream@log4z@zsummer@@QAEAAV123@D@Z 00418b30 f i DebugLog.obj
 0001:00017bb0       ?writePointer@Log4zStream@log4z@zsummer@@QAEAAV123@PBX@Z 00418bb0 f i DebugLog.obj
 0001:00017c40       ?writeString@Log4zStream@log4z@zsummer@@QAEAAV123@PBD@Z 00418c40 f i DebugLog.obj
 0001:00017cb0       ?writeString@Log4zStream@log4z@zsummer@@QAEAAV123@PBDI@Z 00418cb0 f i DebugLog.obj
 0001:00017d60       ?writeULongLong@Log4zStream@log4z@zsummer@@QAEAAV123@_KHH@Z 00418d60 f i DebugLog.obj
 0001:00018390       ??$?0$$QAV?$basic_string@DU?$char_traits@D@std@@V?$allocator@D@2@@std@@$$Z$$V@?$pair@$$CBV?$basic_string@DU?$char_traits@D@std@@V?$allocator@D@2@@std@@H@std@@QAE@Upiecewise_construct_t@1@V?$tuple@$$QAV?$basic_string@DU?$char_traits@D@std@@V?$allocator@D@2@@std@@@1@V?$tuple@$$V@1@@Z 00419390 f i log4z.obj
 0001:00018410       ??$?0$$V@?$_Compressed_pair@U?$_Wrap_alloc@V?$allocator@D@std@@@std@@V?$_String_val@U?$_Simple_types@D@std@@@2@$00@std@@QAE@U_Zero_then_variadic_args_t@1@@Z 00419410 f i log4z.obj
 0001:00018470       ??$?0$$V@?$_Compressed_pair@U?$_Wrap_alloc@V?$allocator@PAULogData@log4z@zsummer@@@std@@@std@@V?$_Deque_val@U?$_Deque_simple_types@PAULogData@log4z@zsummer@@@std@@@2@$00@std@@QAE@U_Zero_then_variadic_args_t@1@@Z 00419470 f i log4z.obj
 0001:000184d0       ??$?0$$V@?$_Compressed_pair@U?$_Wrap_alloc@V?$allocator@PAULogData@log4z@zsummer@@@std@@@std@@V?$_Vector_val@U?$_Simple_types@PAULogData@log4z@zsummer@@@std@@@2@$00@std@@QAE@U_Zero_then_variadic_args_t@1@@Z 004194d0 f i log4z.obj
 0001:00018530       ??$?0$$V@?$_Compressed_pair@U?$_Wrap_alloc@V?$allocator@U?$_List_node@U?$pair@_JV?$basic_string@DU?$char_traits@D@std@@V?$allocator@D@2@@std@@@std@@PAX@std@@@std@@@std@@V?$_List_val@U?$_List_simple_types@U?$pair@_JV?$basic_string@DU?$char_traits@D@std@@V?$allocator@D@2@@std@@@std@@@std@@@2@$00@std@@QAE@U_Zero_then_variadic_args_t@1@@Z 00419530 f i log4z.obj
 0001:00018590       ??$?0$$V@?$_Compressed_pair@U?$_Wrap_alloc@V?$allocator@U?$_Tree_node@U?$pair@$$CBV?$basic_string@DU?$char_traits@D@std@@V?$allocator@D@2@@std@@H@std@@PAX@std@@@std@@@std@@V?$_Tree_val@U?$_Tree_simple_types@U?$pair@$$CBV?$basic_string@DU?$char_traits@D@std@@V?$allocator@D@2@@std@@H@std@@@std@@@2@$00@std@@QAE@U_Zero_then_variadic_args_t@1@@Z 00419590 f i log4z.obj
 0001:000185f0       ??$?0$$V@?$_Compressed_pair@U?$_Wrap_alloc@V?$allocator@U?$_Tree_node@U?$pair@$$CBV?$basic_string@DU?$char_traits@D@std@@V?$allocator@D@2@@std@@ULoggerInfo@log4z@zsummer@@@std@@PAX@std@@@std@@@std@@V?$_Tree_val@U?$_Tree_simple_types@U?$pair@$$CBV?$basic_string@DU?$char_traits@D@std@@V?$allocator@D@2@@std@@ULoggerInfo@log4z@zsummer@@@std@@@std@@@2@$00@std@@QAE@U_Zero_then_variadic_args_t@1@@Z 004195f0 f i log4z.obj
 0001:00018650       ??$?0AAU?$_Wrap_alloc@V?$allocator@PAULogData@log4z@zsummer@@@std@@@std@@@?$_Wrap_alloc@V?$allocator@PAPAULogData@log4z@zsummer@@@std@@@std@@QAE@AAU?$_Wrap_alloc@V?$allocator@PAULogData@log4z@zsummer@@@std@@@1@@Z 00419650 f i log4z.obj
 0001:000186c0       ??$?0AAU?$_Wrap_alloc@V?$allocator@PAULogData@log4z@zsummer@@@std@@@std@@@?$_Wrap_alloc@V?$allocator@U_Container_proxy@std@@@std@@@std@@QAE@AAU?$_Wrap_alloc@V?$allocator@PAULogData@log4z@zsummer@@@std@@@1@@Z 004196c0 f i log4z.obj
 0001:00018730       ??$?0AAU?$_Wrap_alloc@V?$allocator@U?$_List_node@U?$pair@_JV?$basic_string@DU?$char_traits@D@std@@V?$allocator@D@2@@std@@@std@@PAX@std@@@std@@@std@@@?$_Wrap_alloc@V?$allocator@U_Container_proxy@std@@@std@@@std@@QAE@AAU?$_Wrap_alloc@V?$allocator@U?$_List_node@U?$pair@_JV?$basic_string@DU?$char_traits@D@std@@V?$allocator@D@2@@std@@@std@@PAX@std@@@std@@@1@@Z 00419730 f i log4z.obj
 0001:000187a0       ??$?0AAU?$_Wrap_alloc@V?$allocator@U?$_Tree_node@U?$pair@$$CBV?$basic_string@DU?$char_traits@D@std@@V?$allocator@D@2@@std@@H@std@@PAX@std@@@std@@@std@@@?$_Wrap_alloc@V?$allocator@U_Container_proxy@std@@@std@@@std@@QAE@AAU?$_Wrap_alloc@V?$allocator@U?$_Tree_node@U?$pair@$$CBV?$basic_string@DU?$char_traits@D@std@@V?$allocator@D@2@@std@@H@std@@PAX@std@@@std@@@1@@Z 004197a0 f i log4z.obj
 0001:00018810       ??$?0AAU?$_Wrap_alloc@V?$allocator@U?$_Tree_node@U?$pair@$$CBV?$basic_string@DU?$char_traits@D@std@@V?$allocator@D@2@@std@@ULoggerInfo@log4z@zsummer@@@std@@PAX@std@@@std@@@std@@@?$_Wrap_alloc@V?$allocator@U_Container_proxy@std@@@std@@@std@@QAE@AAU?$_Wrap_alloc@V?$allocator@U?$_Tree_node@U?$pair@$$CBV?$basic_string@DU?$char_traits@D@std@@V?$allocator@D@2@@std@@ULoggerInfo@log4z@zsummer@@@std@@PAX@std@@@std@@@1@@Z 00419810 f i log4z.obj
 0001:00018880       ??$?0AAV?$_Tree_iterator@V?$_Tree_val@U?$_Tree_simple_types@U?$pair@$$CBV?$basic_string@DU?$char_traits@D@std@@V?$allocator@D@2@@std@@H@std@@@std@@@std@@@std@@_NX$0A@@?$pair@V?$_Tree_iterator@V?$_Tree_val@U?$_Tree_simple_types@U?$pair@$$CBV?$basic_string@DU?$char_traits@D@std@@V?$allocator@D@2@@std@@H@std@@@std@@@std@@@std@@_N@std@@QAE@AAV?$_Tree_iterator@V?$_Tree_val@U?$_Tree_simple_types@U?$pair@$$CBV?$basic_string@DU?$char_traits@D@std@@V?$allocator@D@2@@std@@H@std@@@std@@@std@@@1@$$QA_N@Z 00419880 f i log4z.obj
 0001:00018900       ??$?0AAV?$_Tree_iterator@V?$_Tree_val@U?$_Tree_simple_types@U?$pair@$$CBV?$basic_string@DU?$char_traits@D@std@@V?$allocator@D@2@@std@@ULoggerInfo@log4z@zsummer@@@std@@@std@@@std@@@std@@_NX$0A@@?$pair@V?$_Tree_iterator@V?$_Tree_val@U?$_Tree_simple_types@U?$pair@$$CBV?$basic_string@DU?$char_traits@D@std@@V?$allocator@D@2@@std@@ULoggerInfo@log4z@zsummer@@@std@@@std@@@std@@@std@@_N@std@@QAE@AAV?$_Tree_iterator@V?$_Tree_val@U?$_Tree_simple_types@U?$pair@$$CBV?$basic_string@DU?$char_traits@D@std@@V?$allocator@D@2@@std@@ULoggerInfo@log4z@zsummer@@@std@@@std@@@std@@@1@$$QA_N@Z 00419900 f i log4z.obj
 0001:00018980       ??$?0AAV?$basic_string@DU?$char_traits@D@std@@V?$allocator@D@2@@std@@AAULoggerInfo@log4z@zsummer@@X$0A@@?$pair@V?$basic_string@DU?$char_traits@D@std@@V?$allocator@D@2@@std@@ULoggerInfo@log4z@zsummer@@@std@@QAE@AAV?$basic_string@DU?$char_traits@D@std@@V?$allocator@D@2@@1@AAULoggerInfo@log4z@zsummer@@@Z 00419980 f i log4z.obj
 0001:00018a50       ??$?0ABU?$less@V?$basic_string@DU?$char_traits@D@std@@V?$allocator@D@2@@std@@@std@@U_Zero_then_variadic_args_t@1@@?$_Compressed_pair@U?$less@V?$basic_string@DU?$char_traits@D@std@@V?$allocator@D@2@@std@@@std@@V?$_Compressed_pair@U?$_Wrap_alloc@V?$allocator@U?$_Tree_node@U?$pair@$$CBV?$basic_string@DU?$char_traits@D@std@@V?$allocator@D@2@@std@@H@std@@PAX@std@@@std@@@std@@V?$_Tree_val@U?$_Tree_simple_types@U?$pair@$$CBV?$basic_string@DU?$char_traits@D@std@@V?$allocator@D@2@@std@@H@std@@@std@@@2@$00@2@$00@std@@QAE@U_One_then_variadic_args_t@1@ABU?$less@V?$basic_string@DU?$char_traits@D@std@@V?$allocator@D@2@@std@@@1@$$QAU_Zero_then_variadic_args_t@1@@Z 00419a50 f i log4z.obj
 0001:00018ad0       ??$?0ABU?$less@V?$basic_string@DU?$char_traits@D@std@@V?$allocator@D@2@@std@@@std@@U_Zero_then_variadic_args_t@1@@?$_Compressed_pair@U?$less@V?$basic_string@DU?$char_traits@D@std@@V?$allocator@D@2@@std@@@std@@V?$_Compressed_pair@U?$_Wrap_alloc@V?$allocator@U?$_Tree_node@U?$pair@$$CBV?$basic_string@DU?$char_traits@D@std@@V?$allocator@D@2@@std@@ULoggerInfo@log4z@zsummer@@@std@@PAX@std@@@std@@@std@@V?$_Tree_val@U?$_Tree_simple_types@U?$pair@$$CBV?$basic_string@DU?$char_traits@D@std@@V?$allocator@D@2@@std@@ULoggerInfo@log4z@zsummer@@@std@@@std@@@2@$00@2@$00@std@@QAE@U_One_then_variadic_args_t@1@ABU?$less@V?$basic_string@DU?$char_traits@D@std@@V?$allocator@D@2@@std@@@1@$$QAU_Zero_then_variadic_args_t@1@@Z 00419ad0 f i log4z.obj
 0001:00018b50       ??$?0ABV?$allocator@D@std@@$$V@?$_Compressed_pair@U?$_Wrap_alloc@V?$allocator@D@std@@@std@@V?$_String_val@U?$_Simple_types@D@std@@@2@$00@std@@QAE@U_One_then_variadic_args_t@1@ABV?$allocator@D@1@@Z 00419b50 f i log4z.obj
 0001:00018bc0       ??$?0ABV?$allocator@D@std@@@?$_Wrap_alloc@V?$allocator@D@std@@@std@@QAE@ABV?$allocator@D@1@@Z 00419bc0 f i log4z.obj
 0001:00018c30       ??$?0ABV?$allocator@D@std@@X@?$_String_alloc@U?$_String_base_types@DV?$allocator@D@std@@@std@@@std@@QAE@ABV?$allocator@D@1@@Z 00419c30 f i log4z.obj
 0001:00018cf0       ??$?0ABV?$basic_string@DU?$char_traits@D@std@@V?$allocator@D@2@@std@@$$Z$$V@?$pair@$$CBV?$basic_string@DU?$char_traits@D@std@@V?$allocator@D@2@@std@@H@std@@QAE@Upiecewise_construct_t@1@V?$tuple@ABV?$basic_string@DU?$char_traits@D@std@@V?$allocator@D@2@@std@@@1@V?$tuple@$$V@1@@Z 00419cf0 f i log4z.obj
 0001:00018d70       ??$?0ABV?$basic_string@DU?$char_traits@D@std@@V?$allocator@D@2@@std@@$0A@@?$tuple@ABV?$basic_string@DU?$char_traits@D@std@@V?$allocator@D@2@@std@@@std@@QAE@ABV?$basic_string@DU?$char_traits@D@std@@V?$allocator@D@2@@1@@Z 00419d70 f i log4z.obj
 0001:00018df0       ??$?0ABV?$basic_string@DU?$char_traits@D@std@@V?$allocator@D@2@@std@@@?$_Tuple_val@ABV?$basic_string@DU?$char_traits@D@std@@V?$allocator@D@2@@std@@@std@@QAE@ABV?$basic_string@DU?$char_traits@D@std@@V?$allocator@D@2@@1@@Z 00419df0 f i log4z.obj
 0001:00018e50       ??$?0PAULogData@log4z@zsummer@@@?$allocator@PAPAULogData@log4z@zsummer@@@std@@QAE@ABV?$allocator@PAULogData@log4z@zsummer@@@1@@Z 00419e50 f i log4z.obj
 0001:00018e90       ??$?0PAULogData@log4z@zsummer@@@?$allocator@U_Container_proxy@std@@@std@@QAE@ABV?$allocator@PAULogData@log4z@zsummer@@@1@@Z 00419e90 f i log4z.obj
 0001:00018ed0       ??$?0U?$_List_node@U?$pair@_JV?$basic_string@DU?$char_traits@D@std@@V?$allocator@D@2@@std@@@std@@PAX@std@@@?$allocator@U_Container_proxy@std@@@std@@QAE@ABV?$allocator@U?$_List_node@U?$pair@_JV?$basic_string@DU?$char_traits@D@std@@V?$allocator@D@2@@std@@@std@@PAX@std@@@1@@Z 00419ed0 f i log4z.obj
 0001:00018f10       ??$?0U?$_Tree_node@U?$pair@$$CBV?$basic_string@DU?$char_traits@D@std@@V?$allocator@D@2@@std@@H@std@@PAX@std@@@?$allocator@U_Container_proxy@std@@@std@@QAE@ABV?$allocator@U?$_Tree_node@U?$pair@$$CBV?$basic_string@DU?$char_traits@D@std@@V?$allocator@D@2@@std@@H@std@@PAX@std@@@1@@Z 00419f10 f i log4z.obj
 0001:00018f50       ??$?0U?$_Tree_node@U?$pair@$$CBV?$basic_string@DU?$char_traits@D@std@@V?$allocator@D@2@@std@@ULoggerInfo@log4z@zsummer@@@std@@PAX@std@@@?$allocator@U_Container_proxy@std@@@std@@QAE@ABV?$allocator@U?$_Tree_node@U?$pair@$$CBV?$basic_string@DU?$char_traits@D@std@@V?$allocator@D@2@@std@@ULoggerInfo@log4z@zsummer@@@std@@PAX@std@@@1@@Z 00419f50 f i log4z.obj
 0001:00018f90       ??$?0U?$_Wrap_alloc@V?$allocator@D@std@@@std@@$$V@?$_Compressed_pair@U?$_Wrap_alloc@V?$allocator@D@std@@@std@@V?$_String_val@U?$_Simple_types@D@std@@@2@$00@std@@QAE@U_One_then_variadic_args_t@1@$$QAU?$_Wrap_alloc@V?$allocator@D@std@@@1@@Z 00419f90 f i log4z.obj
 0001:00019000       ??$?0U?$_Wrap_alloc@V?$allocator@D@std@@@std@@X@?$_String_alloc@U?$_String_base_types@DV?$allocator@D@std@@@std@@@std@@QAE@$$QAU?$_Wrap_alloc@V?$allocator@D@std@@@1@@Z 0041a000 f i log4z.obj
 0001:000190c0       ??$?0U?$_Wrap_alloc@V?$allocator@U?$_List_node@U?$pair@_JV?$basic_string@DU?$char_traits@D@std@@V?$allocator@D@2@@std@@@std@@PAX@std@@@std@@@std@@$$V@?$_Compressed_pair@U?$_Wrap_alloc@V?$allocator@U?$_List_node@U?$pair@_JV?$basic_string@DU?$char_traits@D@std@@V?$allocator@D@2@@std@@@std@@PAX@std@@@std@@@std@@V?$_List_val@U?$_List_simple_types@U?$pair@_JV?$basic_string@DU?$char_traits@D@std@@V?$allocator@D@2@@std@@@std@@@std@@@2@$00@std@@QAE@U_One_then_variadic_args_t@1@$$QAU?$_Wrap_alloc@V?$allocator@U?$_List_node@U?$pair@_JV?$basic_string@DU?$char_traits@D@std@@V?$allocator@D@2@@std@@@std@@PAX@std@@@std@@@1@@Z 0041a0c0 f i log4z.obj
 0001:00019130       ??$?0U?$_Wrap_alloc@V?$allocator@U?$_List_node@U?$pair@_JV?$basic_string@DU?$char_traits@D@std@@V?$allocator@D@2@@std@@@std@@PAX@std@@@std@@@std@@X@?$_List_alloc@U?$_List_base_types@U?$pair@_JV?$basic_string@DU?$char_traits@D@std@@V?$allocator@D@2@@std@@@std@@V?$allocator@U?$pair@_JV?$basic_string@DU?$char_traits@D@std@@V?$allocator@D@2@@std@@@std@@@2@@std@@@std@@QAE@$$QAU?$_Wrap_alloc@V?$allocator@U?$_List_node@U?$pair@_JV?$basic_string@DU?$char_traits@D@std@@V?$allocator@D@2@@std@@@std@@PAX@std@@@std@@@1@@Z 0041a130 f i log4z.obj
 0001:00019260       ??$?0U?$_Wrap_alloc@V?$allocator@U?$_List_node@U?$pair@_JV?$basic_string@DU?$char_traits@D@std@@V?$allocator@D@2@@std@@@std@@PAX@std@@@std@@@std@@X@?$_List_buy@U?$pair@_JV?$basic_string@DU?$char_traits@D@std@@V?$allocator@D@2@@std@@@std@@V?$allocator@U?$pair@_JV?$basic_string@DU?$char_traits@D@std@@V?$allocator@D@2@@std@@@std@@@2@@std@@QAE@$$QAU?$_Wrap_alloc@V?$allocator@U?$_List_node@U?$pair@_JV?$basic_string@DU?$char_traits@D@std@@V?$allocator@D@2@@std@@@std@@PAX@std@@@std@@@1@@Z 0041a260 f i log4z.obj
 0001:000192d0       ??$?0U_Exact_args_t@std@@$0A@@?$tuple@$$V@std@@QAE@U_Exact_args_t@1@@Z 0041a2d0 f i log4z.obj
 0001:00019310       ??$?0V?$_Tree_iterator@V?$_Tree_val@U?$_Tree_simple_types@U?$pair@$$CBV?$basic_string@DU?$char_traits@D@std@@V?$allocator@D@2@@std@@H@std@@@std@@@std@@@std@@_NX$0A@@?$pair@V?$_Tree_iterator@V?$_Tree_val@U?$_Tree_simple_types@U?$pair@$$CBV?$basic_string@DU?$char_traits@D@std@@V?$allocator@D@2@@std@@H@std@@@std@@@std@@@std@@_N@std@@QAE@$$QAV?$_Tree_iterator@V?$_Tree_val@U?$_Tree_simple_types@U?$pair@$$CBV?$basic_string@DU?$char_traits@D@std@@V?$allocator@D@2@@std@@H@std@@@std@@@std@@@1@$$QA_N@Z 0041a310 f i log4z.obj
 0001:00019390       ??$?0V?$_Tree_iterator@V?$_Tree_val@U?$_Tree_simple_types@U?$pair@$$CBV?$basic_string@DU?$char_traits@D@std@@V?$allocator@D@2@@std@@ULoggerInfo@log4z@zsummer@@@std@@@std@@@std@@@std@@_NX$0A@@?$pair@V?$_Tree_iterator@V?$_Tree_val@U?$_Tree_simple_types@U?$pair@$$CBV?$basic_string@DU?$char_traits@D@std@@V?$allocator@D@2@@std@@ULoggerInfo@log4z@zsummer@@@std@@@std@@@std@@@std@@_N@std@@QAE@$$QAV?$_Tree_iterator@V?$_Tree_val@U?$_Tree_simple_types@U?$pair@$$CBV?$basic_string@DU?$char_traits@D@std@@V?$allocator@D@2@@std@@ULoggerInfo@log4z@zsummer@@@std@@@std@@@std@@@1@$$QA_N@Z 0041a390 f i log4z.obj
 0001:00019410       ??$?0V?$allocator@D@std@@@?$_Wrap_alloc@V?$allocator@D@std@@@std@@QAE@$$QAV?$allocator@D@1@@Z 0041a410 f i log4z.obj
 0001:00019480       ??$?0V?$allocator@U?$_List_node@U?$pair@_JV?$basic_string@DU?$char_traits@D@std@@V?$allocator@D@2@@std@@@std@@PAX@std@@@std@@@?$_Wrap_alloc@V?$allocator@U?$_List_node@U?$pair@_JV?$basic_string@DU?$char_traits@D@std@@V?$allocator@D@2@@std@@@std@@PAX@std@@@std@@@std@@QAE@$$QAV?$allocator@U?$_List_node@U?$pair@_JV?$basic_string@DU?$char_traits@D@std@@V?$allocator@D@2@@std@@@std@@PAX@std@@@1@@Z 0041a480 f i log4z.obj
 0001:000194f0       ??$?0V?$basic_string@DU?$char_traits@D@std@@V?$allocator@D@2@@std@@$$V$0A@@?$tuple@$$QAV?$basic_string@DU?$char_traits@D@std@@V?$allocator@D@2@@std@@@std@@QAE@$$QAV?$basic_string@DU?$char_traits@D@std@@V?$allocator@D@2@@1@@Z 0041a4f0 f i log4z.obj
 0001:00019580       ??$?0V?$basic_string@DU?$char_traits@D@std@@V?$allocator@D@2@@std@@@?$_Tuple_val@$$QAV?$basic_string@DU?$char_traits@D@std@@V?$allocator@D@2@@std@@@std@@QAE@$$QAV?$basic_string@DU?$char_traits@D@std@@V?$allocator@D@2@@1@@Z 0041a580 f i log4z.obj
 0001:000195e0       ??$?0V?$basic_string@DU?$char_traits@D@std@@V?$allocator@D@2@@std@@PBDX$0A@@?$pair@V?$basic_string@DU?$char_traits@D@std@@V?$allocator@D@2@@std@@PBD@std@@QAE@ABV?$basic_string@DU?$char_traits@D@std@@V?$allocator@D@2@@1@ABQBD@Z 0041a5e0 f i log4z.obj
 0001:00019650       ??$?0V?$basic_string@DU?$char_traits@D@std@@V?$allocator@D@2@@std@@PBDX$0A@@?$pair@V?$basic_string@DU?$char_traits@D@std@@V?$allocator@D@2@@std@@V12@@std@@QAE@$$QAU?$pair@V?$basic_string@DU?$char_traits@D@std@@V?$allocator@D@2@@std@@PBD@1@@Z 0041a650 f i log4z.obj
 0001:00019720       ??$?0V?$basic_string@DU?$char_traits@D@std@@V?$allocator@D@2@@std@@ULoggerInfo@log4z@zsummer@@X$0A@@?$pair@$$CBV?$basic_string@DU?$char_traits@D@std@@V?$allocator@D@2@@std@@ULoggerInfo@log4z@zsummer@@@std@@QAE@$$QAU?$pair@V?$basic_string@DU?$char_traits@D@std@@V?$allocator@D@2@@std@@ULoggerInfo@log4z@zsummer@@@1@@Z 0041a720 f i log4z.obj
 0001:000197f0       ??$?0V?$basic_string@DU?$char_traits@D@std@@V?$allocator@D@2@@std@@V01@X$0A@@?$pair@V?$basic_string@DU?$char_traits@D@std@@V?$allocator@D@2@@std@@V12@@std@@QAE@$$QAV?$basic_string@DU?$char_traits@D@std@@V?$allocator@D@2@@1@0@Z 0041a7f0 f i log4z.obj
 0001:00019880       ??$?0V?$tuple@$$QAV?$basic_string@DU?$char_traits@D@std@@V?$allocator@D@2@@std@@@std@@V?$tuple@$$V@1@$0A@$$Z$S@?$pair@$$CBV?$basic_string@DU?$char_traits@D@std@@V?$allocator@D@2@@std@@H@std@@QAE@AAV?$tuple@$$QAV?$basic_string@DU?$char_traits@D@std@@V?$allocator@D@2@@std@@@1@AAV?$tuple@$$V@1@U?$integer_sequence@I$0A@@1@U?$integer_sequence@I$S@1@@Z 0041a880 f i log4z.obj
 0001:00019900       ??$?0V?$tuple@ABV?$basic_string@DU?$char_traits@D@std@@V?$allocator@D@2@@std@@@std@@V?$tuple@$$V@1@$0A@$$Z$S@?$pair@$$CBV?$basic_string@DU?$char_traits@D@std@@V?$allocator@D@2@@std@@H@std@@QAE@AAV?$tuple@ABV?$basic_string@DU?$char_traits@D@std@@V?$allocator@D@2@@std@@@1@AAV?$tuple@$$V@1@U?$integer_sequence@I$0A@@1@U?$integer_sequence@I$S@1@@Z 0041a900 f i log4z.obj
 0001:00019980       ??$?0_JAAV?$basic_string@DU?$char_traits@D@std@@V?$allocator@D@2@@std@@X$0A@@?$pair@_JV?$basic_string@DU?$char_traits@D@std@@V?$allocator@D@2@@std@@@std@@QAE@$$QA_JAAV?$basic_string@DU?$char_traits@D@std@@V?$allocator@D@2@@1@@Z 0041a980 f i log4z.obj
 0001:00019a10       ??$?8DD@std@@YA_NABV?$allocator@D@0@0@Z 0041aa10 f i log4z.obj
 0001:00019a40       ??$?8DU?$char_traits@D@std@@V?$allocator@D@1@@std@@YA_NABV?$basic_string@DU?$char_traits@D@std@@V?$allocator@D@2@@0@0@Z 0041aa40 f i log4z.obj
 0001:00019ac0       ??$?8DU?$char_traits@D@std@@V?$allocator@D@1@@std@@YA_NABV?$basic_string@DU?$char_traits@D@std@@V?$allocator@D@2@@0@PBD@Z 0041aac0 f i log4z.obj
 0001:00019b40       ??$?8PAULogData@log4z@zsummer@@PAU012@@std@@YA_NABV?$allocator@PAULogData@log4z@zsummer@@@0@0@Z 0041ab40 f i log4z.obj
 0001:00019b70       ??$?8V?$allocator@D@std@@V01@@std@@YA_NABU?$_Wrap_alloc@V?$allocator@D@std@@@0@0@Z 0041ab70 f i log4z.obj
 0001:00019bd0       ??$?8V?$allocator@PAULogData@log4z@zsummer@@@std@@V01@@std@@YA_NABU?$_Wrap_alloc@V?$allocator@PAULogData@log4z@zsummer@@@std@@@0@0@Z 0041abd0 f i log4z.obj
 0001:00019c30       ??$?9DU?$char_traits@D@std@@V?$allocator@D@1@@std@@YA_NABV?$basic_string@DU?$char_traits@D@std@@V?$allocator@D@2@@0@0@Z 0041ac30 f i log4z.obj
 0001:00019cb0       ??$?9V?$allocator@D@std@@V01@@std@@YA_NABU?$_Wrap_alloc@V?$allocator@D@std@@@0@0@Z 0041acb0 f i log4z.obj
 0001:00019d30       ??$?9V?$allocator@PAULogData@log4z@zsummer@@@std@@V01@@std@@YA_NABU?$_Wrap_alloc@V?$allocator@PAULogData@log4z@zsummer@@@std@@@0@0@Z 0041ad30 f i log4z.obj
 0001:00019db0       ??$?MDU?$char_traits@D@std@@V?$allocator@D@1@@std@@YA_NABV?$basic_string@DU?$char_traits@D@std@@V?$allocator@D@2@@0@0@Z 0041adb0 f i log4z.obj
 0001:00019e30       ??$_Buynode@ABU?$pair@_JV?$basic_string@DU?$char_traits@D@std@@V?$allocator@D@2@@std@@@std@@@?$_List_buy@U?$pair@_JV?$basic_string@DU?$char_traits@D@std@@V?$allocator@D@2@@std@@@std@@V?$allocator@U?$pair@_JV?$basic_string@DU?$char_traits@D@std@@V?$allocator@D@2@@std@@@std@@@2@@std@@QAEPAU?$_List_node@U?$pair@_JV?$basic_string@DU?$char_traits@D@std@@V?$allocator@D@2@@std@@@std@@PAX@1@PAU21@0ABU?$pair@_JV?$basic_string@DU?$char_traits@D@std@@V?$allocator@D@2@@std@@@1@@Z 0041ae30 f i log4z.obj
 0001:00019f70       ??$_Buynode@ABUpiecewise_construct_t@std@@V?$tuple@$$QAV?$basic_string@DU?$char_traits@D@std@@V?$allocator@D@2@@std@@@2@V?$tuple@$$V@2@@?$_Tree_comp_alloc@V?$_Tmap_traits@V?$basic_string@DU?$char_traits@D@std@@V?$allocator@D@2@@std@@HU?$less@V?$basic_string@DU?$char_traits@D@std@@V?$allocator@D@2@@std@@@2@V?$allocator@U?$pair@$$CBV?$basic_string@DU?$char_traits@D@std@@V?$allocator@D@2@@std@@H@std@@@2@$0A@@std@@@std@@QAEPAU?$_Tree_node@U?$pair@$$CBV?$basic_string@DU?$char_traits@D@std@@V?$allocator@D@2@@std@@H@std@@PAX@1@ABUpiecewise_construct_t@1@$$QAV?$tuple@$$QAV?$basic_string@DU?$char_traits@D@std@@V?$allocator@D@2@@std@@@1@$$QAV?$tuple@$$V@1@@Z 0041af70 f i log4z.obj
 0001:0001a0e0       ??$_Buynode@ABUpiecewise_construct_t@std@@V?$tuple@ABV?$basic_string@DU?$char_traits@D@std@@V?$allocator@D@2@@std@@@2@V?$tuple@$$V@2@@?$_Tree_comp_alloc@V?$_Tmap_traits@V?$basic_string@DU?$char_traits@D@std@@V?$allocator@D@2@@std@@HU?$less@V?$basic_string@DU?$char_traits@D@std@@V?$allocator@D@2@@std@@@2@V?$allocator@U?$pair@$$CBV?$basic_string@DU?$char_traits@D@std@@V?$allocator@D@2@@std@@H@std@@@2@$0A@@std@@@std@@QAEPAU?$_Tree_node@U?$pair@$$CBV?$basic_string@DU?$char_traits@D@std@@V?$allocator@D@2@@std@@H@std@@PAX@1@ABUpiecewise_construct_t@1@$$QAV?$tuple@ABV?$basic_string@DU?$char_traits@D@std@@V?$allocator@D@2@@std@@@1@$$QAV?$tuple@$$V@1@@Z 0041b0e0 f i log4z.obj
 0001:0001a250       ??$_Buynode@U?$pair@V?$basic_string@DU?$char_traits@D@std@@V?$allocator@D@2@@std@@ULoggerInfo@log4z@zsummer@@@std@@@?$_Tree_comp_alloc@V?$_Tmap_traits@V?$basic_string@DU?$char_traits@D@std@@V?$allocator@D@2@@std@@ULoggerInfo@log4z@zsummer@@U?$less@V?$basic_string@DU?$char_traits@D@std@@V?$allocator@D@2@@std@@@2@V?$allocator@U?$pair@$$CBV?$basic_string@DU?$char_traits@D@std@@V?$allocator@D@2@@std@@ULoggerInfo@log4z@zsummer@@@std@@@2@$0A@@std@@@std@@QAEPAU?$_Tree_node@U?$pair@$$CBV?$basic_string@DU?$char_traits@D@std@@V?$allocator@D@2@@std@@ULoggerInfo@log4z@zsummer@@@std@@PAX@1@$$QAU?$pair@V?$basic_string@DU?$char_traits@D@std@@V?$allocator@D@2@@std@@ULoggerInfo@log4z@zsummer@@@1@@Z 0041b250 f i log4z.obj
 0001:0001a3a0       ??$_Buynode@U?$pair@_JV?$basic_string@DU?$char_traits@D@std@@V?$allocator@D@2@@std@@@std@@@?$_List_buy@U?$pair@_JV?$basic_string@DU?$char_traits@D@std@@V?$allocator@D@2@@std@@@std@@V?$allocator@U?$pair@_JV?$basic_string@DU?$char_traits@D@std@@V?$allocator@D@2@@std@@@std@@@2@@std@@QAEPAU?$_List_node@U?$pair@_JV?$basic_string@DU?$char_traits@D@std@@V?$allocator@D@2@@std@@@std@@PAX@1@PAU21@0$$QAU?$pair@_JV?$basic_string@DU?$char_traits@D@std@@V?$allocator@D@2@@std@@@1@@Z 0041b3a0 f i log4z.obj
 0001:0001a4e0       ??$_Buynode_if_nil@AAU?$pair@$$CBV?$basic_string@DU?$char_traits@D@std@@V?$allocator@D@2@@std@@H@std@@@?$_Tree@V?$_Tmap_traits@V?$basic_string@DU?$char_traits@D@std@@V?$allocator@D@2@@std@@HU?$less@V?$basic_string@DU?$char_traits@D@std@@V?$allocator@D@2@@std@@@2@V?$allocator@U?$pair@$$CBV?$basic_string@DU?$char_traits@D@std@@V?$allocator@D@2@@std@@H@std@@@2@$0A@@std@@@std@@IAEPAU?$_Tree_node@U?$pair@$$CBV?$basic_string@DU?$char_traits@D@std@@V?$allocator@D@2@@std@@H@std@@PAX@1@PAU21@AAU?$pair@$$CBV?$basic_string@DU?$char_traits@D@std@@V?$allocator@D@2@@std@@H@1@@Z 0041b4e0 f i log4z.obj
 0001:0001a520       ??$_Buynode_if_nil@AAU?$pair@$$CBV?$basic_string@DU?$char_traits@D@std@@V?$allocator@D@2@@std@@ULoggerInfo@log4z@zsummer@@@std@@@?$_Tree@V?$_Tmap_traits@V?$basic_string@DU?$char_traits@D@std@@V?$allocator@D@2@@std@@ULoggerInfo@log4z@zsummer@@U?$less@V?$basic_string@DU?$char_traits@D@std@@V?$allocator@D@2@@std@@@2@V?$allocator@U?$pair@$$CBV?$basic_string@DU?$char_traits@D@std@@V?$allocator@D@2@@std@@ULoggerInfo@log4z@zsummer@@@std@@@2@$0A@@std@@@std@@IAEPAU?$_Tree_node@U?$pair@$$CBV?$basic_string@DU?$char_traits@D@std@@V?$allocator@D@2@@std@@ULoggerInfo@log4z@zsummer@@@std@@PAX@1@PAU21@AAU?$pair@$$CBV?$basic_string@DU?$char_traits@D@std@@V?$allocator@D@2@@std@@ULoggerInfo@log4z@zsummer@@@1@@Z 0041b520 f i log4z.obj
 0001:0001a560       ??$_Const_cast@$$CBD@std@@YA@PBD@Z 0041b560 f i log4z.obj
 0001:0001a5a0       ??$_Copy_memmove@PAPAPAULogData@log4z@zsummer@@PAPAPAU123@@std@@YAPAPAPAULogData@log4z@zsummer@@PAPAPAU123@00@Z 0041b5a0 f i log4z.obj
 0001:0001a630       ??$_Copy_memmove@PAPAULogData@log4z@zsummer@@PAPAU123@@std@@YAPAPAULogData@log4z@zsummer@@PAPAU123@00@Z 0041b630 f i log4z.obj
 0001:0001a6c0       ??$_Debug_lt_pred@AAU?$less@V?$basic_string@DU?$char_traits@D@std@@V?$allocator@D@2@@std@@@std@@AAV?$basic_string@DU?$char_traits@D@std@@V?$allocator@D@2@@2@ABV32@@std@@YA_NAAU?$less@V?$basic_string@DU?$char_traits@D@std@@V?$allocator@D@2@@std@@@0@AAV?$basic_string@DU?$char_traits@D@std@@V?$allocator@D@2@@0@ABV20@PB_WI@Z 0041b6c0 f i log4z.obj
 0001:0001a7a0       ??$_Debug_lt_pred@AAU?$less@V?$basic_string@DU?$char_traits@D@std@@V?$allocator@D@2@@std@@@std@@ABV?$basic_string@DU?$char_traits@D@std@@V?$allocator@D@2@@2@ABV32@@std@@YA_NAAU?$less@V?$basic_string@DU?$char_traits@D@std@@V?$allocator@D@2@@std@@@0@ABV?$basic_string@DU?$char_traits@D@std@@V?$allocator@D@2@@0@1PB_WI@Z 0041b7a0 f i log4z.obj
 0001:0001a880       ??$_Debug_lt_pred@ABU?$less@V?$basic_string@DU?$char_traits@D@std@@V?$allocator@D@2@@std@@@std@@ABV?$basic_string@DU?$char_traits@D@std@@V?$allocator@D@2@@2@ABV32@@std@@YA_NABU?$less@V?$basic_string@DU?$char_traits@D@std@@V?$allocator@D@2@@std@@@0@ABV?$basic_string@DU?$char_traits@D@std@@V?$allocator@D@2@@0@1PB_WI@Z 0041b880 f i log4z.obj
 0001:0001a960       ??$_Debug_pointer@$$CBD@std@@YAXPBDPB_WI@Z 0041b960 f i log4z.obj
 0001:0001a9d0       ??$_Debug_pointer@V?$_String_iterator@V?$_String_val@U?$_Simple_types@D@std@@@std@@@std@@@std@@YAXAAV?$_String_iterator@V?$_String_val@U?$_Simple_types@D@std@@@std@@@0@PB_WI@Z 0041b9d0 f i log4z.obj
 0001:0001aa00       ??$_Debug_pointer_if@$$A6AHH@Z@std@@YAX_NP6AHH@ZPB_WI@Z 0041ba00 f i log4z.obj
 0001:0001aa80       ??$_Debug_pointer_if@$$CBD@std@@YAX_NPBDPB_WI@Z 0041ba80 f i log4z.obj
 0001:0001ab00       ??$_Debug_range2@V?$_List_const_iterator@V?$_List_val@U?$_List_simple_types@U?$pair@_JV?$basic_string@DU?$char_traits@D@std@@V?$allocator@D@2@@std@@@std@@@std@@@std@@@std@@@std@@YAXV?$_List_const_iterator@V?$_List_val@U?$_List_simple_types@U?$pair@_JV?$basic_string@DU?$char_traits@D@std@@V?$allocator@D@2@@std@@@std@@@std@@@std@@@0@0PB_WIUinput_iterator_tag@0@@Z 0041bb00 f i log4z.obj
 0001:0001abb0       ??$_Debug_range@V?$_List_const_iterator@V?$_List_val@U?$_List_simple_types@U?$pair@_JV?$basic_string@DU?$char_traits@D@std@@V?$allocator@D@2@@std@@@std@@@std@@@std@@@std@@@std@@YAXV?$_List_const_iterator@V?$_List_val@U?$_List_simple_types@U?$pair@_JV?$basic_string@DU?$char_traits@D@std@@V?$allocator@D@2@@std@@@std@@@std@@@std@@@0@0PB_WI@Z 0041bbb0 f i log4z.obj
 0001:0001acd0       ??$_Debug_range_ptr2@V?$_String_iterator@V?$_String_val@U?$_Simple_types@D@std@@@std@@@std@@V12@@std@@YAXV?$_String_iterator@V?$_String_val@U?$_Simple_types@D@std@@@std@@@0@0AAV10@PB_WIUrandom_access_iterator_tag@0@@Z 0041bcd0 f i log4z.obj
 0001:0001ae10       ??$_Debug_range_ptr@V?$_String_iterator@V?$_String_val@U?$_Simple_types@D@std@@@std@@@std@@V12@@std@@YAXV?$_String_iterator@V?$_String_val@U?$_Simple_types@D@std@@@std@@@0@0AAV10@PB_WI@Z 0041be10 f i log4z.obj
 0001:0001af40       ??$_Destroy_range1@V?$allocator@PAPAULogData@log4z@zsummer@@@std@@PAPAPAULogData@log4z@zsummer@@@std@@YAXPAPAPAULogData@log4z@zsummer@@0AAU?$_Wrap_alloc@V?$allocator@PAPAULogData@log4z@zsummer@@@std@@@0@U?$integral_constant@_N$00@0@@Z 0041bf40 f i log4z.obj
 0001:0001af70       ??$_Destroy_range1@V?$allocator@PAULogData@log4z@zsummer@@@std@@PAPAULogData@log4z@zsummer@@@std@@YAXPAPAULogData@log4z@zsummer@@0AAU?$_Wrap_alloc@V?$allocator@PAULogData@log4z@zsummer@@@std@@@0@U?$integral_constant@_N$00@0@@Z 0041bf70 f i log4z.obj
 0001:0001afa0       ??$_Destroy_range@V?$allocator@PAPAULogData@log4z@zsummer@@@std@@PAPAPAULogData@log4z@zsummer@@@std@@YAXPAPAPAULogData@log4z@zsummer@@0AAU?$_Wrap_alloc@V?$allocator@PAPAULogData@log4z@zsummer@@@std@@@0@@Z 0041bfa0 f i log4z.obj
 0001:0001b010       ??$_Destroy_range@V?$allocator@PAULogData@log4z@zsummer@@@std@@PAPAULogData@log4z@zsummer@@@std@@YAXPAPAULogData@log4z@zsummer@@0AAU?$_Wrap_alloc@V?$allocator@PAULogData@log4z@zsummer@@@std@@@0@@Z 0041c010 f i log4z.obj
 0001:0001b080       ??$_Insert@ABU?$pair@_JV?$basic_string@DU?$char_traits@D@std@@V?$allocator@D@2@@std@@@std@@@?$list@U?$pair@_JV?$basic_string@DU?$char_traits@D@std@@V?$allocator@D@2@@std@@@std@@V?$allocator@U?$pair@_JV?$basic_string@DU?$char_traits@D@std@@V?$allocator@D@2@@std@@@std@@@2@@std@@QAEXV?$_List_unchecked_const_iterator@V?$_List_val@U?$_List_simple_types@U?$pair@_JV?$basic_string@DU?$char_traits@D@std@@V?$allocator@D@2@@std@@@std@@@std@@@std@@U_Iterator_base0@2@@1@ABU?$pair@_JV?$basic_string@DU?$char_traits@D@std@@V?$allocator@D@2@@std@@@1@@Z 0041c080 f i log4z.obj
 0001:0001b150       ??$_Insert@U?$pair@_JV?$basic_string@DU?$char_traits@D@std@@V?$allocator@D@2@@std@@@std@@@?$list@U?$pair@_JV?$basic_string@DU?$char_traits@D@std@@V?$allocator@D@2@@std@@@std@@V?$allocator@U?$pair@_JV?$basic_string@DU?$char_traits@D@std@@V?$allocator@D@2@@std@@@std@@@2@@std@@QAEXV?$_List_unchecked_const_iterator@V?$_List_val@U?$_List_simple_types@U?$pair@_JV?$basic_string@DU?$char_traits@D@std@@V?$allocator@D@2@@std@@@std@@@std@@@std@@U_Iterator_base0@2@@1@$$QAU?$pair@_JV?$basic_string@DU?$char_traits@D@std@@V?$allocator@D@2@@std@@@1@@Z 0041c150 f i log4z.obj
 0001:0001b220       ??$_Insert_at@AAU?$pair@$$CBV?$basic_string@DU?$char_traits@D@std@@V?$allocator@D@2@@std@@H@std@@PAU?$_Tree_node@U?$pair@$$CBV?$basic_string@DU?$char_traits@D@std@@V?$allocator@D@2@@std@@H@std@@PAX@2@@?$_Tree@V?$_Tmap_traits@V?$basic_string@DU?$char_traits@D@std@@V?$allocator@D@2@@std@@HU?$less@V?$basic_string@DU?$char_traits@D@std@@V?$allocator@D@2@@std@@@2@V?$allocator@U?$pair@$$CBV?$basic_string@DU?$char_traits@D@std@@V?$allocator@D@2@@std@@H@std@@@2@$0A@@std@@@std@@IAE?AV?$_Tree_iterator@V?$_Tree_val@U?$_Tree_simple_types@U?$pair@$$CBV?$basic_string@DU?$char_traits@D@std@@V?$allocator@D@2@@std@@H@std@@@std@@@std@@@1@_NPAU?$_Tree_node@U?$pair@$$CBV?$basic_string@DU?$char_traits@D@std@@V?$allocator@D@2@@std@@H@std@@PAX@1@AAU?$pair@$$CBV?$basic_string@DU?$char_traits@D@std@@V?$allocator@D@2@@std@@H@1@1@Z 0041c220 f i log4z.obj
 0001:0001b7e0       ??$_Insert_at@AAU?$pair@$$CBV?$basic_string@DU?$char_traits@D@std@@V?$allocator@D@2@@std@@ULoggerInfo@log4z@zsummer@@@std@@PAU?$_Tree_node@U?$pair@$$CBV?$basic_string@DU?$char_traits@D@std@@V?$allocator@D@2@@std@@ULoggerInfo@log4z@zsummer@@@std@@PAX@2@@?$_Tree@V?$_Tmap_traits@V?$basic_string@DU?$char_traits@D@std@@V?$allocator@D@2@@std@@ULoggerInfo@log4z@zsummer@@U?$less@V?$basic_string@DU?$char_traits@D@std@@V?$allocator@D@2@@std@@@2@V?$allocator@U?$pair@$$CBV?$basic_string@DU?$char_traits@D@std@@V?$allocator@D@2@@std@@ULoggerInfo@log4z@zsummer@@@std@@@2@$0A@@std@@@std@@IAE?AV?$_Tree_iterator@V?$_Tree_val@U?$_Tree_simple_types@U?$pair@$$CBV?$basic_string@DU?$char_traits@D@std@@V?$allocator@D@2@@std@@ULoggerInfo@log4z@zsummer@@@std@@@std@@@std@@@1@_NPAU?$_Tree_node@U?$pair@$$CBV?$basic_string@DU?$char_traits@D@std@@V?$allocator@D@2@@std@@ULoggerInfo@log4z@zsummer@@@std@@PAX@1@AAU?$pair@$$CBV?$basic_string@DU?$char_traits@D@std@@V?$allocator@D@2@@std@@ULoggerInfo@log4z@zsummer@@@1@1@Z 0041c7e0 f i log4z.obj
 0001:0001bda0       ??$_Insert_hint@AAU?$pair@$$CBV?$basic_string@DU?$char_traits@D@std@@V?$allocator@D@2@@std@@H@std@@PAU?$_Tree_node@U?$pair@$$CBV?$basic_string@DU?$char_traits@D@std@@V?$allocator@D@2@@std@@H@std@@PAX@2@@?$_Tree@V?$_Tmap_traits@V?$basic_string@DU?$char_traits@D@std@@V?$allocator@D@2@@std@@HU?$less@V?$basic_string@DU?$char_traits@D@std@@V?$allocator@D@2@@std@@@2@V?$allocator@U?$pair@$$CBV?$basic_string@DU?$char_traits@D@std@@V?$allocator@D@2@@std@@H@std@@@2@$0A@@std@@@std@@IAE?AV?$_Tree_iterator@V?$_Tree_val@U?$_Tree_simple_types@U?$pair@$$CBV?$basic_string@DU?$char_traits@D@std@@V?$allocator@D@2@@std@@H@std@@@std@@@std@@@1@V?$_Tree_const_iterator@V?$_Tree_val@U?$_Tree_simple_types@U?$pair@$$CBV?$basic_string@DU?$char_traits@D@std@@V?$allocator@D@2@@std@@H@std@@@std@@@std@@@1@AAU?$pair@$$CBV?$basic_string@DU?$char_traits@D@std@@V?$allocator@D@2@@std@@H@1@PAU?$_Tree_node@U?$pair@$$CBV?$basic_string@DU?$char_traits@D@std@@V?$allocator@D@2@@std@@H@std@@PAX@1@@Z 0041cda0 f i log4z.obj
 0001:0001d2f0       ??$_Insert_nohint@AAU?$pair@$$CBV?$basic_string@DU?$char_traits@D@std@@V?$allocator@D@2@@std@@H@std@@PAU?$_Tree_node@U?$pair@$$CBV?$basic_string@DU?$char_traits@D@std@@V?$allocator@D@2@@std@@H@std@@PAX@2@@?$_Tree@V?$_Tmap_traits@V?$basic_string@DU?$char_traits@D@std@@V?$allocator@D@2@@std@@HU?$less@V?$basic_string@DU?$char_traits@D@std@@V?$allocator@D@2@@std@@@2@V?$allocator@U?$pair@$$CBV?$basic_string@DU?$char_traits@D@std@@V?$allocator@D@2@@std@@H@std@@@2@$0A@@std@@@std@@IAE?AU?$pair@V?$_Tree_iterator@V?$_Tree_val@U?$_Tree_simple_types@U?$pair@$$CBV?$basic_string@DU?$char_traits@D@std@@V?$allocator@D@2@@std@@H@std@@@std@@@std@@@std@@_N@1@_NAAU?$pair@$$CBV?$basic_string@DU?$char_traits@D@std@@V?$allocator@D@2@@std@@H@1@PAU?$_Tree_node@U?$pair@$$CBV?$basic_string@DU?$char_traits@D@std@@V?$allocator@D@2@@std@@H@std@@PAX@1@@Z 0041e2f0 f i log4z.obj
 0001:0001d9c0       ??$_Insert_nohint@AAU?$pair@$$CBV?$basic_string@DU?$char_traits@D@std@@V?$allocator@D@2@@std@@ULoggerInfo@log4z@zsummer@@@std@@PAU?$_Tree_node@U?$pair@$$CBV?$basic_string@DU?$char_traits@D@std@@V?$allocator@D@2@@std@@ULoggerInfo@log4z@zsummer@@@std@@PAX@2@@?$_Tree@V?$_Tmap_traits@V?$basic_string@DU?$char_traits@D@std@@V?$allocator@D@2@@std@@ULoggerInfo@log4z@zsummer@@U?$less@V?$basic_string@DU?$char_traits@D@std@@V?$allocator@D@2@@std@@@2@V?$allocator@U?$pair@$$CBV?$basic_string@DU?$char_traits@D@std@@V?$allocator@D@2@@std@@ULoggerInfo@log4z@zsummer@@@std@@@2@$0A@@std@@@std@@IAE?AU?$pair@V?$_Tree_iterator@V?$_Tree_val@U?$_Tree_simple_types@U?$pair@$$CBV?$basic_string@DU?$char_traits@D@std@@V?$allocator@D@2@@std@@ULoggerInfo@log4z@zsummer@@@std@@@std@@@std@@@std@@_N@1@_NAAU?$pair@$$CBV?$basic_string@DU?$char_traits@D@std@@V?$allocator@D@2@@std@@ULoggerInfo@log4z@zsummer@@@1@PAU?$_Tree_node@U?$pair@$$CBV?$basic_string@DU?$char_traits@D@std@@V?$allocator@D@2@@std@@ULoggerInfo@log4z@zsummer@@@std@@PAX@1@@Z 0041e9c0 f i log4z.obj
 0001:0001e090       ??$_Insert_range@V?$_List_const_iterator@V?$_List_val@U?$_List_simple_types@U?$pair@_JV?$basic_string@DU?$char_traits@D@std@@V?$allocator@D@2@@std@@@std@@@std@@@std@@@std@@@?$list@U?$pair@_JV?$basic_string@DU?$char_traits@D@std@@V?$allocator@D@2@@std@@@std@@V?$allocator@U?$pair@_JV?$basic_string@DU?$char_traits@D@std@@V?$allocator@D@2@@std@@@std@@@2@@std@@QAEXV?$_List_unchecked_const_iterator@V?$_List_val@U?$_List_simple_types@U?$pair@_JV?$basic_string@DU?$char_traits@D@std@@V?$allocator@D@2@@std@@@std@@@std@@@std@@U_Iterator_base0@2@@1@V?$_List_const_iterator@V?$_List_val@U?$_List_simple_types@U?$pair@_JV?$basic_string@DU?$char_traits@D@std@@V?$allocator@D@2@@std@@@std@@@std@@@std@@@1@1Uforward_iterator_tag@1@@Z 0041f090 f i log4z.obj
 0001:0001e2f0       ??$_Is_checked@V?$_String_iterator@V?$_String_val@U?$_Simple_types@D@std@@@std@@@std@@@std@@YA?AU?$integral_constant@_N$00@0@V?$_String_iterator@V?$_String_val@U?$_Simple_types@D@std@@@std@@@0@@Z 0041f2f0 f i log4z.obj
 0001:0001e360       ??$_Kfn@$$CBV?$basic_string@DU?$char_traits@D@std@@V?$allocator@D@2@@std@@H@?$_Tmap_traits@V?$basic_string@DU?$char_traits@D@std@@V?$allocator@D@2@@std@@HU?$less@V?$basic_string@DU?$char_traits@D@std@@V?$allocator@D@2@@std@@@2@V?$allocator@U?$pair@$$CBV?$basic_string@DU?$char_traits@D@std@@V?$allocator@D@2@@std@@H@std@@@2@$0A@@std@@SAABV?$basic_string@DU?$char_traits@D@std@@V?$allocator@D@2@@1@ABU?$pair@$$CBV?$basic_string@DU?$char_traits@D@std@@V?$allocator@D@2@@std@@H@1@@Z 0041f360 f i log4z.obj
 0001:0001e3a0       ??$_Kfn@$$CBV?$basic_string@DU?$char_traits@D@std@@V?$allocator@D@2@@std@@ULoggerInfo@log4z@zsummer@@@?$_Tmap_traits@V?$basic_string@DU?$char_traits@D@std@@V?$allocator@D@2@@std@@ULoggerInfo@log4z@zsummer@@U?$less@V?$basic_string@DU?$char_traits@D@std@@V?$allocator@D@2@@std@@@2@V?$allocator@U?$pair@$$CBV?$basic_string@DU?$char_traits@D@std@@V?$allocator@D@2@@std@@ULoggerInfo@log4z@zsummer@@@std@@@2@$0A@@std@@SAABV?$basic_string@DU?$char_traits@D@std@@V?$allocator@D@2@@1@ABU?$pair@$$CBV?$basic_string@DU?$char_traits@D@std@@V?$allocator@D@2@@std@@ULoggerInfo@log4z@zsummer@@@1@@Z 0041f3a0 f i log4z.obj
 0001:0001e3e0       ??$_Lbound@V?$basic_string@DU?$char_traits@D@std@@V?$allocator@D@2@@std@@@?$_Tree@V?$_Tmap_traits@V?$basic_string@DU?$char_traits@D@std@@V?$allocator@D@2@@std@@HU?$less@V?$basic_string@DU?$char_traits@D@std@@V?$allocator@D@2@@std@@@2@V?$allocator@U?$pair@$$CBV?$basic_string@DU?$char_traits@D@std@@V?$allocator@D@2@@std@@H@std@@@2@$0A@@std@@@std@@IBEPAU?$_Tree_node@U?$pair@$$CBV?$basic_string@DU?$char_traits@D@std@@V?$allocator@D@2@@std@@H@std@@PAX@1@ABV?$basic_string@DU?$char_traits@D@std@@V?$allocator@D@2@@1@@Z 0041f3e0 f i log4z.obj
 0001:0001e4d0       ??$_Lbound@V?$basic_string@DU?$char_traits@D@std@@V?$allocator@D@2@@std@@@?$_Tree@V?$_Tmap_traits@V?$basic_string@DU?$char_traits@D@std@@V?$allocator@D@2@@std@@ULoggerInfo@log4z@zsummer@@U?$less@V?$basic_string@DU?$char_traits@D@std@@V?$allocator@D@2@@std@@@2@V?$allocator@U?$pair@$$CBV?$basic_string@DU?$char_traits@D@std@@V?$allocator@D@2@@std@@ULoggerInfo@log4z@zsummer@@@std@@@2@$0A@@std@@@std@@IBEPAU?$_Tree_node@U?$pair@$$CBV?$basic_string@DU?$char_traits@D@std@@V?$allocator@D@2@@std@@ULoggerInfo@log4z@zsummer@@@std@@PAX@1@ABV?$basic_string@DU?$char_traits@D@std@@V?$allocator@D@2@@1@@Z 0041f4d0 f i log4z.obj
 0001:0001e5c0       ??$_Pocca@U?$_Wrap_alloc@V?$allocator@D@std@@@std@@@std@@YAXAAU?$_Wrap_alloc@V?$allocator@D@std@@@0@ABU10@@Z 0041f5c0 f i log4z.obj
 0001:0001e650       ??$_Pocca@U?$_Wrap_alloc@V?$allocator@D@std@@@std@@@std@@YAXAAU?$_Wrap_alloc@V?$allocator@D@std@@@0@ABU10@U?$integral_constant@_N$0A@@0@@Z 0041f650 f i log4z.obj
 0001:0001e680       ??$_Pocma@U?$_Wrap_alloc@V?$allocator@D@std@@@std@@@std@@YAXAAU?$_Wrap_alloc@V?$allocator@D@std@@@0@0@Z 0041f680 f i log4z.obj
 0001:0001e710       ??$_Pocma@U?$_Wrap_alloc@V?$allocator@D@std@@@std@@@std@@YAXAAU?$_Wrap_alloc@V?$allocator@D@std@@@0@0U?$integral_constant@_N$00@0@@Z 0041f710 f i log4z.obj
 0001:0001e7a0       ??$_Pocs@U?$_Wrap_alloc@V?$allocator@PAULogData@log4z@zsummer@@@std@@@std@@@std@@YAXAAU?$_Wrap_alloc@V?$allocator@PAULogData@log4z@zsummer@@@std@@@0@0@Z 0041f7a0 f i log4z.obj
 0001:0001e830       ??$_Pocs@U?$_Wrap_alloc@V?$allocator@PAULogData@log4z@zsummer@@@std@@@std@@@std@@YAXAAU?$_Wrap_alloc@V?$allocator@PAULogData@log4z@zsummer@@@std@@@0@0U?$integral_constant@_N$0A@@0@@Z 0041f830 f i log4z.obj
 0001:0001e8f0       ??$_Ptr_copy_cat@PAPAULogData@log4z@zsummer@@PAPAU123@@std@@YA?AU_Really_trivial_ptr_iterator_tag@0@ABQAPAPAULogData@log4z@zsummer@@0@Z 0041f8f0 f i log4z.obj
 0001:0001e930       ??$_Ptr_move_cat@PAULogData@log4z@zsummer@@PAU123@@std@@YA?AU_Really_trivial_ptr_iterator_tag@0@ABQAPAULogData@log4z@zsummer@@0@Z 0041f930 f i log4z.obj
 0001:0001e970       ??$_Rechecked@PAPAPAULogData@log4z@zsummer@@PAPAPAU123@@std@@YAAAPAPAPAULogData@log4z@zsummer@@AAPAPAPAU123@PAPAPAU123@@Z 0041f970 f i log4z.obj
 0001:0001e9b0       ??$_Rechecked@PAPAULogData@log4z@zsummer@@PAPAU123@@std@@YAAAPAPAULogData@log4z@zsummer@@AAPAPAU123@PAPAU123@@Z 0041f9b0 f i log4z.obj
 0001:0001e9f0       ??$_Rechecked@V?$_String_val@U?$_Simple_types@D@std@@@std@@@std@@YA?AV?$_String_iterator@V?$_String_val@U?$_Simple_types@D@std@@@std@@@0@AAV10@PAD@Z 0041f9f0 f i log4z.obj
 0001:0001ea70       ??$_Swap_adl@PAPAPAULogData@log4z@zsummer@@@std@@YAXAAPAPAPAULogData@log4z@zsummer@@0@Z 0041fa70 f i log4z.obj
 0001:0001ead0       ??$_Swap_adl@PAU?$_List_node@U?$pair@_JV?$basic_string@DU?$char_traits@D@std@@V?$allocator@D@2@@std@@@std@@PAX@std@@@std@@YAXAAPAU?$_List_node@U?$pair@_JV?$basic_string@DU?$char_traits@D@std@@V?$allocator@D@2@@std@@@std@@PAX@0@0@Z 0041fad0 f i log4z.obj
 0001:0001eb30       ??$_Transform_no_deprecate1@PADV?$_String_iterator@V?$_String_val@U?$_Simple_types@D@std@@@std@@@std@@P6AHH@Z@std@@YA?AV?$_String_iterator@V?$_String_val@U?$_Simple_types@D@std@@@std@@@0@PAD0V10@AAP6AHH@ZUrandom_access_iterator_tag@0@3@Z 0041fb30 f i log4z.obj
 0001:0001ec90       ??$_Transform_no_deprecate@V?$_String_iterator@V?$_String_val@U?$_Simple_types@D@std@@@std@@@std@@V12@P6AHH@Z@std@@YA?AV?$_String_iterator@V?$_String_val@U?$_Simple_types@D@std@@@std@@@0@V10@00AAP6AHH@Z@Z 0041fc90 f i log4z.obj
 0001:0001ef00       ??$_Transform_unchecked@PADPADP6AHH@Z@std@@YAPADPAD00AAP6AHH@Z@Z 0041ff00 f i log4z.obj
 0001:0001ef90       ??$_Try_emplace@ABV?$basic_string@DU?$char_traits@D@std@@V?$allocator@D@2@@std@@$$V@?$map@V?$basic_string@DU?$char_traits@D@std@@V?$allocator@D@2@@std@@HU?$less@V?$basic_string@DU?$char_traits@D@std@@V?$allocator@D@2@@std@@@2@V?$allocator@U?$pair@$$CBV?$basic_string@DU?$char_traits@D@std@@V?$allocator@D@2@@std@@H@std@@@2@@std@@QAE?AU?$pair@V?$_Tree_iterator@V?$_Tree_val@U?$_Tree_simple_types@U?$pair@$$CBV?$basic_string@DU?$char_traits@D@std@@V?$allocator@D@2@@std@@H@std@@@std@@@std@@@std@@_N@1@ABV?$basic_string@DU?$char_traits@D@std@@V?$allocator@D@2@@1@@Z 0041ff90 f i log4z.obj
 0001:0001f2e0       ??$_Try_emplace@V?$basic_string@DU?$char_traits@D@std@@V?$allocator@D@2@@std@@$$V@?$map@V?$basic_string@DU?$char_traits@D@std@@V?$allocator@D@2@@std@@HU?$less@V?$basic_string@DU?$char_traits@D@std@@V?$allocator@D@2@@std@@@2@V?$allocator@U?$pair@$$CBV?$basic_string@DU?$char_traits@D@std@@V?$allocator@D@2@@std@@H@std@@@2@@std@@QAE?AU?$pair@V?$_Tree_iterator@V?$_Tree_val@U?$_Tree_simple_types@U?$pair@$$CBV?$basic_string@DU?$char_traits@D@std@@V?$allocator@D@2@@std@@H@std@@@std@@@std@@@std@@_N@1@$$QAV?$basic_string@DU?$char_traits@D@std@@V?$allocator@D@2@@1@@Z 004202e0 f i log4z.obj
 0001:0001f630       ??$_Umove@PAPAULogData@log4z@zsummer@@@?$vector@PAULogData@log4z@zsummer@@V?$allocator@PAULogData@log4z@zsummer@@@std@@@std@@IAEPAPAULogData@log4z@zsummer@@PAPAU234@00@Z 00420630 f i log4z.obj
 0001:0001f6a0       ??$_Unchecked@PAPAPAULogData@log4z@zsummer@@@std@@YAPAPAPAULogData@log4z@zsummer@@PAPAPAU123@@Z 004206a0 f i log4z.obj
 0001:0001f6e0       ??$_Unchecked@PAPAULogData@log4z@zsummer@@@std@@YAPAPAULogData@log4z@zsummer@@PAPAU123@@Z 004206e0 f i log4z.obj
 0001:0001f720       ??$_Unchecked@V?$_String_val@U?$_Simple_types@D@std@@@std@@@std@@YAPADV?$_String_iterator@V?$_String_val@U?$_Simple_types@D@std@@@std@@@0@@Z 00420720 f i log4z.obj
 0001:0001f7d0       ??$_Unfancy@$$CBD@std@@YAPBDPBD@Z 004207d0 f i log4z.obj
 0001:0001f810       ??$_Unfancy@PAULogData@log4z@zsummer@@@std@@YAPAPAULogData@log4z@zsummer@@PAPAU123@@Z 00420810 f i log4z.obj
 0001:0001f850       ??$_Unfancy@U_Container_proxy@std@@@std@@YAPAU_Container_proxy@0@PAU10@@Z 00420850 f i log4z.obj
 0001:0001f890       ??$_Uninitialized_copy@PAPAPAULogData@log4z@zsummer@@PAPAPAU123@V?$allocator@PAPAULogData@log4z@zsummer@@@std@@@std@@YAPAPAPAULogData@log4z@zsummer@@PAPAPAU123@00AAU?$_Wrap_alloc@V?$allocator@PAPAULogData@log4z@zsummer@@@std@@@0@@Z 00420890 f i log4z.obj
 0001:0001f930       ??$_Uninitialized_copy_al_unchecked1@PAPAULogData@log4z@zsummer@@PAPAU123@V?$allocator@PAPAULogData@log4z@zsummer@@@std@@@std@@YAPAPAPAULogData@log4z@zsummer@@PAPAPAU123@00AAU?$_Wrap_alloc@V?$allocator@PAPAULogData@log4z@zsummer@@@std@@@0@U_Really_trivial_ptr_iterator_tag@0@U?$integral_constant@_N$00@0@@Z 00420930 f i log4z.obj
 0001:0001f990       ??$_Uninitialized_copy_al_unchecked@PAPAPAULogData@log4z@zsummer@@PAPAPAU123@V?$allocator@PAPAULogData@log4z@zsummer@@@std@@@std@@YAPAPAPAULogData@log4z@zsummer@@PAPAPAU123@00AAU?$_Wrap_alloc@V?$allocator@PAPAULogData@log4z@zsummer@@@std@@@0@@Z 00420990 f i log4z.obj
 0001:0001fa20       ??$_Uninitialized_default_fill_n1@PAPAPAULogData@log4z@zsummer@@IV?$allocator@PAPAULogData@log4z@zsummer@@@std@@@std@@YAXPAPAPAULogData@log4z@zsummer@@IAAU?$_Wrap_alloc@V?$allocator@PAPAULogData@log4z@zsummer@@@std@@@0@U?$integral_constant@_N$00@0@@Z 00420a20 f i log4z.obj
 0001:0001fa80       ??$_Uninitialized_default_fill_n@PAPAPAULogData@log4z@zsummer@@IV?$allocator@PAPAULogData@log4z@zsummer@@@std@@@std@@YAXPAPAPAULogData@log4z@zsummer@@IAAU?$_Wrap_alloc@V?$allocator@PAPAULogData@log4z@zsummer@@@std@@@0@@Z 00420a80 f i log4z.obj
 0001:0001faf0       ??$_Uninitialized_move@PAPAULogData@log4z@zsummer@@PAPAU123@V?$allocator@PAULogData@log4z@zsummer@@@std@@@std@@YAPAPAULogData@log4z@zsummer@@PAPAU123@00AAU?$_Wrap_alloc@V?$allocator@PAULogData@log4z@zsummer@@@std@@@0@@Z 00420af0 f i log4z.obj
 0001:0001fb90       ??$_Uninitialized_move_al_unchecked1@PAULogData@log4z@zsummer@@PAU123@V?$allocator@PAULogData@log4z@zsummer@@@std@@@std@@YAPAPAULogData@log4z@zsummer@@PAPAU123@00AAU?$_Wrap_alloc@V?$allocator@PAULogData@log4z@zsummer@@@std@@@0@U_Really_trivial_ptr_iterator_tag@0@U?$integral_constant@_N$00@0@@Z 00420b90 f i log4z.obj
 0001:0001fbf0       ??$_Uninitialized_move_al_unchecked@PAPAULogData@log4z@zsummer@@PAPAU123@V?$allocator@PAULogData@log4z@zsummer@@@std@@@std@@YAPAPAULogData@log4z@zsummer@@PAPAU123@00AAU?$_Wrap_alloc@V?$allocator@PAULogData@log4z@zsummer@@@std@@@0@@Z 00420bf0 f i log4z.obj
 0001:0001fc80       ??$addressof@D@std@@YAPADAAD@Z 00420c80 f i log4z.obj
 0001:0001fcc0       ??$addressof@PAPAULogData@log4z@zsummer@@@std@@YAPAPAPAULogData@log4z@zsummer@@AAPAPAU123@@Z 00420cc0 f i log4z.obj
 0001:0001fd00       ??$addressof@PAU?$_List_node@U?$pair@_JV?$basic_string@DU?$char_traits@D@std@@V?$allocator@D@2@@std@@@std@@PAX@std@@@std@@YAPAPAU?$_List_node@U?$pair@_JV?$basic_string@DU?$char_traits@D@std@@V?$allocator@D@2@@std@@@std@@PAX@0@AAPAU10@@Z 00420d00 f i log4z.obj
 0001:0001fd40       ??$addressof@PAU?$_Tree_node@U?$pair@$$CBV?$basic_string@DU?$char_traits@D@std@@V?$allocator@D@2@@std@@H@std@@PAX@std@@@std@@YAPAPAU?$_Tree_node@U?$pair@$$CBV?$basic_string@DU?$char_traits@D@std@@V?$allocator@D@2@@std@@H@std@@PAX@0@AAPAU10@@Z 00420d40 f i log4z.obj
 0001:0001fd80       ??$addressof@PAU?$_Tree_node@U?$pair@$$CBV?$basic_string@DU?$char_traits@D@std@@V?$allocator@D@2@@std@@ULoggerInfo@log4z@zsummer@@@std@@PAX@std@@@std@@YAPAPAU?$_Tree_node@U?$pair@$$CBV?$basic_string@DU?$char_traits@D@std@@V?$allocator@D@2@@std@@ULoggerInfo@log4z@zsummer@@@std@@PAX@0@AAPAU10@@Z 00420d80 f i log4z.obj
 0001:0001fdc0       ??$addressof@QAULogData@log4z@zsummer@@@std@@YAPBQAULogData@log4z@zsummer@@ABQAU123@@Z 00420dc0 f i log4z.obj
 0001:0001fe00       ??$addressof@U?$pair@$$CBV?$basic_string@DU?$char_traits@D@std@@V?$allocator@D@2@@std@@H@std@@@std@@YAPAU?$pair@$$CBV?$basic_string@DU?$char_traits@D@std@@V?$allocator@D@2@@std@@H@0@AAU10@@Z 00420e00 f i log4z.obj
 0001:0001fe40       ??$addressof@U?$pair@$$CBV?$basic_string@DU?$char_traits@D@std@@V?$allocator@D@2@@std@@ULoggerInfo@log4z@zsummer@@@std@@@std@@YAPAU?$pair@$$CBV?$basic_string@DU?$char_traits@D@std@@V?$allocator@D@2@@std@@ULoggerInfo@log4z@zsummer@@@0@AAU10@@Z 00420e40 f i log4z.obj
 0001:0001fe80       ??$addressof@U?$pair@_JV?$basic_string@DU?$char_traits@D@std@@V?$allocator@D@2@@std@@@std@@@std@@YAPAU?$pair@_JV?$basic_string@DU?$char_traits@D@std@@V?$allocator@D@2@@std@@@0@AAU10@@Z 00420e80 f i log4z.obj
 0001:0001fec0       ??$assign@V?$_String_iterator@V?$_String_val@U?$_Simple_types@D@std@@@std@@@std@@@?$basic_string@DU?$char_traits@D@std@@V?$allocator@D@2@@std@@QAEAAV01@V?$_String_iterator@V?$_String_val@U?$_Simple_types@D@std@@@std@@@1@0@Z 00420ec0 f i log4z.obj
 0001:000200e0       ??$construct@PADAAPAD@?$_Wrap_alloc@V?$allocator@D@std@@@std@@QAEXPAPADAAPAD@Z 004210e0 f i log4z.obj
 0001:00020150       ??$construct@PADAAPAD@?$allocator@D@std@@QAEXPAPADAAPAD@Z 00421150 f i log4z.obj
 0001:00020200       ??$construct@PADAAPAD@?$allocator_traits@V?$allocator@D@std@@@std@@SAXAAV?$allocator@D@1@PAPADAAPAD@Z 00421200 f i log4z.obj
 0001:00020260       ??$construct@PAU?$_List_node@U?$pair@_JV?$basic_string@DU?$char_traits@D@std@@V?$allocator@D@2@@std@@@std@@PAX@std@@AAPAU12@@?$_Wrap_alloc@V?$allocator@U?$_List_node@U?$pair@_JV?$basic_string@DU?$char_traits@D@std@@V?$allocator@D@2@@std@@@std@@PAX@std@@@std@@@std@@QAEXPAPAU?$_List_node@U?$pair@_JV?$basic_string@DU?$char_traits@D@std@@V?$allocator@D@2@@std@@@std@@PAX@1@AAPAU21@@Z 00421260 f i log4z.obj
 0001:000202d0       ??$construct@PAU?$_List_node@U?$pair@_JV?$basic_string@DU?$char_traits@D@std@@V?$allocator@D@2@@std@@@std@@PAX@std@@AAPAU12@@?$allocator@U?$_List_node@U?$pair@_JV?$basic_string@DU?$char_traits@D@std@@V?$allocator@D@2@@std@@@std@@PAX@std@@@std@@QAEXPAPAU?$_List_node@U?$pair@_JV?$basic_string@DU?$char_traits@D@std@@V?$allocator@D@2@@std@@@std@@PAX@1@AAPAU21@@Z 004212d0 f i log4z.obj
 0001:00020380       ??$construct@PAU?$_List_node@U?$pair@_JV?$basic_string@DU?$char_traits@D@std@@V?$allocator@D@2@@std@@@std@@PAX@std@@AAPAU12@@?$allocator_traits@V?$allocator@U?$_List_node@U?$pair@_JV?$basic_string@DU?$char_traits@D@std@@V?$allocator@D@2@@std@@@std@@PAX@std@@@std@@@std@@SAXAAV?$allocator@U?$_List_node@U?$pair@_JV?$basic_string@DU?$char_traits@D@std@@V?$allocator@D@2@@std@@@std@@PAX@std@@@1@PAPAU?$_List_node@U?$pair@_JV?$basic_string@DU?$char_traits@D@std@@V?$allocator@D@2@@std@@@std@@PAX@1@AAPAU31@@Z 00421380 f i log4z.obj
 0001:000203e0       ??$construct@PAU?$_Tree_node@U?$pair@$$CBV?$basic_string@DU?$char_traits@D@std@@V?$allocator@D@2@@std@@H@std@@PAX@std@@AAPAU12@@?$_Wrap_alloc@V?$allocator@U?$_Tree_node@U?$pair@$$CBV?$basic_string@DU?$char_traits@D@std@@V?$allocator@D@2@@std@@H@std@@PAX@std@@@std@@@std@@QAEXPAPAU?$_Tree_node@U?$pair@$$CBV?$basic_string@DU?$char_traits@D@std@@V?$allocator@D@2@@std@@H@std@@PAX@1@AAPAU21@@Z 004213e0 f i log4z.obj
 0001:00020450       ??$construct@PAU?$_Tree_node@U?$pair@$$CBV?$basic_string@DU?$char_traits@D@std@@V?$allocator@D@2@@std@@H@std@@PAX@std@@AAPAU12@@?$allocator@U?$_Tree_node@U?$pair@$$CBV?$basic_string@DU?$char_traits@D@std@@V?$allocator@D@2@@std@@H@std@@PAX@std@@@std@@QAEXPAPAU?$_Tree_node@U?$pair@$$CBV?$basic_string@DU?$char_traits@D@std@@V?$allocator@D@2@@std@@H@std@@PAX@1@AAPAU21@@Z 00421450 f i log4z.obj
 0001:00020500       ??$construct@PAU?$_Tree_node@U?$pair@$$CBV?$basic_string@DU?$char_traits@D@std@@V?$allocator@D@2@@std@@H@std@@PAX@std@@AAPAU12@@?$allocator_traits@V?$allocator@U?$_Tree_node@U?$pair@$$CBV?$basic_string@DU?$char_traits@D@std@@V?$allocator@D@2@@std@@H@std@@PAX@std@@@std@@@std@@SAXAAV?$allocator@U?$_Tree_node@U?$pair@$$CBV?$basic_string@DU?$char_traits@D@std@@V?$allocator@D@2@@std@@H@std@@PAX@std@@@1@PAPAU?$_Tree_node@U?$pair@$$CBV?$basic_string@DU?$char_traits@D@std@@V?$allocator@D@2@@std@@H@std@@PAX@1@AAPAU31@@Z 00421500 f i log4z.obj
 0001:00020560       ??$construct@PAU?$_Tree_node@U?$pair@$$CBV?$basic_string@DU?$char_traits@D@std@@V?$allocator@D@2@@std@@ULoggerInfo@log4z@zsummer@@@std@@PAX@std@@AAPAU12@@?$_Wrap_alloc@V?$allocator@U?$_Tree_node@U?$pair@$$CBV?$basic_string@DU?$char_traits@D@std@@V?$allocator@D@2@@std@@ULoggerInfo@log4z@zsummer@@@std@@PAX@std@@@std@@@std@@QAEXPAPAU?$_Tree_node@U?$pair@$$CBV?$basic_string@DU?$char_traits@D@std@@V?$allocator@D@2@@std@@ULoggerInfo@log4z@zsummer@@@std@@PAX@1@AAPAU21@@Z 00421560 f i log4z.obj
 0001:000205d0       ??$construct@PAU?$_Tree_node@U?$pair@$$CBV?$basic_string@DU?$char_traits@D@std@@V?$allocator@D@2@@std@@ULoggerInfo@log4z@zsummer@@@std@@PAX@std@@AAPAU12@@?$allocator@U?$_Tree_node@U?$pair@$$CBV?$basic_string@DU?$char_traits@D@std@@V?$allocator@D@2@@std@@ULoggerInfo@log4z@zsummer@@@std@@PAX@std@@@std@@QAEXPAPAU?$_Tree_node@U?$pair@$$CBV?$basic_string@DU?$char_traits@D@std@@V?$allocator@D@2@@std@@ULoggerInfo@log4z@zsummer@@@std@@PAX@1@AAPAU21@@Z 004215d0 f i log4z.obj
 0001:00020680       ??$construct@PAU?$_Tree_node@U?$pair@$$CBV?$basic_string@DU?$char_traits@D@std@@V?$allocator@D@2@@std@@ULoggerInfo@log4z@zsummer@@@std@@PAX@std@@AAPAU12@@?$allocator_traits@V?$allocator@U?$_Tree_node@U?$pair@$$CBV?$basic_string@DU?$char_traits@D@std@@V?$allocator@D@2@@std@@ULoggerInfo@log4z@zsummer@@@std@@PAX@std@@@std@@@std@@SAXAAV?$allocator@U?$_Tree_node@U?$pair@$$CBV?$basic_string@DU?$char_traits@D@std@@V?$allocator@D@2@@std@@ULoggerInfo@log4z@zsummer@@@std@@PAX@std@@@1@PAPAU?$_Tree_node@U?$pair@$$CBV?$basic_string@DU?$char_traits@D@std@@V?$allocator@D@2@@std@@ULoggerInfo@log4z@zsummer@@@std@@PAX@1@AAPAU31@@Z 00421680 f i log4z.obj
 0001:000206e0       ??$construct@PAULogData@log4z@zsummer@@AAPAU123@@?$_Wrap_alloc@V?$allocator@PAULogData@log4z@zsummer@@@std@@@std@@QAEXPAPAULogData@log4z@zsummer@@AAPAU234@@Z 004216e0 f i log4z.obj
 0001:00020750       ??$construct@PAULogData@log4z@zsummer@@AAPAU123@@?$allocator@PAULogData@log4z@zsummer@@@std@@QAEXPAPAULogData@log4z@zsummer@@AAPAU234@@Z 00421750 f i log4z.obj
 0001:00020800       ??$construct@PAULogData@log4z@zsummer@@AAPAU123@@?$allocator_traits@V?$allocator@PAULogData@log4z@zsummer@@@std@@@std@@SAXAAV?$allocator@PAULogData@log4z@zsummer@@@1@PAPAULogData@log4z@zsummer@@AAPAU345@@Z 00421800 f i log4z.obj
 0001:00020860       ??$construct@PAULogData@log4z@zsummer@@ABQAU123@@?$_Wrap_alloc@V?$allocator@PAULogData@log4z@zsummer@@@std@@@std@@QAEXPAPAULogData@log4z@zsummer@@ABQAU234@@Z 00421860 f i log4z.obj
 0001:000208d0       ??$construct@PAULogData@log4z@zsummer@@ABQAU123@@?$allocator@PAULogData@log4z@zsummer@@@std@@QAEXPAPAULogData@log4z@zsummer@@ABQAU234@@Z 004218d0 f i log4z.obj
 0001:00020980       ??$construct@PAULogData@log4z@zsummer@@ABQAU123@@?$allocator_traits@V?$allocator@PAULogData@log4z@zsummer@@@std@@@std@@SAXAAV?$allocator@PAULogData@log4z@zsummer@@@1@PAPAULogData@log4z@zsummer@@ABQAU345@@Z 00421980 f i log4z.obj
 0001:000209e0       ??$construct@U?$pair@$$CBV?$basic_string@DU?$char_traits@D@std@@V?$allocator@D@2@@std@@H@std@@ABUpiecewise_construct_t@2@V?$tuple@$$QAV?$basic_string@DU?$char_traits@D@std@@V?$allocator@D@2@@std@@@2@V?$tuple@$$V@2@@?$_Wrap_alloc@V?$allocator@U?$_Tree_node@U?$pair@$$CBV?$basic_string@DU?$char_traits@D@std@@V?$allocator@D@2@@std@@H@std@@PAX@std@@@std@@@std@@QAEXPAU?$pair@$$CBV?$basic_string@DU?$char_traits@D@std@@V?$allocator@D@2@@std@@H@1@ABUpiecewise_construct_t@1@$$QAV?$tuple@$$QAV?$basic_string@DU?$char_traits@D@std@@V?$allocator@D@2@@std@@@1@$$QAV?$tuple@$$V@1@@Z 004219e0 f i log4z.obj
 0001:00020a70       ??$construct@U?$pair@$$CBV?$basic_string@DU?$char_traits@D@std@@V?$allocator@D@2@@std@@H@std@@ABUpiecewise_construct_t@2@V?$tuple@$$QAV?$basic_string@DU?$char_traits@D@std@@V?$allocator@D@2@@std@@@2@V?$tuple@$$V@2@@?$allocator@U?$_Tree_node@U?$pair@$$CBV?$basic_string@DU?$char_traits@D@std@@V?$allocator@D@2@@std@@H@std@@PAX@std@@@std@@QAEXPAU?$pair@$$CBV?$basic_string@DU?$char_traits@D@std@@V?$allocator@D@2@@std@@H@1@ABUpiecewise_construct_t@1@$$QAV?$tuple@$$QAV?$basic_string@DU?$char_traits@D@std@@V?$allocator@D@2@@std@@@1@$$QAV?$tuple@$$V@1@@Z 00421a70 f i log4z.obj
 0001:00020bb0       ??$construct@U?$pair@$$CBV?$basic_string@DU?$char_traits@D@std@@V?$allocator@D@2@@std@@H@std@@ABUpiecewise_construct_t@2@V?$tuple@$$QAV?$basic_string@DU?$char_traits@D@std@@V?$allocator@D@2@@std@@@2@V?$tuple@$$V@2@@?$allocator_traits@V?$allocator@U?$_Tree_node@U?$pair@$$CBV?$basic_string@DU?$char_traits@D@std@@V?$allocator@D@2@@std@@H@std@@PAX@std@@@std@@@std@@SAXAAV?$allocator@U?$_Tree_node@U?$pair@$$CBV?$basic_string@DU?$char_traits@D@std@@V?$allocator@D@2@@std@@H@std@@PAX@std@@@1@PAU?$pair@$$CBV?$basic_string@DU?$char_traits@D@std@@V?$allocator@D@2@@std@@H@1@ABUpiecewise_construct_t@1@$$QAV?$tuple@$$QAV?$basic_string@DU?$char_traits@D@std@@V?$allocator@D@2@@std@@@1@$$QAV?$tuple@$$V@1@@Z 00421bb0 f i log4z.obj
 0001:00020c30       ??$construct@U?$pair@$$CBV?$basic_string@DU?$char_traits@D@std@@V?$allocator@D@2@@std@@H@std@@ABUpiecewise_construct_t@2@V?$tuple@ABV?$basic_string@DU?$char_traits@D@std@@V?$allocator@D@2@@std@@@2@V?$tuple@$$V@2@@?$_Wrap_alloc@V?$allocator@U?$_Tree_node@U?$pair@$$CBV?$basic_string@DU?$char_traits@D@std@@V?$allocator@D@2@@std@@H@std@@PAX@std@@@std@@@std@@QAEXPAU?$pair@$$CBV?$basic_string@DU?$char_traits@D@std@@V?$allocator@D@2@@std@@H@1@ABUpiecewise_construct_t@1@$$QAV?$tuple@ABV?$basic_string@DU?$char_traits@D@std@@V?$allocator@D@2@@std@@@1@$$QAV?$tuple@$$V@1@@Z 00421c30 f i log4z.obj
 0001:00020cc0       ??$construct@U?$pair@$$CBV?$basic_string@DU?$char_traits@D@std@@V?$allocator@D@2@@std@@H@std@@ABUpiecewise_construct_t@2@V?$tuple@ABV?$basic_string@DU?$char_traits@D@std@@V?$allocator@D@2@@std@@@2@V?$tuple@$$V@2@@?$allocator@U?$_Tree_node@U?$pair@$$CBV?$basic_string@DU?$char_traits@D@std@@V?$allocator@D@2@@std@@H@std@@PAX@std@@@std@@QAEXPAU?$pair@$$CBV?$basic_string@DU?$char_traits@D@std@@V?$allocator@D@2@@std@@H@1@ABUpiecewise_construct_t@1@$$QAV?$tuple@ABV?$basic_string@DU?$char_traits@D@std@@V?$allocator@D@2@@std@@@1@$$QAV?$tuple@$$V@1@@Z 00421cc0 f i log4z.obj
 0001:00020e00       ??$construct@U?$pair@$$CBV?$basic_string@DU?$char_traits@D@std@@V?$allocator@D@2@@std@@H@std@@ABUpiecewise_construct_t@2@V?$tuple@ABV?$basic_string@DU?$char_traits@D@std@@V?$allocator@D@2@@std@@@2@V?$tuple@$$V@2@@?$allocator_traits@V?$allocator@U?$_Tree_node@U?$pair@$$CBV?$basic_string@DU?$char_traits@D@std@@V?$allocator@D@2@@std@@H@std@@PAX@std@@@std@@@std@@SAXAAV?$allocator@U?$_Tree_node@U?$pair@$$CBV?$basic_string@DU?$char_traits@D@std@@V?$allocator@D@2@@std@@H@std@@PAX@std@@@1@PAU?$pair@$$CBV?$basic_string@DU?$char_traits@D@std@@V?$allocator@D@2@@std@@H@1@ABUpiecewise_construct_t@1@$$QAV?$tuple@ABV?$basic_string@DU?$char_traits@D@std@@V?$allocator@D@2@@std@@@1@$$QAV?$tuple@$$V@1@@Z 00421e00 f i log4z.obj
 0001:00020e80       ??$construct@U?$pair@$$CBV?$basic_string@DU?$char_traits@D@std@@V?$allocator@D@2@@std@@ULoggerInfo@log4z@zsummer@@@std@@U?$pair@V?$basic_string@DU?$char_traits@D@std@@V?$allocator@D@2@@std@@ULoggerInfo@log4z@zsummer@@@2@@?$_Wrap_alloc@V?$allocator@U?$_Tree_node@U?$pair@$$CBV?$basic_string@DU?$char_traits@D@std@@V?$allocator@D@2@@std@@ULoggerInfo@log4z@zsummer@@@std@@PAX@std@@@std@@@std@@QAEXPAU?$pair@$$CBV?$basic_string@DU?$char_traits@D@std@@V?$allocator@D@2@@std@@ULoggerInfo@log4z@zsummer@@@1@$$QAU?$pair@V?$basic_string@DU?$char_traits@D@std@@V?$allocator@D@2@@std@@ULoggerInfo@log4z@zsummer@@@1@@Z 00421e80 f i log4z.obj
 0001:00020ef0       ??$construct@U?$pair@$$CBV?$basic_string@DU?$char_traits@D@std@@V?$allocator@D@2@@std@@ULoggerInfo@log4z@zsummer@@@std@@U?$pair@V?$basic_string@DU?$char_traits@D@std@@V?$allocator@D@2@@std@@ULoggerInfo@log4z@zsummer@@@2@@?$allocator@U?$_Tree_node@U?$pair@$$CBV?$basic_string@DU?$char_traits@D@std@@V?$allocator@D@2@@std@@ULoggerInfo@log4z@zsummer@@@std@@PAX@std@@@std@@QAEXPAU?$pair@$$CBV?$basic_string@DU?$char_traits@D@std@@V?$allocator@D@2@@std@@ULoggerInfo@log4z@zsummer@@@1@$$QAU?$pair@V?$basic_string@DU?$char_traits@D@std@@V?$allocator@D@2@@std@@ULoggerInfo@log4z@zsummer@@@1@@Z 00421ef0 f i log4z.obj
 0001:00020ff0       ??$construct@U?$pair@$$CBV?$basic_string@DU?$char_traits@D@std@@V?$allocator@D@2@@std@@ULoggerInfo@log4z@zsummer@@@std@@U?$pair@V?$basic_string@DU?$char_traits@D@std@@V?$allocator@D@2@@std@@ULoggerInfo@log4z@zsummer@@@2@@?$allocator_traits@V?$allocator@U?$_Tree_node@U?$pair@$$CBV?$basic_string@DU?$char_traits@D@std@@V?$allocator@D@2@@std@@ULoggerInfo@log4z@zsummer@@@std@@PAX@std@@@std@@@std@@SAXAAV?$allocator@U?$_Tree_node@U?$pair@$$CBV?$basic_string@DU?$char_traits@D@std@@V?$allocator@D@2@@std@@ULoggerInfo@log4z@zsummer@@@std@@PAX@std@@@1@PAU?$pair@$$CBV?$basic_string@DU?$char_traits@D@std@@V?$allocator@D@2@@std@@ULoggerInfo@log4z@zsummer@@@1@$$QAU?$pair@V?$basic_string@DU?$char_traits@D@std@@V?$allocator@D@2@@std@@ULoggerInfo@log4z@zsummer@@@1@@Z 00421ff0 f i log4z.obj
 0001:00021050       ??$construct@U?$pair@_JV?$basic_string@DU?$char_traits@D@std@@V?$allocator@D@2@@std@@@std@@ABU12@@?$_Wrap_alloc@V?$allocator@U?$_List_node@U?$pair@_JV?$basic_string@DU?$char_traits@D@std@@V?$allocator@D@2@@std@@@std@@PAX@std@@@std@@@std@@QAEXPAU?$pair@_JV?$basic_string@DU?$char_traits@D@std@@V?$allocator@D@2@@std@@@1@ABU21@@Z 00422050 f i log4z.obj
 0001:000210c0       ??$construct@U?$pair@_JV?$basic_string@DU?$char_traits@D@std@@V?$allocator@D@2@@std@@@std@@ABU12@@?$allocator@U?$_List_node@U?$pair@_JV?$basic_string@DU?$char_traits@D@std@@V?$allocator@D@2@@std@@@std@@PAX@std@@@std@@QAEXPAU?$pair@_JV?$basic_string@DU?$char_traits@D@std@@V?$allocator@D@2@@std@@@1@ABU21@@Z 004220c0 f i log4z.obj
 0001:000211c0       ??$construct@U?$pair@_JV?$basic_string@DU?$char_traits@D@std@@V?$allocator@D@2@@std@@@std@@ABU12@@?$allocator_traits@V?$allocator@U?$_List_node@U?$pair@_JV?$basic_string@DU?$char_traits@D@std@@V?$allocator@D@2@@std@@@std@@PAX@std@@@std@@@std@@SAXAAV?$allocator@U?$_List_node@U?$pair@_JV?$basic_string@DU?$char_traits@D@std@@V?$allocator@D@2@@std@@@std@@PAX@std@@@1@PAU?$pair@_JV?$basic_string@DU?$char_traits@D@std@@V?$allocator@D@2@@std@@@1@ABU31@@Z 004221c0 f i log4z.obj
 0001:00021220       ??$construct@U?$pair@_JV?$basic_string@DU?$char_traits@D@std@@V?$allocator@D@2@@std@@@std@@U12@@?$_Wrap_alloc@V?$allocator@U?$_List_node@U?$pair@_JV?$basic_string@DU?$char_traits@D@std@@V?$allocator@D@2@@std@@@std@@PAX@std@@@std@@@std@@QAEXPAU?$pair@_JV?$basic_string@DU?$char_traits@D@std@@V?$allocator@D@2@@std@@@1@$$QAU21@@Z 00422220 f i log4z.obj
 0001:00021290       ??$construct@U?$pair@_JV?$basic_string@DU?$char_traits@D@std@@V?$allocator@D@2@@std@@@std@@U12@@?$allocator@U?$_List_node@U?$pair@_JV?$basic_string@DU?$char_traits@D@std@@V?$allocator@D@2@@std@@@std@@PAX@std@@@std@@QAEXPAU?$pair@_JV?$basic_string@DU?$char_traits@D@std@@V?$allocator@D@2@@std@@@1@$$QAU21@@Z 00422290 f i log4z.obj
 0001:00021330       ??$construct@U?$pair@_JV?$basic_string@DU?$char_traits@D@std@@V?$allocator@D@2@@std@@@std@@U12@@?$allocator_traits@V?$allocator@U?$_List_node@U?$pair@_JV?$basic_string@DU?$char_traits@D@std@@V?$allocator@D@2@@std@@@std@@PAX@std@@@std@@@std@@SAXAAV?$allocator@U?$_List_node@U?$pair@_JV?$basic_string@DU?$char_traits@D@std@@V?$allocator@D@2@@std@@@std@@PAX@std@@@1@PAU?$pair@_JV?$basic_string@DU?$char_traits@D@std@@V?$allocator@D@2@@std@@@1@$$QAU31@@Z 00422330 f i log4z.obj
 0001:00021390       ??$construct@U_Container_proxy@std@@U12@@?$_Wrap_alloc@V?$allocator@U_Container_proxy@std@@@std@@@std@@QAEXPAU_Container_proxy@1@$$QAU21@@Z 00422390 f i log4z.obj
 0001:00021400       ??$construct@U_Container_proxy@std@@U12@@?$allocator@U_Container_proxy@std@@@std@@QAEXPAU_Container_proxy@1@$$QAU21@@Z 00422400 f i log4z.obj
 0001:000214b0       ??$construct@U_Container_proxy@std@@U12@@?$allocator_traits@V?$allocator@U_Container_proxy@std@@@std@@@std@@SAXAAV?$allocator@U_Container_proxy@std@@@1@PAU_Container_proxy@1@$$QAU31@@Z 004224b0 f i log4z.obj
 0001:00021510       ??$destroy@PAPAULogData@log4z@zsummer@@@?$_Wrap_alloc@V?$allocator@PAULogData@log4z@zsummer@@@std@@@std@@QAEXPAPAPAULogData@log4z@zsummer@@@Z 00422510 f i log4z.obj
 0001:00021570       ??$destroy@PAPAULogData@log4z@zsummer@@@?$allocator@PAULogData@log4z@zsummer@@@std@@QAEXPAPAPAULogData@log4z@zsummer@@@Z 00422570 f i log4z.obj
 0001:000215b0       ??$destroy@PAPAULogData@log4z@zsummer@@@?$allocator_traits@V?$allocator@PAULogData@log4z@zsummer@@@std@@@std@@SAXAAV?$allocator@PAULogData@log4z@zsummer@@@1@PAPAPAULogData@log4z@zsummer@@@Z 004225b0 f i log4z.obj
 0001:00021600       ??$destroy@PAU?$_List_node@U?$pair@_JV?$basic_string@DU?$char_traits@D@std@@V?$allocator@D@2@@std@@@std@@PAX@std@@@?$_Wrap_alloc@V?$allocator@U?$_List_node@U?$pair@_JV?$basic_string@DU?$char_traits@D@std@@V?$allocator@D@2@@std@@@std@@PAX@std@@@std@@@std@@QAEXPAPAU?$_List_node@U?$pair@_JV?$basic_string@DU?$char_traits@D@std@@V?$allocator@D@2@@std@@@std@@PAX@1@@Z 00422600 f i log4z.obj
 0001:00021660       ??$destroy@PAU?$_List_node@U?$pair@_JV?$basic_string@DU?$char_traits@D@std@@V?$allocator@D@2@@std@@@std@@PAX@std@@@?$allocator@U?$_List_node@U?$pair@_JV?$basic_string@DU?$char_traits@D@std@@V?$allocator@D@2@@std@@@std@@PAX@std@@@std@@QAEXPAPAU?$_List_node@U?$pair@_JV?$basic_string@DU?$char_traits@D@std@@V?$allocator@D@2@@std@@@std@@PAX@1@@Z 00422660 f i log4z.obj
 0001:000216a0       ??$destroy@PAU?$_List_node@U?$pair@_JV?$basic_string@DU?$char_traits@D@std@@V?$allocator@D@2@@std@@@std@@PAX@std@@@?$allocator_traits@V?$allocator@U?$_List_node@U?$pair@_JV?$basic_string@DU?$char_traits@D@std@@V?$allocator@D@2@@std@@@std@@PAX@std@@@std@@@std@@SAXAAV?$allocator@U?$_List_node@U?$pair@_JV?$basic_string@DU?$char_traits@D@std@@V?$allocator@D@2@@std@@@std@@PAX@std@@@1@PAPAU?$_List_node@U?$pair@_JV?$basic_string@DU?$char_traits@D@std@@V?$allocator@D@2@@std@@@std@@PAX@1@@Z 004226a0 f i log4z.obj
 0001:000216f0       ??$destroy@PAU?$_Tree_node@U?$pair@$$CBV?$basic_string@DU?$char_traits@D@std@@V?$allocator@D@2@@std@@H@std@@PAX@std@@@?$_Wrap_alloc@V?$allocator@U?$_Tree_node@U?$pair@$$CBV?$basic_string@DU?$char_traits@D@std@@V?$allocator@D@2@@std@@H@std@@PAX@std@@@std@@@std@@QAEXPAPAU?$_Tree_node@U?$pair@$$CBV?$basic_string@DU?$char_traits@D@std@@V?$allocator@D@2@@std@@H@std@@PAX@1@@Z 004226f0 f i log4z.obj
 0001:00021750       ??$destroy@PAU?$_Tree_node@U?$pair@$$CBV?$basic_string@DU?$char_traits@D@std@@V?$allocator@D@2@@std@@H@std@@PAX@std@@@?$allocator@U?$_Tree_node@U?$pair@$$CBV?$basic_string@DU?$char_traits@D@std@@V?$allocator@D@2@@std@@H@std@@PAX@std@@@std@@QAEXPAPAU?$_Tree_node@U?$pair@$$CBV?$basic_string@DU?$char_traits@D@std@@V?$allocator@D@2@@std@@H@std@@PAX@1@@Z 00422750 f i log4z.obj
 0001:00021790       ??$destroy@PAU?$_Tree_node@U?$pair@$$CBV?$basic_string@DU?$char_traits@D@std@@V?$allocator@D@2@@std@@H@std@@PAX@std@@@?$allocator_traits@V?$allocator@U?$_Tree_node@U?$pair@$$CBV?$basic_string@DU?$char_traits@D@std@@V?$allocator@D@2@@std@@H@std@@PAX@std@@@std@@@std@@SAXAAV?$allocator@U?$_Tree_node@U?$pair@$$CBV?$basic_string@DU?$char_traits@D@std@@V?$allocator@D@2@@std@@H@std@@PAX@std@@@1@PAPAU?$_Tree_node@U?$pair@$$CBV?$basic_string@DU?$char_traits@D@std@@V?$allocator@D@2@@std@@H@std@@PAX@1@@Z 00422790 f i log4z.obj
 0001:000217e0       ??$destroy@PAU?$_Tree_node@U?$pair@$$CBV?$basic_string@DU?$char_traits@D@std@@V?$allocator@D@2@@std@@ULoggerInfo@log4z@zsummer@@@std@@PAX@std@@@?$_Wrap_alloc@V?$allocator@U?$_Tree_node@U?$pair@$$CBV?$basic_string@DU?$char_traits@D@std@@V?$allocator@D@2@@std@@ULoggerInfo@log4z@zsummer@@@std@@PAX@std@@@std@@@std@@QAEXPAPAU?$_Tree_node@U?$pair@$$CBV?$basic_string@DU?$char_traits@D@std@@V?$allocator@D@2@@std@@ULoggerInfo@log4z@zsummer@@@std@@PAX@1@@Z 004227e0 f i log4z.obj
 0001:00021840       ??$destroy@PAU?$_Tree_node@U?$pair@$$CBV?$basic_string@DU?$char_traits@D@std@@V?$allocator@D@2@@std@@ULoggerInfo@log4z@zsummer@@@std@@PAX@std@@@?$allocator@U?$_Tree_node@U?$pair@$$CBV?$basic_string@DU?$char_traits@D@std@@V?$allocator@D@2@@std@@ULoggerInfo@log4z@zsummer@@@std@@PAX@std@@@std@@QAEXPAPAU?$_Tree_node@U?$pair@$$CBV?$basic_string@DU?$char_traits@D@std@@V?$allocator@D@2@@std@@ULoggerInfo@log4z@zsummer@@@std@@PAX@1@@Z 00422840 f i log4z.obj
 0001:00021880       ??$destroy@PAU?$_Tree_node@U?$pair@$$CBV?$basic_string@DU?$char_traits@D@std@@V?$allocator@D@2@@std@@ULoggerInfo@log4z@zsummer@@@std@@PAX@std@@@?$allocator_traits@V?$allocator@U?$_Tree_node@U?$pair@$$CBV?$basic_string@DU?$char_traits@D@std@@V?$allocator@D@2@@std@@ULoggerInfo@log4z@zsummer@@@std@@PAX@std@@@std@@@std@@SAXAAV?$allocator@U?$_Tree_node@U?$pair@$$CBV?$basic_string@DU?$char_traits@D@std@@V?$allocator@D@2@@std@@ULoggerInfo@log4z@zsummer@@@std@@PAX@std@@@1@PAPAU?$_Tree_node@U?$pair@$$CBV?$basic_string@DU?$char_traits@D@std@@V?$allocator@D@2@@std@@ULoggerInfo@log4z@zsummer@@@std@@PAX@1@@Z 00422880 f i log4z.obj
 0001:000218d0       ??$destroy@PAULogData@log4z@zsummer@@@?$_Wrap_alloc@V?$allocator@PAULogData@log4z@zsummer@@@std@@@std@@QAEXPAPAULogData@log4z@zsummer@@@Z 004228d0 f i log4z.obj
 0001:00021930       ??$destroy@PAULogData@log4z@zsummer@@@?$allocator@PAULogData@log4z@zsummer@@@std@@QAEXPAPAULogData@log4z@zsummer@@@Z 00422930 f i log4z.obj
 0001:00021970       ??$destroy@PAULogData@log4z@zsummer@@@?$allocator_traits@V?$allocator@PAULogData@log4z@zsummer@@@std@@@std@@SAXAAV?$allocator@PAULogData@log4z@zsummer@@@1@PAPAULogData@log4z@zsummer@@@Z 00422970 f i log4z.obj
 0001:000219c0       ??$destroy@U?$pair@$$CBV?$basic_string@DU?$char_traits@D@std@@V?$allocator@D@2@@std@@H@std@@@?$_Wrap_alloc@V?$allocator@U?$_Tree_node@U?$pair@$$CBV?$basic_string@DU?$char_traits@D@std@@V?$allocator@D@2@@std@@H@std@@PAX@std@@@std@@@std@@QAEXPAU?$pair@$$CBV?$basic_string@DU?$char_traits@D@std@@V?$allocator@D@2@@std@@H@1@@Z 004229c0 f i log4z.obj
 0001:00021a20       ??$destroy@U?$pair@$$CBV?$basic_string@DU?$char_traits@D@std@@V?$allocator@D@2@@std@@H@std@@@?$allocator@U?$_Tree_node@U?$pair@$$CBV?$basic_string@DU?$char_traits@D@std@@V?$allocator@D@2@@std@@H@std@@PAX@std@@@std@@QAEXPAU?$pair@$$CBV?$basic_string@DU?$char_traits@D@std@@V?$allocator@D@2@@std@@H@1@@Z 00422a20 f i log4z.obj
 0001:00021a80       ??$destroy@U?$pair@$$CBV?$basic_string@DU?$char_traits@D@std@@V?$allocator@D@2@@std@@H@std@@@?$allocator_traits@V?$allocator@U?$_Tree_node@U?$pair@$$CBV?$basic_string@DU?$char_traits@D@std@@V?$allocator@D@2@@std@@H@std@@PAX@std@@@std@@@std@@SAXAAV?$allocator@U?$_Tree_node@U?$pair@$$CBV?$basic_string@DU?$char_traits@D@std@@V?$allocator@D@2@@std@@H@std@@PAX@std@@@1@PAU?$pair@$$CBV?$basic_string@DU?$char_traits@D@std@@V?$allocator@D@2@@std@@H@1@@Z 00422a80 f i log4z.obj
 0001:00021ad0       ??$destroy@U?$pair@$$CBV?$basic_string@DU?$char_traits@D@std@@V?$allocator@D@2@@std@@ULoggerInfo@log4z@zsummer@@@std@@@?$_Wrap_alloc@V?$allocator@U?$_Tree_node@U?$pair@$$CBV?$basic_string@DU?$char_traits@D@std@@V?$allocator@D@2@@std@@ULoggerInfo@log4z@zsummer@@@std@@PAX@std@@@std@@@std@@QAEXPAU?$pair@$$CBV?$basic_string@DU?$char_traits@D@std@@V?$allocator@D@2@@std@@ULoggerInfo@log4z@zsummer@@@1@@Z 00422ad0 f i log4z.obj
 0001:00021b30       ??$destroy@U?$pair@$$CBV?$basic_string@DU?$char_traits@D@std@@V?$allocator@D@2@@std@@ULoggerInfo@log4z@zsummer@@@std@@@?$allocator@U?$_Tree_node@U?$pair@$$CBV?$basic_string@DU?$char_traits@D@std@@V?$allocator@D@2@@std@@ULoggerInfo@log4z@zsummer@@@std@@PAX@std@@@std@@QAEXPAU?$pair@$$CBV?$basic_string@DU?$char_traits@D@std@@V?$allocator@D@2@@std@@ULoggerInfo@log4z@zsummer@@@1@@Z 00422b30 f i log4z.obj
 0001:00021b90       ??$destroy@U?$pair@$$CBV?$basic_string@DU?$char_traits@D@std@@V?$allocator@D@2@@std@@ULoggerInfo@log4z@zsummer@@@std@@@?$allocator_traits@V?$allocator@U?$_Tree_node@U?$pair@$$CBV?$basic_string@DU?$char_traits@D@std@@V?$allocator@D@2@@std@@ULoggerInfo@log4z@zsummer@@@std@@PAX@std@@@std@@@std@@SAXAAV?$allocator@U?$_Tree_node@U?$pair@$$CBV?$basic_string@DU?$char_traits@D@std@@V?$allocator@D@2@@std@@ULoggerInfo@log4z@zsummer@@@std@@PAX@std@@@1@PAU?$pair@$$CBV?$basic_string@DU?$char_traits@D@std@@V?$allocator@D@2@@std@@ULoggerInfo@log4z@zsummer@@@1@@Z 00422b90 f i log4z.obj
 0001:00021be0       ??$destroy@U?$pair@_JV?$basic_string@DU?$char_traits@D@std@@V?$allocator@D@2@@std@@@std@@@?$_Wrap_alloc@V?$allocator@U?$_List_node@U?$pair@_JV?$basic_string@DU?$char_traits@D@std@@V?$allocator@D@2@@std@@@std@@PAX@std@@@std@@@std@@QAEXPAU?$pair@_JV?$basic_string@DU?$char_traits@D@std@@V?$allocator@D@2@@std@@@1@@Z 00422be0 f i log4z.obj
 0001:00021c40       ??$destroy@U?$pair@_JV?$basic_string@DU?$char_traits@D@std@@V?$allocator@D@2@@std@@@std@@@?$allocator@U?$_List_node@U?$pair@_JV?$basic_string@DU?$char_traits@D@std@@V?$allocator@D@2@@std@@@std@@PAX@std@@@std@@QAEXPAU?$pair@_JV?$basic_string@DU?$char_traits@D@std@@V?$allocator@D@2@@std@@@1@@Z 00422c40 f i log4z.obj
 0001:00021ca0       ??$destroy@U?$pair@_JV?$basic_string@DU?$char_traits@D@std@@V?$allocator@D@2@@std@@@std@@@?$allocator_traits@V?$allocator@U?$_List_node@U?$pair@_JV?$basic_string@DU?$char_traits@D@std@@V?$allocator@D@2@@std@@@std@@PAX@std@@@std@@@std@@SAXAAV?$allocator@U?$_List_node@U?$pair@_JV?$basic_string@DU?$char_traits@D@std@@V?$allocator@D@2@@std@@@std@@PAX@std@@@1@PAU?$pair@_JV?$basic_string@DU?$char_traits@D@std@@V?$allocator@D@2@@std@@@1@@Z 00422ca0 f i log4z.obj
 0001:00021cf0       ??$emplace@U?$pair@V?$basic_string@DU?$char_traits@D@std@@V?$allocator@D@2@@std@@ULoggerInfo@log4z@zsummer@@@std@@@?$_Tree@V?$_Tmap_traits@V?$basic_string@DU?$char_traits@D@std@@V?$allocator@D@2@@std@@ULoggerInfo@log4z@zsummer@@U?$less@V?$basic_string@DU?$char_traits@D@std@@V?$allocator@D@2@@std@@@2@V?$allocator@U?$pair@$$CBV?$basic_string@DU?$char_traits@D@std@@V?$allocator@D@2@@std@@ULoggerInfo@log4z@zsummer@@@std@@@2@$0A@@std@@@std@@QAE?AU?$pair@V?$_Tree_iterator@V?$_Tree_val@U?$_Tree_simple_types@U?$pair@$$CBV?$basic_string@DU?$char_traits@D@std@@V?$allocator@D@2@@std@@ULoggerInfo@log4z@zsummer@@@std@@@std@@@std@@@std@@_N@1@$$QAU?$pair@V?$basic_string@DU?$char_traits@D@std@@V?$allocator@D@2@@std@@ULoggerInfo@log4z@zsummer@@@1@@Z 00422cf0 f i log4z.obj
 0001:00021da0       ??$emplace_hint@ABUpiecewise_construct_t@std@@V?$tuple@$$QAV?$basic_string@DU?$char_traits@D@std@@V?$allocator@D@2@@std@@@2@V?$tuple@$$V@2@@?$_Tree@V?$_Tmap_traits@V?$basic_string@DU?$char_traits@D@std@@V?$allocator@D@2@@std@@HU?$less@V?$basic_string@DU?$char_traits@D@std@@V?$allocator@D@2@@std@@@2@V?$allocator@U?$pair@$$CBV?$basic_string@DU?$char_traits@D@std@@V?$allocator@D@2@@std@@H@std@@@2@$0A@@std@@@std@@QAE?AV?$_Tree_iterator@V?$_Tree_val@U?$_Tree_simple_types@U?$pair@$$CBV?$basic_string@DU?$char_traits@D@std@@V?$allocator@D@2@@std@@H@std@@@std@@@std@@@1@V?$_Tree_const_iterator@V?$_Tree_val@U?$_Tree_simple_types@U?$pair@$$CBV?$basic_string@DU?$char_traits@D@std@@V?$allocator@D@2@@std@@H@std@@@std@@@std@@@1@ABUpiecewise_construct_t@1@$$QAV?$tuple@$$QAV?$basic_string@DU?$char_traits@D@std@@V?$allocator@D@2@@std@@@1@$$QAV?$tuple@$$V@1@@Z 00422da0 f i log4z.obj
 0001:00021ef0       ??$emplace_hint@ABUpiecewise_construct_t@std@@V?$tuple@ABV?$basic_string@DU?$char_traits@D@std@@V?$allocator@D@2@@std@@@2@V?$tuple@$$V@2@@?$_Tree@V?$_Tmap_traits@V?$basic_string@DU?$char_traits@D@std@@V?$allocator@D@2@@std@@HU?$less@V?$basic_string@DU?$char_traits@D@std@@V?$allocator@D@2@@std@@@2@V?$allocator@U?$pair@$$CBV?$basic_string@DU?$char_traits@D@std@@V?$allocator@D@2@@std@@H@std@@@2@$0A@@std@@@std@@QAE?AV?$_Tree_iterator@V?$_Tree_val@U?$_Tree_simple_types@U?$pair@$$CBV?$basic_string@DU?$char_traits@D@std@@V?$allocator@D@2@@std@@H@std@@@std@@@std@@@1@V?$_Tree_const_iterator@V?$_Tree_val@U?$_Tree_simple_types@U?$pair@$$CBV?$basic_string@DU?$char_traits@D@std@@V?$allocator@D@2@@std@@H@std@@@std@@@std@@@1@ABUpiecewise_construct_t@1@$$QAV?$tuple@ABV?$basic_string@DU?$char_traits@D@std@@V?$allocator@D@2@@std@@@1@$$QAV?$tuple@$$V@1@@Z 00422ef0 f i log4z.obj
 0001:00022040       ??$forward@$$QAV?$basic_string@DU?$char_traits@D@std@@V?$allocator@D@2@@std@@@std@@YA$$QAV?$basic_string@DU?$char_traits@D@std@@V?$allocator@D@2@@0@AAV10@@Z 00423040 f i log4z.obj
 0001:00022080       ??$forward@AAPAD@std@@YAAAPADAAPAD@Z 00423080 f i log4z.obj
 0001:000220c0       ??$forward@AAPAU?$_List_node@U?$pair@_JV?$basic_string@DU?$char_traits@D@std@@V?$allocator@D@2@@std@@@std@@PAX@std@@@std@@YAAAPAU?$_List_node@U?$pair@_JV?$basic_string@DU?$char_traits@D@std@@V?$allocator@D@2@@std@@@std@@PAX@0@AAPAU10@@Z 004230c0 f i log4z.obj
 0001:00022100       ??$forward@AAPAU?$_Tree_node@U?$pair@$$CBV?$basic_string@DU?$char_traits@D@std@@V?$allocator@D@2@@std@@H@std@@PAX@std@@@std@@YAAAPAU?$_Tree_node@U?$pair@$$CBV?$basic_string@DU?$char_traits@D@std@@V?$allocator@D@2@@std@@H@std@@PAX@0@AAPAU10@@Z 00423100 f i log4z.obj
 0001:00022140       ??$forward@AAPAU?$_Tree_node@U?$pair@$$CBV?$basic_string@DU?$char_traits@D@std@@V?$allocator@D@2@@std@@ULoggerInfo@log4z@zsummer@@@std@@PAX@std@@@std@@YAAAPAU?$_Tree_node@U?$pair@$$CBV?$basic_string@DU?$char_traits@D@std@@V?$allocator@D@2@@std@@ULoggerInfo@log4z@zsummer@@@std@@PAX@0@AAPAU10@@Z 00423140 f i log4z.obj
 0001:00022180       ??$forward@AAPAULogData@log4z@zsummer@@@std@@YAAAPAULogData@log4z@zsummer@@AAPAU123@@Z 00423180 f i log4z.obj
 0001:000221c0       ??$forward@AAU?$_Wrap_alloc@V?$allocator@PAULogData@log4z@zsummer@@@std@@@std@@@std@@YAAAU?$_Wrap_alloc@V?$allocator@PAULogData@log4z@zsummer@@@std@@@0@AAU10@@Z 004231c0 f i log4z.obj
 0001:00022200       ??$forward@AAU?$_Wrap_alloc@V?$allocator@U?$_List_node@U?$pair@_JV?$basic_string@DU?$char_traits@D@std@@V?$allocator@D@2@@std@@@std@@PAX@std@@@std@@@std@@@std@@YAAAU?$_Wrap_alloc@V?$allocator@U?$_List_node@U?$pair@_JV?$basic_string@DU?$char_traits@D@std@@V?$allocator@D@2@@std@@@std@@PAX@std@@@std@@@0@AAU10@@Z 00423200 f i log4z.obj
 0001:00022240       ??$forward@AAU?$_Wrap_alloc@V?$allocator@U?$_Tree_node@U?$pair@$$CBV?$basic_string@DU?$char_traits@D@std@@V?$allocator@D@2@@std@@H@std@@PAX@std@@@std@@@std@@@std@@YAAAU?$_Wrap_alloc@V?$allocator@U?$_Tree_node@U?$pair@$$CBV?$basic_string@DU?$char_traits@D@std@@V?$allocator@D@2@@std@@H@std@@PAX@std@@@std@@@0@AAU10@@Z 00423240 f i log4z.obj
 0001:00022280       ??$forward@AAU?$_Wrap_alloc@V?$allocator@U?$_Tree_node@U?$pair@$$CBV?$basic_string@DU?$char_traits@D@std@@V?$allocator@D@2@@std@@ULoggerInfo@log4z@zsummer@@@std@@PAX@std@@@std@@@std@@@std@@YAAAU?$_Wrap_alloc@V?$allocator@U?$_Tree_node@U?$pair@$$CBV?$basic_string@DU?$char_traits@D@std@@V?$allocator@D@2@@std@@ULoggerInfo@log4z@zsummer@@@std@@PAX@std@@@std@@@0@AAU10@@Z 00423280 f i log4z.obj
 0001:000222c0       ??$forward@AAU?$pair@$$CBV?$basic_string@DU?$char_traits@D@std@@V?$allocator@D@2@@std@@H@std@@@std@@YAAAU?$pair@$$CBV?$basic_string@DU?$char_traits@D@std@@V?$allocator@D@2@@std@@H@0@AAU10@@Z 004232c0 f i log4z.obj
 0001:00022300       ??$forward@AAU?$pair@$$CBV?$basic_string@DU?$char_traits@D@std@@V?$allocator@D@2@@std@@ULoggerInfo@log4z@zsummer@@@std@@@std@@YAAAU?$pair@$$CBV?$basic_string@DU?$char_traits@D@std@@V?$allocator@D@2@@std@@ULoggerInfo@log4z@zsummer@@@0@AAU10@@Z 00423300 f i log4z.obj
 0001:00022340       ??$forward@AAULoggerInfo@log4z@zsummer@@@std@@YAAAULoggerInfo@log4z@zsummer@@AAU123@@Z 00423340 f i log4z.obj
 0001:00022380       ??$forward@AAV?$_Tree_iterator@V?$_Tree_val@U?$_Tree_simple_types@U?$pair@$$CBV?$basic_string@DU?$char_traits@D@std@@V?$allocator@D@2@@std@@H@std@@@std@@@std@@@std@@@std@@YAAAV?$_Tree_iterator@V?$_Tree_val@U?$_Tree_simple_types@U?$pair@$$CBV?$basic_string@DU?$char_traits@D@std@@V?$allocator@D@2@@std@@H@std@@@std@@@std@@@0@AAV10@@Z 00423380 f i log4z.obj
 0001:000223c0       ??$forward@AAV?$_Tree_iterator@V?$_Tree_val@U?$_Tree_simple_types@U?$pair@$$CBV?$basic_string@DU?$char_traits@D@std@@V?$allocator@D@2@@std@@ULoggerInfo@log4z@zsummer@@@std@@@std@@@std@@@std@@@std@@YAAAV?$_Tree_iterator@V?$_Tree_val@U?$_Tree_simple_types@U?$pair@$$CBV?$basic_string@DU?$char_traits@D@std@@V?$allocator@D@2@@std@@ULoggerInfo@log4z@zsummer@@@std@@@std@@@std@@@0@AAV10@@Z 004233c0 f i log4z.obj
 0001:00022400       ??$forward@AAV?$basic_string@DU?$char_traits@D@std@@V?$allocator@D@2@@std@@@std@@YAAAV?$basic_string@DU?$char_traits@D@std@@V?$allocator@D@2@@0@AAV10@@Z 00423400 f i log4z.obj
 0001:00022440       ??$forward@AAY00$$CBD@std@@YAAAY00$$CBDAAY00$$CBD@Z 00423440 f i log4z.obj
 0001:00022480       ??$forward@ABQAULogData@log4z@zsummer@@@std@@YAABQAULogData@log4z@zsummer@@ABQAU123@@Z 00423480 f i log4z.obj
 0001:000224c0       ??$forward@ABU?$less@V?$basic_string@DU?$char_traits@D@std@@V?$allocator@D@2@@std@@@std@@@std@@YAABU?$less@V?$basic_string@DU?$char_traits@D@std@@V?$allocator@D@2@@std@@@0@ABU10@@Z 004234c0 f i log4z.obj
 0001:00022500       ??$forward@ABU?$pair@_JV?$basic_string@DU?$char_traits@D@std@@V?$allocator@D@2@@std@@@std@@@std@@YAABU?$pair@_JV?$basic_string@DU?$char_traits@D@std@@V?$allocator@D@2@@std@@@0@ABU10@@Z 00423500 f i log4z.obj
 0001:00022540       ??$forward@ABUpiecewise_construct_t@std@@@std@@YAABUpiecewise_construct_t@0@ABU10@@Z 00423540 f i log4z.obj
 0001:00022580       ??$forward@ABV?$allocator@D@std@@@std@@YAABV?$allocator@D@0@ABV10@@Z 00423580 f i log4z.obj
 0001:000225c0       ??$forward@ABV?$basic_string@DU?$char_traits@D@std@@V?$allocator@D@2@@std@@@std@@YAABV?$basic_string@DU?$char_traits@D@std@@V?$allocator@D@2@@0@ABV10@@Z 004235c0 f i log4z.obj
 0001:00022600       ??$forward@PBD@std@@YA$$QAPBDAAPBD@Z 00423600 f i log4z.obj
 0001:00022640       ??$forward@U?$_Wrap_alloc@V?$allocator@D@std@@@std@@@std@@YA$$QAU?$_Wrap_alloc@V?$allocator@D@std@@@0@AAU10@@Z 00423640 f i log4z.obj
 0001:00022680       ??$forward@U?$_Wrap_alloc@V?$allocator@U?$_List_node@U?$pair@_JV?$basic_string@DU?$char_traits@D@std@@V?$allocator@D@2@@std@@@std@@PAX@std@@@std@@@std@@@std@@YA$$QAU?$_Wrap_alloc@V?$allocator@U?$_List_node@U?$pair@_JV?$basic_string@DU?$char_traits@D@std@@V?$allocator@D@2@@std@@@std@@PAX@std@@@std@@@0@AAU10@@Z 00423680 f i log4z.obj
 0001:000226c0       ??$forward@U?$pair@V?$basic_string@DU?$char_traits@D@std@@V?$allocator@D@2@@std@@ULoggerInfo@log4z@zsummer@@@std@@@std@@YA$$QAU?$pair@V?$basic_string@DU?$char_traits@D@std@@V?$allocator@D@2@@std@@ULoggerInfo@log4z@zsummer@@@0@AAU10@@Z 004236c0 f i log4z.obj
 0001:00022700       ??$forward@U?$pair@_JV?$basic_string@DU?$char_traits@D@std@@V?$allocator@D@2@@std@@@std@@@std@@YA$$QAU?$pair@_JV?$basic_string@DU?$char_traits@D@std@@V?$allocator@D@2@@std@@@0@AAU10@@Z 00423700 f i log4z.obj
 0001:00022740       ??$forward@ULoggerInfo@log4z@zsummer@@@std@@YA$$QAULoggerInfo@log4z@zsummer@@AAU123@@Z 00423740 f i log4z.obj
 0001:00022780       ??$forward@U_Container_proxy@std@@@std@@YA$$QAU_Container_proxy@0@AAU10@@Z 00423780 f i log4z.obj
 0001:000227c0       ??$forward@U_Zero_then_variadic_args_t@std@@@std@@YA$$QAU_Zero_then_variadic_args_t@0@AAU10@@Z 004237c0 f i log4z.obj
 0001:00022800       ??$forward@V?$_Tree_iterator@V?$_Tree_val@U?$_Tree_simple_types@U?$pair@$$CBV?$basic_string@DU?$char_traits@D@std@@V?$allocator@D@2@@std@@H@std@@@std@@@std@@@std@@@std@@YA$$QAV?$_Tree_iterator@V?$_Tree_val@U?$_Tree_simple_types@U?$pair@$$CBV?$basic_string@DU?$char_traits@D@std@@V?$allocator@D@2@@std@@H@std@@@std@@@std@@@0@AAV10@@Z 00423800 f i log4z.obj
 0001:00022840       ??$forward@V?$_Tree_iterator@V?$_Tree_val@U?$_Tree_simple_types@U?$pair@$$CBV?$basic_string@DU?$char_traits@D@std@@V?$allocator@D@2@@std@@ULoggerInfo@log4z@zsummer@@@std@@@std@@@std@@@std@@@std@@YA$$QAV?$_Tree_iterator@V?$_Tree_val@U?$_Tree_simple_types@U?$pair@$$CBV?$basic_string@DU?$char_traits@D@std@@V?$allocator@D@2@@std@@ULoggerInfo@log4z@zsummer@@@std@@@std@@@std@@@0@AAV10@@Z 00423840 f i log4z.obj
 0001:00022880       ??$forward@V?$allocator@D@std@@@std@@YA$$QAV?$allocator@D@0@AAV10@@Z 00423880 f i log4z.obj
 0001:000228c0       ??$forward@V?$allocator@U?$_List_node@U?$pair@_JV?$basic_string@DU?$char_traits@D@std@@V?$allocator@D@2@@std@@@std@@PAX@std@@@std@@@std@@YA$$QAV?$allocator@U?$_List_node@U?$pair@_JV?$basic_string@DU?$char_traits@D@std@@V?$allocator@D@2@@std@@@std@@PAX@std@@@0@AAV10@@Z 004238c0 f i log4z.obj
 0001:00022900       ??$forward@V?$basic_string@DU?$char_traits@D@std@@V?$allocator@D@2@@std@@@std@@YA$$QAV?$basic_string@DU?$char_traits@D@std@@V?$allocator@D@2@@0@AAV10@@Z 00423900 f i log4z.obj
 0001:00022940       ??$forward@V?$list@U?$pair@_JV?$basic_string@DU?$char_traits@D@std@@V?$allocator@D@2@@std@@@std@@V?$allocator@U?$pair@_JV?$basic_string@DU?$char_traits@D@std@@V?$allocator@D@2@@std@@@std@@@2@@std@@@std@@YA$$QAV?$list@U?$pair@_JV?$basic_string@DU?$char_traits@D@std@@V?$allocator@D@2@@std@@@std@@V?$allocator@U?$pair@_JV?$basic_string@DU?$char_traits@D@std@@V?$allocator@D@2@@std@@@std@@@2@@0@AAV10@@Z 00423940 f i log4z.obj
 0001:00022980       ??$forward@V?$tuple@$$QAV?$basic_string@DU?$char_traits@D@std@@V?$allocator@D@2@@std@@@std@@@std@@YA$$QAV?$tuple@$$QAV?$basic_string@DU?$char_traits@D@std@@V?$allocator@D@2@@std@@@0@AAV10@@Z 00423980 f i log4z.obj
 0001:000229c0       ??$forward@V?$tuple@$$V@std@@@std@@YA$$QAV?$tuple@$$V@0@AAV10@@Z 004239c0 f i log4z.obj
 0001:00022a00       ??$forward@V?$tuple@ABV?$basic_string@DU?$char_traits@D@std@@V?$allocator@D@2@@std@@@std@@@std@@YA$$QAV?$tuple@ABV?$basic_string@DU?$char_traits@D@std@@V?$allocator@D@2@@std@@@0@AAV10@@Z 00423a00 f i log4z.obj
 0001:00022a40       ??$forward@_J@std@@YA$$QA_JAA_J@Z 00423a40 f i log4z.obj
 0001:00022a80       ??$forward@_N@std@@YA$$QA_NAA_N@Z 00423a80 f i log4z.obj
 0001:00022ac0       ??$forward_as_tuple@$$V@std@@YA?AV?$tuple@$$V@0@XZ 00423ac0 f i log4z.obj
 0001:00022b10       ??$forward_as_tuple@ABV?$basic_string@DU?$char_traits@D@std@@V?$allocator@D@2@@std@@@std@@YA?AV?$tuple@ABV?$basic_string@DU?$char_traits@D@std@@V?$allocator@D@2@@std@@@0@ABV?$basic_string@DU?$char_traits@D@std@@V?$allocator@D@2@@0@@Z 00423b10 f i log4z.obj
 0001:00022bb0       ??$forward_as_tuple@V?$basic_string@DU?$char_traits@D@std@@V?$allocator@D@2@@std@@@std@@YA?AV?$tuple@$$QAV?$basic_string@DU?$char_traits@D@std@@V?$allocator@D@2@@std@@@0@$$QAV?$basic_string@DU?$char_traits@D@std@@V?$allocator@D@2@@0@@Z 00423bb0 f i log4z.obj
 0001:00022c50       ??$get@$0A@$$QAV?$basic_string@DU?$char_traits@D@std@@V?$allocator@D@2@@std@@@std@@YA$$QAV?$basic_string@DU?$char_traits@D@std@@V?$allocator@D@2@@0@$$QAV?$tuple@$$QAV?$basic_string@DU?$char_traits@D@std@@V?$allocator@D@2@@std@@@0@@Z 00423c50 f i log4z.obj
 0001:00022ca0       ??$get@$0A@ABV?$basic_string@DU?$char_traits@D@std@@V?$allocator@D@2@@std@@@std@@YAABV?$basic_string@DU?$char_traits@D@std@@V?$allocator@D@2@@0@$$QAV?$tuple@ABV?$basic_string@DU?$char_traits@D@std@@V?$allocator@D@2@@std@@@0@@Z 00423ca0 f i log4z.obj
 0001:00022cf0       ??$insert@U?$pair@V?$basic_string@DU?$char_traits@D@std@@V?$allocator@D@2@@std@@ULoggerInfo@log4z@zsummer@@@std@@X@?$map@V?$basic_string@DU?$char_traits@D@std@@V?$allocator@D@2@@std@@ULoggerInfo@log4z@zsummer@@U?$less@V?$basic_string@DU?$char_traits@D@std@@V?$allocator@D@2@@std@@@2@V?$allocator@U?$pair@$$CBV?$basic_string@DU?$char_traits@D@std@@V?$allocator@D@2@@std@@ULoggerInfo@log4z@zsummer@@@std@@@2@@std@@QAE?AU?$pair@V?$_Tree_iterator@V?$_Tree_val@U?$_Tree_simple_types@U?$pair@$$CBV?$basic_string@DU?$char_traits@D@std@@V?$allocator@D@2@@std@@ULoggerInfo@log4z@zsummer@@@std@@@std@@@std@@@std@@_N@1@$$QAU?$pair@V?$basic_string@DU?$char_traits@D@std@@V?$allocator@D@2@@std@@ULoggerInfo@log4z@zsummer@@@1@@Z 00423cf0 f i log4z.obj
 0001:00022d80       ??$insert@V?$_List_const_iterator@V?$_List_val@U?$_List_simple_types@U?$pair@_JV?$basic_string@DU?$char_traits@D@std@@V?$allocator@D@2@@std@@@std@@@std@@@std@@@std@@@?$list@U?$pair@_JV?$basic_string@DU?$char_traits@D@std@@V?$allocator@D@2@@std@@@std@@V?$allocator@U?$pair@_JV?$basic_string@DU?$char_traits@D@std@@V?$allocator@D@2@@std@@@std@@@2@@std@@QAE?AV?$_List_iterator@V?$_List_val@U?$_List_simple_types@U?$pair@_JV?$basic_string@DU?$char_traits@D@std@@V?$allocator@D@2@@std@@@std@@@std@@@std@@@1@V?$_List_const_iterator@V?$_List_val@U?$_List_simple_types@U?$pair@_JV?$basic_string@DU?$char_traits@D@std@@V?$allocator@D@2@@std@@@std@@@std@@@std@@@1@00@Z 00423d80 f i log4z.obj
 0001:000231d0       ??$make_pair@AAV?$basic_string@DU?$char_traits@D@std@@V?$allocator@D@2@@std@@AAULoggerInfo@log4z@zsummer@@@std@@YA?AU?$pair@V?$basic_string@DU?$char_traits@D@std@@V?$allocator@D@2@@std@@ULoggerInfo@log4z@zsummer@@@0@AAV?$basic_string@DU?$char_traits@D@std@@V?$allocator@D@2@@0@AAULoggerInfo@log4z@zsummer@@@Z 004241d0 f i log4z.obj
 0001:00023260       ??$make_pair@ABV?$basic_string@DU?$char_traits@D@std@@V?$allocator@D@2@@std@@AAY00$$CBD@std@@YA?AU?$pair@V?$basic_string@DU?$char_traits@D@std@@V?$allocator@D@2@@std@@PBD@0@ABV?$basic_string@DU?$char_traits@D@std@@V?$allocator@D@2@@0@AAY00$$CBD@Z 00424260 f i log4z.obj
 0001:00023300       ??$make_pair@V?$basic_string@DU?$char_traits@D@std@@V?$allocator@D@2@@std@@V12@@std@@YA?AU?$pair@V?$basic_string@DU?$char_traits@D@std@@V?$allocator@D@2@@std@@V12@@0@$$QAV?$basic_string@DU?$char_traits@D@std@@V?$allocator@D@2@@0@0@Z 00424300 f i log4z.obj
 0001:00023390       ??$make_pair@_JAAV?$basic_string@DU?$char_traits@D@std@@V?$allocator@D@2@@std@@@std@@YA?AU?$pair@_JV?$basic_string@DU?$char_traits@D@std@@V?$allocator@D@2@@std@@@0@$$QA_JAAV?$basic_string@DU?$char_traits@D@std@@V?$allocator@D@2@@0@@Z 00424390 f i log4z.obj
 0001:00023420       ??$move@AAD@std@@YA$$QADAAD@Z 00424420 f i log4z.obj
 0001:00023460       ??$move@AAI@std@@YA$$QAIAAI@Z 00424460 f i log4z.obj
 0001:000234a0       ??$move@AAPAPAPAULogData@log4z@zsummer@@@std@@YA$$QAPAPAPAULogData@log4z@zsummer@@AAPAPAPAU123@@Z 004244a0 f i log4z.obj
 0001:000234e0       ??$move@AAPAU?$_List_node@U?$pair@_JV?$basic_string@DU?$char_traits@D@std@@V?$allocator@D@2@@std@@@std@@PAX@std@@@std@@YA$$QAPAU?$_List_node@U?$pair@_JV?$basic_string@DU?$char_traits@D@std@@V?$allocator@D@2@@std@@@std@@PAX@0@AAPAU10@@Z 004244e0 f i log4z.obj
 0001:00023520       ??$move@AAU?$_Wrap_alloc@V?$allocator@D@std@@@std@@@std@@YA$$QAU?$_Wrap_alloc@V?$allocator@D@std@@@0@AAU10@@Z 00424520 f i log4z.obj
 0001:00023560       ??$move@AAU?$_Wrap_alloc@V?$allocator@U?$_List_node@U?$pair@_JV?$basic_string@DU?$char_traits@D@std@@V?$allocator@D@2@@std@@@std@@PAX@std@@@std@@@std@@@std@@YA$$QAU?$_Wrap_alloc@V?$allocator@U?$_List_node@U?$pair@_JV?$basic_string@DU?$char_traits@D@std@@V?$allocator@D@2@@std@@@std@@PAX@std@@@std@@@0@AAU10@@Z 00424560 f i log4z.obj
 0001:000235a0       ??$move@AAV?$basic_string@DU?$char_traits@D@std@@V?$allocator@D@2@@std@@@std@@YA$$QAV?$basic_string@DU?$char_traits@D@std@@V?$allocator@D@2@@0@AAV10@@Z 004245a0 f i log4z.obj
 0001:000235e0       ??$move@AAV?$tuple@$$QAV?$basic_string@DU?$char_traits@D@std@@V?$allocator@D@2@@std@@@std@@@std@@YA$$QAV?$tuple@$$QAV?$basic_string@DU?$char_traits@D@std@@V?$allocator@D@2@@std@@@0@AAV10@@Z 004245e0 f i log4z.obj
 0001:00023620       ??$move@AAV?$tuple@ABV?$basic_string@DU?$char_traits@D@std@@V?$allocator@D@2@@std@@@std@@@std@@YA$$QAV?$tuple@ABV?$basic_string@DU?$char_traits@D@std@@V?$allocator@D@2@@std@@@0@AAV10@@Z 00424620 f i log4z.obj
 0001:00023660       ??$swap@DX@std@@YAXAAD0@Z  00424660 f i log4z.obj
 0001:00023720       ??$swap@IX@std@@YAXAAI0@Z  00424720 f i log4z.obj
 0001:000237e0       ??$swap@PAPAPAULogData@log4z@zsummer@@X@std@@YAXAAPAPAPAULogData@log4z@zsummer@@0@Z 004247e0 f i log4z.obj
 0001:000238a0       ??$swap@PAU?$_List_node@U?$pair@_JV?$basic_string@DU?$char_traits@D@std@@V?$allocator@D@2@@std@@@std@@PAX@std@@X@std@@YAXAAPAU?$_List_node@U?$pair@_JV?$basic_string@DU?$char_traits@D@std@@V?$allocator@D@2@@std@@@std@@PAX@0@0@Z 004248a0 f i log4z.obj
 0001:00023960       ??$transform@V?$_String_iterator@V?$_String_val@U?$_Simple_types@D@std@@@std@@@std@@V12@P6AHH@Z@std@@YA?AV?$_String_iterator@V?$_String_val@U?$_Simple_types@D@std@@@std@@@0@V10@00P6AHH@Z@Z 00424960 f i log4z.obj
 0001:00023b30       ??$try_emplace@$$V@?$map@V?$basic_string@DU?$char_traits@D@std@@V?$allocator@D@2@@std@@HU?$less@V?$basic_string@DU?$char_traits@D@std@@V?$allocator@D@2@@std@@@2@V?$allocator@U?$pair@$$CBV?$basic_string@DU?$char_traits@D@std@@V?$allocator@D@2@@std@@H@std@@@2@@std@@QAE?AU?$pair@V?$_Tree_iterator@V?$_Tree_val@U?$_Tree_simple_types@U?$pair@$$CBV?$basic_string@DU?$char_traits@D@std@@V?$allocator@D@2@@std@@H@std@@@std@@@std@@@std@@_N@1@$$QAV?$basic_string@DU?$char_traits@D@std@@V?$allocator@D@2@@1@@Z 00424b30 f i log4z.obj
 0001:00023bc0       ??$try_emplace@$$V@?$map@V?$basic_string@DU?$char_traits@D@std@@V?$allocator@D@2@@std@@HU?$less@V?$basic_string@DU?$char_traits@D@std@@V?$allocator@D@2@@std@@@2@V?$allocator@U?$pair@$$CBV?$basic_string@DU?$char_traits@D@std@@V?$allocator@D@2@@std@@H@std@@@2@@std@@QAE?AU?$pair@V?$_Tree_iterator@V?$_Tree_val@U?$_Tree_simple_types@U?$pair@$$CBV?$basic_string@DU?$char_traits@D@std@@V?$allocator@D@2@@std@@H@std@@@std@@@std@@@std@@_N@1@ABV?$basic_string@DU?$char_traits@D@std@@V?$allocator@D@2@@1@@Z 00424bc0 f i log4z.obj
 0001:00023c40       ??0?$_Deque_alloc@U?$_Deque_base_types@PAULogData@log4z@zsummer@@V?$allocator@PAULogData@log4z@zsummer@@@std@@@std@@@std@@QAE@XZ 00424c40 f i log4z.obj
 0001:00023cf0       ??0?$_Deque_const_iterator@V?$_Deque_val@U?$_Deque_simple_types@PAULogData@log4z@zsummer@@@std@@@std@@@std@@QAE@IPBU_Container_base12@1@@Z 00424cf0 f i log4z.obj
 0001:00023db0       ??0?$_Deque_iterator@V?$_Deque_val@U?$_Deque_simple_types@PAULogData@log4z@zsummer@@@std@@@std@@@std@@QAE@IPBU_Container_base12@1@@Z 00424db0 f i log4z.obj
 0001:00023e10       ??0?$_Deque_val@U?$_Deque_simple_types@PAULogData@log4z@zsummer@@@std@@@std@@QAE@XZ 00424e10 f i log4z.obj
 0001:00023ea0       ??0?$_Iterator012@Ubidirectional_iterator_tag@std@@U?$pair@$$CBV?$basic_string@DU?$char_traits@D@std@@V?$allocator@D@2@@std@@H@2@HPBU32@ABU32@U_Iterator_base12@2@@std@@QAE@$$QAU01@@Z 00424ea0 f i log4z.obj
 0001:00023f00       ??0?$_Iterator012@Ubidirectional_iterator_tag@std@@U?$pair@$$CBV?$basic_string@DU?$char_traits@D@std@@V?$allocator@D@2@@std@@H@2@HPBU32@ABU32@U_Iterator_base12@2@@std@@QAE@ABU01@@Z 00424f00 f i log4z.obj
 0001:00023f60       ??0?$_Iterator012@Ubidirectional_iterator_tag@std@@U?$pair@$$CBV?$basic_string@DU?$char_traits@D@std@@V?$allocator@D@2@@std@@H@2@HPBU32@ABU32@U_Iterator_base12@2@@std@@QAE@XZ 00424f60 f i log4z.obj
 0001:00023fc0       ??0?$_Iterator012@Ubidirectional_iterator_tag@std@@U?$pair@$$CBV?$basic_string@DU?$char_traits@D@std@@V?$allocator@D@2@@std@@ULoggerInfo@log4z@zsummer@@@2@HPBU32@ABU32@U_Iterator_base12@2@@std@@QAE@$$QAU01@@Z 00424fc0 f i log4z.obj
 0001:00024020       ??0?$_Iterator012@Ubidirectional_iterator_tag@std@@U?$pair@$$CBV?$basic_string@DU?$char_traits@D@std@@V?$allocator@D@2@@std@@ULoggerInfo@log4z@zsummer@@@2@HPBU32@ABU32@U_Iterator_base12@2@@std@@QAE@ABU01@@Z 00425020 f i log4z.obj
 0001:00024080       ??0?$_Iterator012@Ubidirectional_iterator_tag@std@@U?$pair@$$CBV?$basic_string@DU?$char_traits@D@std@@V?$allocator@D@2@@std@@ULoggerInfo@log4z@zsummer@@@2@HPBU32@ABU32@U_Iterator_base12@2@@std@@QAE@XZ 00425080 f i log4z.obj
 0001:000240e0       ??0?$_Iterator012@Ubidirectional_iterator_tag@std@@U?$pair@_JV?$basic_string@DU?$char_traits@D@std@@V?$allocator@D@2@@std@@@2@HPBU32@ABU32@U_Iterator_base12@2@@std@@QAE@$$QAU01@@Z 004250e0 f i log4z.obj
 0001:00024140       ??0?$_Iterator012@Ubidirectional_iterator_tag@std@@U?$pair@_JV?$basic_string@DU?$char_traits@D@std@@V?$allocator@D@2@@std@@@2@HPBU32@ABU32@U_Iterator_base12@2@@std@@QAE@ABU01@@Z 00425140 f i log4z.obj
 0001:000241a0       ??0?$_Iterator012@Ubidirectional_iterator_tag@std@@U?$pair@_JV?$basic_string@DU?$char_traits@D@std@@V?$allocator@D@2@@std@@@2@HPBU32@ABU32@U_Iterator_base12@2@@std@@QAE@XZ 004251a0 f i log4z.obj
 0001:00024200       ??0?$_Iterator012@Urandom_access_iterator_tag@std@@DHPBDABDU_Iterator_base12@2@@std@@QAE@$$QAU01@@Z 00425200 f i log4z.obj
 0001:00024260       ??0?$_Iterator012@Urandom_access_iterator_tag@std@@DHPBDABDU_Iterator_base12@2@@std@@QAE@ABU01@@Z 00425260 f i log4z.obj
 0001:000242c0       ??0?$_Iterator012@Urandom_access_iterator_tag@std@@DHPBDABDU_Iterator_base12@2@@std@@QAE@XZ 004252c0 f i log4z.obj
 0001:00024320       ??0?$_Iterator012@Urandom_access_iterator_tag@std@@PAULogData@log4z@zsummer@@HPBQAU345@ABQAU345@U_Iterator_base12@2@@std@@QAE@ABU01@@Z 00425320 f i log4z.obj
 0001:00024380       ??0?$_Iterator012@Urandom_access_iterator_tag@std@@PAULogData@log4z@zsummer@@HPBQAU345@ABQAU345@U_Iterator_base12@2@@std@@QAE@XZ 00425380 f i log4z.obj
 0001:000243e0       ??0?$_List_alloc@U?$_List_base_types@U?$pair@_JV?$basic_string@DU?$char_traits@D@std@@V?$allocator@D@2@@std@@@std@@V?$allocator@U?$pair@_JV?$basic_string@DU?$char_traits@D@std@@V?$allocator@D@2@@std@@@std@@@2@@std@@@std@@QAE@XZ 004253e0 f i log4z.obj
 0001:000244f0       ??0?$_List_buy@U?$pair@_JV?$basic_string@DU?$char_traits@D@std@@V?$allocator@D@2@@std@@@std@@V?$allocator@U?$pair@_JV?$basic_string@DU?$char_traits@D@std@@V?$allocator@D@2@@std@@@std@@@2@@std@@QAE@XZ 004254f0 f i log4z.obj
 0001:00024550       ??0?$_List_const_iterator@V?$_List_val@U?$_List_simple_types@U?$pair@_JV?$basic_string@DU?$char_traits@D@std@@V?$allocator@D@2@@std@@@std@@@std@@@std@@@std@@QAE@$$QAV01@@Z 00425550 f i log4z.obj
 0001:000245b0       ??0?$_List_const_iterator@V?$_List_val@U?$_List_simple_types@U?$pair@_JV?$basic_string@DU?$char_traits@D@std@@V?$allocator@D@2@@std@@@std@@@std@@@std@@@std@@QAE@ABV01@@Z 004255b0 f i log4z.obj
 0001:00024610       ??0?$_List_const_iterator@V?$_List_val@U?$_List_simple_types@U?$pair@_JV?$basic_string@DU?$char_traits@D@std@@V?$allocator@D@2@@std@@@std@@@std@@@std@@@std@@QAE@PAU?$_List_node@U?$pair@_JV?$basic_string@DU?$char_traits@D@std@@V?$allocator@D@2@@std@@@std@@PAX@1@PBV?$_List_val@U?$_List_simple_types@U?$pair@_JV?$basic_string@DU?$char_traits@D@std@@V?$allocator@D@2@@std@@@std@@@std@@@1@@Z 00425610 f i log4z.obj
 0001:00024670       ??0?$_List_iterator@V?$_List_val@U?$_List_simple_types@U?$pair@_JV?$basic_string@DU?$char_traits@D@std@@V?$allocator@D@2@@std@@@std@@@std@@@std@@@std@@QAE@ABV01@@Z 00425670 f i log4z.obj
 0001:000246d0       ??0?$_List_iterator@V?$_List_val@U?$_List_simple_types@U?$pair@_JV?$basic_string@DU?$char_traits@D@std@@V?$allocator@D@2@@std@@@std@@@std@@@std@@@std@@QAE@PAU?$_List_node@U?$pair@_JV?$basic_string@DU?$char_traits@D@std@@V?$allocator@D@2@@std@@@std@@PAX@1@PBV?$_List_val@U?$_List_simple_types@U?$pair@_JV?$basic_string@DU?$char_traits@D@std@@V?$allocator@D@2@@std@@@std@@@std@@@1@@Z 004256d0 f i log4z.obj
 0001:00024730       ??0?$_List_unchecked_const_iterator@V?$_List_val@U?$_List_simple_types@U?$pair@_JV?$basic_string@DU?$char_traits@D@std@@V?$allocator@D@2@@std@@@std@@@std@@@std@@U_Iterator_base0@2@@std@@QAE@PAU?$_List_node@U?$pair@_JV?$basic_string@DU?$char_traits@D@std@@V?$allocator@D@2@@std@@@std@@PAX@1@PBV?$_List_val@U?$_List_simple_types@U?$pair@_JV?$basic_string@DU?$char_traits@D@std@@V?$allocator@D@2@@std@@@std@@@std@@@1@@Z 00425730 f i log4z.obj
 0001:000247a0       ??0?$_List_unchecked_const_iterator@V?$_List_val@U?$_List_simple_types@U?$pair@_JV?$basic_string@DU?$char_traits@D@std@@V?$allocator@D@2@@std@@@std@@@std@@@std@@U_Iterator_base12@2@@std@@QAE@$$QAV01@@Z 004257a0 f i log4z.obj
 0001:00024810       ??0?$_List_unchecked_const_iterator@V?$_List_val@U?$_List_simple_types@U?$pair@_JV?$basic_string@DU?$char_traits@D@std@@V?$allocator@D@2@@std@@@std@@@std@@@std@@U_Iterator_base12@2@@std@@QAE@ABV01@@Z 00425810 f i log4z.obj
 0001:00024880       ??0?$_List_unchecked_const_iterator@V?$_List_val@U?$_List_simple_types@U?$pair@_JV?$basic_string@DU?$char_traits@D@std@@V?$allocator@D@2@@std@@@std@@@std@@@std@@U_Iterator_base12@2@@std@@QAE@PAU?$_List_node@U?$pair@_JV?$basic_string@DU?$char_traits@D@std@@V?$allocator@D@2@@std@@@std@@PAX@1@PBV?$_List_val@U?$_List_simple_types@U?$pair@_JV?$basic_string@DU?$char_traits@D@std@@V?$allocator@D@2@@std@@@std@@@std@@@1@@Z 00425880 f i log4z.obj
 0001:00024940       ??0?$_List_unchecked_iterator@V?$_List_val@U?$_List_simple_types@U?$pair@_JV?$basic_string@DU?$char_traits@D@std@@V?$allocator@D@2@@std@@@std@@@std@@@std@@@std@@QAE@PAU?$_List_node@U?$pair@_JV?$basic_string@DU?$char_traits@D@std@@V?$allocator@D@2@@std@@@std@@PAX@1@PBV?$_List_val@U?$_List_simple_types@U?$pair@_JV?$basic_string@DU?$char_traits@D@std@@V?$allocator@D@2@@std@@@std@@@std@@@1@@Z 00425940 f i log4z.obj
 0001:000249a0       ??0?$_List_val@U?$_List_simple_types@U?$pair@_JV?$basic_string@DU?$char_traits@D@std@@V?$allocator@D@2@@std@@@std@@@std@@@std@@QAE@XZ 004259a0 f i log4z.obj
 0001:00024a10       ??0?$_String_alloc@U?$_String_base_types@DV?$allocator@D@std@@@std@@@std@@QAE@XZ 00425a10 f i log4z.obj
 0001:00024ac0       ??0?$_String_const_iterator@V?$_String_val@U?$_Simple_types@D@std@@@std@@@std@@QAE@$$QAV01@@Z 00425ac0 f i log4z.obj
 0001:00024b30       ??0?$_String_const_iterator@V?$_String_val@U?$_Simple_types@D@std@@@std@@@std@@QAE@ABV01@@Z 00425b30 f i log4z.obj
 0001:00024ba0       ??0?$_String_const_iterator@V?$_String_val@U?$_Simple_types@D@std@@@std@@@std@@QAE@PBDPBU_Container_base12@1@@Z 00425ba0 f i log4z.obj
 0001:00024c60       ??0?$_String_iterator@V?$_String_val@U?$_Simple_types@D@std@@@std@@@std@@QAE@ABV01@@Z 00425c60 f i log4z.obj
 0001:00024cc0       ??0?$_String_iterator@V?$_String_val@U?$_Simple_types@D@std@@@std@@@std@@QAE@PADPBU_Container_base12@1@@Z 00425cc0 f i log4z.obj
 0001:00024d20       ??0?$_String_val@U?$_Simple_types@D@std@@@std@@QAE@XZ 00425d20 f i log4z.obj
 0001:00024de0       ??0?$_Tree@V?$_Tmap_traits@V?$basic_string@DU?$char_traits@D@std@@V?$allocator@D@2@@std@@HU?$less@V?$basic_string@DU?$char_traits@D@std@@V?$allocator@D@2@@std@@@2@V?$allocator@U?$pair@$$CBV?$basic_string@DU?$char_traits@D@std@@V?$allocator@D@2@@std@@H@std@@@2@$0A@@std@@@std@@QAE@ABU?$less@V?$basic_string@DU?$char_traits@D@std@@V?$allocator@D@2@@std@@@1@@Z 00425de0 f i log4z.obj
 0001:00024e40       ??0?$_Tree@V?$_Tmap_traits@V?$basic_string@DU?$char_traits@D@std@@V?$allocator@D@2@@std@@ULoggerInfo@log4z@zsummer@@U?$less@V?$basic_string@DU?$char_traits@D@std@@V?$allocator@D@2@@std@@@2@V?$allocator@U?$pair@$$CBV?$basic_string@DU?$char_traits@D@std@@V?$allocator@D@2@@std@@ULoggerInfo@log4z@zsummer@@@std@@@2@$0A@@std@@@std@@QAE@ABU?$less@V?$basic_string@DU?$char_traits@D@std@@V?$allocator@D@2@@std@@@1@@Z 00425e40 f i log4z.obj
 0001:00024ea0       ??0?$_Tree_comp_alloc@V?$_Tmap_traits@V?$basic_string@DU?$char_traits@D@std@@V?$allocator@D@2@@std@@HU?$less@V?$basic_string@DU?$char_traits@D@std@@V?$allocator@D@2@@std@@@2@V?$allocator@U?$pair@$$CBV?$basic_string@DU?$char_traits@D@std@@V?$allocator@D@2@@std@@H@std@@@2@$0A@@std@@@std@@QAE@ABU?$less@V?$basic_string@DU?$char_traits@D@std@@V?$allocator@D@2@@std@@@1@@Z 00425ea0 f i log4z.obj
 0001:00024f60       ??0?$_Tree_comp_alloc@V?$_Tmap_traits@V?$basic_string@DU?$char_traits@D@std@@V?$allocator@D@2@@std@@ULoggerInfo@log4z@zsummer@@U?$less@V?$basic_string@DU?$char_traits@D@std@@V?$allocator@D@2@@std@@@2@V?$allocator@U?$pair@$$CBV?$basic_string@DU?$char_traits@D@std@@V?$allocator@D@2@@std@@ULoggerInfo@log4z@zsummer@@@std@@@2@$0A@@std@@@std@@QAE@ABU?$less@V?$basic_string@DU?$char_traits@D@std@@V?$allocator@D@2@@std@@@1@@Z 00425f60 f i log4z.obj
 0001:00025020       ??0?$_Tree_const_iterator@V?$_Tree_val@U?$_Tree_simple_types@U?$pair@$$CBV?$basic_string@DU?$char_traits@D@std@@V?$allocator@D@2@@std@@H@std@@@std@@@std@@@std@@QAE@$$QAV01@@Z 00426020 f i log4z.obj
 0001:00025080       ??0?$_Tree_const_iterator@V?$_Tree_val@U?$_Tree_simple_types@U?$pair@$$CBV?$basic_string@DU?$char_traits@D@std@@V?$allocator@D@2@@std@@H@std@@@std@@@std@@@std@@QAE@ABV01@@Z 00426080 f i log4z.obj
 0001:000250e0       ??0?$_Tree_const_iterator@V?$_Tree_val@U?$_Tree_simple_types@U?$pair@$$CBV?$basic_string@DU?$char_traits@D@std@@V?$allocator@D@2@@std@@H@std@@@std@@@std@@@std@@QAE@PAU?$_Tree_node@U?$pair@$$CBV?$basic_string@DU?$char_traits@D@std@@V?$allocator@D@2@@std@@H@std@@PAX@1@PBV?$_Tree_val@U?$_Tree_simple_types@U?$pair@$$CBV?$basic_string@DU?$char_traits@D@std@@V?$allocator@D@2@@std@@H@std@@@std@@@1@@Z 004260e0 f i log4z.obj
 0001:00025140       ??0?$_Tree_const_iterator@V?$_Tree_val@U?$_Tree_simple_types@U?$pair@$$CBV?$basic_string@DU?$char_traits@D@std@@V?$allocator@D@2@@std@@H@std@@@std@@@std@@@std@@QAE@XZ 00426140 f i log4z.obj
 0001:000251a0       ??0?$_Tree_const_iterator@V?$_Tree_val@U?$_Tree_simple_types@U?$pair@$$CBV?$basic_string@DU?$char_traits@D@std@@V?$allocator@D@2@@std@@ULoggerInfo@log4z@zsummer@@@std@@@std@@@std@@@std@@QAE@$$QAV01@@Z 004261a0 f i log4z.obj
 0001:00025200       ??0?$_Tree_const_iterator@V?$_Tree_val@U?$_Tree_simple_types@U?$pair@$$CBV?$basic_string@DU?$char_traits@D@std@@V?$allocator@D@2@@std@@ULoggerInfo@log4z@zsummer@@@std@@@std@@@std@@@std@@QAE@ABV01@@Z 00426200 f i log4z.obj
 0001:00025260       ??0?$_Tree_const_iterator@V?$_Tree_val@U?$_Tree_simple_types@U?$pair@$$CBV?$basic_string@DU?$char_traits@D@std@@V?$allocator@D@2@@std@@ULoggerInfo@log4z@zsummer@@@std@@@std@@@std@@@std@@QAE@PAU?$_Tree_node@U?$pair@$$CBV?$basic_string@DU?$char_traits@D@std@@V?$allocator@D@2@@std@@ULoggerInfo@log4z@zsummer@@@std@@PAX@1@PBV?$_Tree_val@U?$_Tree_simple_types@U?$pair@$$CBV?$basic_string@DU?$char_traits@D@std@@V?$allocator@D@2@@std@@ULoggerInfo@log4z@zsummer@@@std@@@std@@@1@@Z 00426260 f i log4z.obj
 0001:000252c0       ??0?$_Tree_iterator@V?$_Tree_val@U?$_Tree_simple_types@U?$pair@$$CBV?$basic_string@DU?$char_traits@D@std@@V?$allocator@D@2@@std@@H@std@@@std@@@std@@@std@@QAE@$$QAV01@@Z 004262c0 f i log4z.obj
 0001:00025320       ??0?$_Tree_iterator@V?$_Tree_val@U?$_Tree_simple_types@U?$pair@$$CBV?$basic_string@DU?$char_traits@D@std@@V?$allocator@D@2@@std@@H@std@@@std@@@std@@@std@@QAE@ABV01@@Z 00426320 f i log4z.obj
 0001:00025380       ??0?$_Tree_iterator@V?$_Tree_val@U?$_Tree_simple_types@U?$pair@$$CBV?$basic_string@DU?$char_traits@D@std@@V?$allocator@D@2@@std@@H@std@@@std@@@std@@@std@@QAE@PAU?$_Tree_node@U?$pair@$$CBV?$basic_string@DU?$char_traits@D@std@@V?$allocator@D@2@@std@@H@std@@PAX@1@PBV?$_Tree_val@U?$_Tree_simple_types@U?$pair@$$CBV?$basic_string@DU?$char_traits@D@std@@V?$allocator@D@2@@std@@H@std@@@std@@@1@@Z 00426380 f i log4z.obj
 0001:000253e0       ??0?$_Tree_iterator@V?$_Tree_val@U?$_Tree_simple_types@U?$pair@$$CBV?$basic_string@DU?$char_traits@D@std@@V?$allocator@D@2@@std@@H@std@@@std@@@std@@@std@@QAE@XZ 004263e0 f i log4z.obj
 0001:00025440       ??0?$_Tree_iterator@V?$_Tree_val@U?$_Tree_simple_types@U?$pair@$$CBV?$basic_string@DU?$char_traits@D@std@@V?$allocator@D@2@@std@@ULoggerInfo@log4z@zsummer@@@std@@@std@@@std@@@std@@QAE@$$QAV01@@Z 00426440 f i log4z.obj
 0001:000254a0       ??0?$_Tree_iterator@V?$_Tree_val@U?$_Tree_simple_types@U?$pair@$$CBV?$basic_string@DU?$char_traits@D@std@@V?$allocator@D@2@@std@@ULoggerInfo@log4z@zsummer@@@std@@@std@@@std@@@std@@QAE@ABV01@@Z 004264a0 f i log4z.obj
 0001:00025500       ??0?$_Tree_iterator@V?$_Tree_val@U?$_Tree_simple_types@U?$pair@$$CBV?$basic_string@DU?$char_traits@D@std@@V?$allocator@D@2@@std@@ULoggerInfo@log4z@zsummer@@@std@@@std@@@std@@@std@@QAE@PAU?$_Tree_node@U?$pair@$$CBV?$basic_string@DU?$char_traits@D@std@@V?$allocator@D@2@@std@@ULoggerInfo@log4z@zsummer@@@std@@PAX@1@PBV?$_Tree_val@U?$_Tree_simple_types@U?$pair@$$CBV?$basic_string@DU?$char_traits@D@std@@V?$allocator@D@2@@std@@ULoggerInfo@log4z@zsummer@@@std@@@std@@@1@@Z 00426500 f i log4z.obj
 0001:00025560       ??0?$_Tree_unchecked_const_iterator@V?$_Tree_val@U?$_Tree_simple_types@U?$pair@$$CBV?$basic_string@DU?$char_traits@D@std@@V?$allocator@D@2@@std@@H@std@@@std@@@std@@U_Iterator_base12@2@@std@@QAE@$$QAV01@@Z 00426560 f i log4z.obj
 0001:000255d0       ??0?$_Tree_unchecked_const_iterator@V?$_Tree_val@U?$_Tree_simple_types@U?$pair@$$CBV?$basic_string@DU?$char_traits@D@std@@V?$allocator@D@2@@std@@H@std@@@std@@@std@@U_Iterator_base12@2@@std@@QAE@ABV01@@Z 004265d0 f i log4z.obj
 0001:00025640       ??0?$_Tree_unchecked_const_iterator@V?$_Tree_val@U?$_Tree_simple_types@U?$pair@$$CBV?$basic_string@DU?$char_traits@D@std@@V?$allocator@D@2@@std@@H@std@@@std@@@std@@U_Iterator_base12@2@@std@@QAE@PAU?$_Tree_node@U?$pair@$$CBV?$basic_string@DU?$char_traits@D@std@@V?$allocator@D@2@@std@@H@std@@PAX@1@PBV?$_Tree_val@U?$_Tree_simple_types@U?$pair@$$CBV?$basic_string@DU?$char_traits@D@std@@V?$allocator@D@2@@std@@H@std@@@std@@@1@@Z 00426640 f i log4z.obj
 0001:00025700       ??0?$_Tree_unchecked_const_iterator@V?$_Tree_val@U?$_Tree_simple_types@U?$pair@$$CBV?$basic_string@DU?$char_traits@D@std@@V?$allocator@D@2@@std@@H@std@@@std@@@std@@U_Iterator_base12@2@@std@@QAE@XZ 00426700 f i log4z.obj
 0001:00025760       ??0?$_Tree_unchecked_const_iterator@V?$_Tree_val@U?$_Tree_simple_types@U?$pair@$$CBV?$basic_string@DU?$char_traits@D@std@@V?$allocator@D@2@@std@@ULoggerInfo@log4z@zsummer@@@std@@@std@@@std@@U_Iterator_base12@2@@std@@QAE@$$QAV01@@Z 00426760 f i log4z.obj
 0001:000257d0       ??0?$_Tree_unchecked_const_iterator@V?$_Tree_val@U?$_Tree_simple_types@U?$pair@$$CBV?$basic_string@DU?$char_traits@D@std@@V?$allocator@D@2@@std@@ULoggerInfo@log4z@zsummer@@@std@@@std@@@std@@U_Iterator_base12@2@@std@@QAE@ABV01@@Z 004267d0 f i log4z.obj
 0001:00025840       ??0?$_Tree_unchecked_const_iterator@V?$_Tree_val@U?$_Tree_simple_types@U?$pair@$$CBV?$basic_string@DU?$char_traits@D@std@@V?$allocator@D@2@@std@@ULoggerInfo@log4z@zsummer@@@std@@@std@@@std@@U_Iterator_base12@2@@std@@QAE@PAU?$_Tree_node@U?$pair@$$CBV?$basic_string@DU?$char_traits@D@std@@V?$allocator@D@2@@std@@ULoggerInfo@log4z@zsummer@@@std@@PAX@1@PBV?$_Tree_val@U?$_Tree_simple_types@U?$pair@$$CBV?$basic_string@DU?$char_traits@D@std@@V?$allocator@D@2@@std@@ULoggerInfo@log4z@zsummer@@@std@@@std@@@1@@Z 00426840 f i log4z.obj
 0001:00025900       ??0?$_Tree_val@U?$_Tree_simple_types@U?$pair@$$CBV?$basic_string@DU?$char_traits@D@std@@V?$allocator@D@2@@std@@H@std@@@std@@@std@@QAE@XZ 00426900 f i log4z.obj
 0001:00025970       ??0?$_Tree_val@U?$_Tree_simple_types@U?$pair@$$CBV?$basic_string@DU?$char_traits@D@std@@V?$allocator@D@2@@std@@ULoggerInfo@log4z@zsummer@@@std@@@std@@@std@@QAE@XZ 00426970 f i log4z.obj
 0001:000259e0       ??0?$_Vector_alloc@U?$_Vec_base_types@PAULogData@log4z@zsummer@@V?$allocator@PAULogData@log4z@zsummer@@@std@@@std@@@std@@QAE@XZ 004269e0 f i log4z.obj
 0001:00025a90       ??0?$_Vector_const_iterator@V?$_Vector_val@U?$_Simple_types@PAULogData@log4z@zsummer@@@std@@@std@@@std@@QAE@ABV01@@Z 00426a90 f i log4z.obj
 0001:00025b00       ??0?$_Vector_const_iterator@V?$_Vector_val@U?$_Simple_types@PAULogData@log4z@zsummer@@@std@@@std@@@std@@QAE@PAPAULogData@log4z@zsummer@@PBU_Container_base12@1@@Z 00426b00 f i log4z.obj
 0001:00025bc0       ??0?$_Vector_iterator@V?$_Vector_val@U?$_Simple_types@PAULogData@log4z@zsummer@@@std@@@std@@@std@@QAE@ABV01@@Z 00426bc0 f i log4z.obj
 0001:00025c20       ??0?$_Vector_iterator@V?$_Vector_val@U?$_Simple_types@PAULogData@log4z@zsummer@@@std@@@std@@@std@@QAE@PAPAULogData@log4z@zsummer@@PBU_Container_base12@1@@Z 00426c20 f i log4z.obj
 0001:00025c80       ??0?$_Vector_val@U?$_Simple_types@PAULogData@log4z@zsummer@@@std@@@std@@QAE@XZ 00426c80 f i log4z.obj
 0001:00025d00       ??0?$_Wrap_alloc@V?$allocator@D@std@@@std@@QAE@$$QAU01@@Z 00426d00 f i log4z.obj
 0001:00025d70       ??0?$_Wrap_alloc@V?$allocator@D@std@@@std@@QAE@XZ 00426d70 f i log4z.obj
 0001:00025dd0       ??0?$_Wrap_alloc@V?$allocator@PAULogData@log4z@zsummer@@@std@@@std@@QAE@XZ 00426dd0 f i log4z.obj
 0001:00025e30       ??0?$_Wrap_alloc@V?$allocator@U?$_List_node@U?$pair@_JV?$basic_string@DU?$char_traits@D@std@@V?$allocator@D@2@@std@@@std@@PAX@std@@@std@@@std@@QAE@$$QAU01@@Z 00426e30 f i log4z.obj
 0001:00025ea0       ??0?$_Wrap_alloc@V?$allocator@U?$_List_node@U?$pair@_JV?$basic_string@DU?$char_traits@D@std@@V?$allocator@D@2@@std@@@std@@PAX@std@@@std@@@std@@QAE@XZ 00426ea0 f i log4z.obj
 0001:00025f00       ??0?$_Wrap_alloc@V?$allocator@U?$_Tree_node@U?$pair@$$CBV?$basic_string@DU?$char_traits@D@std@@V?$allocator@D@2@@std@@H@std@@PAX@std@@@std@@@std@@QAE@XZ 00426f00 f i log4z.obj
 0001:00025f60       ??0?$_Wrap_alloc@V?$allocator@U?$_Tree_node@U?$pair@$$CBV?$basic_string@DU?$char_traits@D@std@@V?$allocator@D@2@@std@@ULoggerInfo@log4z@zsummer@@@std@@PAX@std@@@std@@@std@@QAE@XZ 00426f60 f i log4z.obj
 0001:00025fc0       ??0?$allocator@D@std@@QAE@ABV01@@Z 00426fc0 f i log4z.obj
 0001:00026000       ??0?$allocator@D@std@@QAE@XZ 00427000 f i log4z.obj
 0001:00026040       ??0?$allocator@PAULogData@log4z@zsummer@@@std@@QAE@XZ 00427040 f i log4z.obj
 0001:00026080       ??0?$allocator@U?$_List_node@U?$pair@_JV?$basic_string@DU?$char_traits@D@std@@V?$allocator@D@2@@std@@@std@@PAX@std@@@std@@QAE@ABV01@@Z 00427080 f i log4z.obj
 0001:000260c0       ??0?$allocator@U?$_List_node@U?$pair@_JV?$basic_string@DU?$char_traits@D@std@@V?$allocator@D@2@@std@@@std@@PAX@std@@@std@@QAE@XZ 004270c0 f i log4z.obj
 0001:00026100       ??0?$allocator@U?$_Tree_node@U?$pair@$$CBV?$basic_string@DU?$char_traits@D@std@@V?$allocator@D@2@@std@@H@std@@PAX@std@@@std@@QAE@XZ 00427100 f i log4z.obj
 0001:00026140       ??0?$allocator@U?$_Tree_node@U?$pair@$$CBV?$basic_string@DU?$char_traits@D@std@@V?$allocator@D@2@@std@@ULoggerInfo@log4z@zsummer@@@std@@PAX@std@@@std@@QAE@XZ 00427140 f i log4z.obj
 0001:00026180       ??0?$basic_string@DU?$char_traits@D@std@@V?$allocator@D@2@@std@@QAE@$$QAV01@@Z 00427180 f i log4z.obj
 0001:00026250       ??0?$basic_string@DU?$char_traits@D@std@@V?$allocator@D@2@@std@@QAE@ABV01@@Z 00427250 f i log4z.obj
 0001:00026340       ??0?$basic_string@DU?$char_traits@D@std@@V?$allocator@D@2@@std@@QAE@ABV01@IIABV?$allocator@D@1@@Z 00427340 f i log4z.obj
 0001:00026410       ??0?$basic_string@DU?$char_traits@D@std@@V?$allocator@D@2@@std@@QAE@PBD@Z 00427410 f i log4z.obj
 0001:000264d0       ??0?$basic_string@DU?$char_traits@D@std@@V?$allocator@D@2@@std@@QAE@PBDI@Z 004274d0 f i log4z.obj
 0001:00026590       ??0?$basic_string@DU?$char_traits@D@std@@V?$allocator@D@2@@std@@QAE@XZ 00427590 f i log4z.obj
 0001:00026630       ??0?$deque@PAULogData@log4z@zsummer@@V?$allocator@PAULogData@log4z@zsummer@@@std@@@std@@QAE@XZ 00427630 f i log4z.obj
 0001:00026690       ??0?$list@U?$pair@_JV?$basic_string@DU?$char_traits@D@std@@V?$allocator@D@2@@std@@@std@@V?$allocator@U?$pair@_JV?$basic_string@DU?$char_traits@D@std@@V?$allocator@D@2@@std@@@std@@@2@@std@@QAE@$$QAV01@@Z 00427690 f i log4z.obj
 0001:00026760       ??0?$list@U?$pair@_JV?$basic_string@DU?$char_traits@D@std@@V?$allocator@D@2@@std@@@std@@V?$allocator@U?$pair@_JV?$basic_string@DU?$char_traits@D@std@@V?$allocator@D@2@@std@@@std@@@2@@std@@QAE@ABV01@@Z 00427760 f i log4z.obj
 0001:00026960       ??0?$list@U?$pair@_JV?$basic_string@DU?$char_traits@D@std@@V?$allocator@D@2@@std@@@std@@V?$allocator@U?$pair@_JV?$basic_string@DU?$char_traits@D@std@@V?$allocator@D@2@@std@@@std@@@2@@std@@QAE@XZ 00427960 f i log4z.obj
 0001:000269c0       ??0?$map@V?$basic_string@DU?$char_traits@D@std@@V?$allocator@D@2@@std@@HU?$less@V?$basic_string@DU?$char_traits@D@std@@V?$allocator@D@2@@std@@@2@V?$allocator@U?$pair@$$CBV?$basic_string@DU?$char_traits@D@std@@V?$allocator@D@2@@std@@H@std@@@2@@std@@QAE@XZ 004279c0 f i log4z.obj
 0001:00026a20       ??0?$map@V?$basic_string@DU?$char_traits@D@std@@V?$allocator@D@2@@std@@ULoggerInfo@log4z@zsummer@@U?$less@V?$basic_string@DU?$char_traits@D@std@@V?$allocator@D@2@@std@@@2@V?$allocator@U?$pair@$$CBV?$basic_string@DU?$char_traits@D@std@@V?$allocator@D@2@@std@@ULoggerInfo@log4z@zsummer@@@std@@@2@@std@@QAE@XZ 00427a20 f i log4z.obj
 0001:00026a80       ??0?$pair@_JV?$basic_string@DU?$char_traits@D@std@@V?$allocator@D@2@@std@@@std@@QAE@$$QAU01@@Z 00427a80 f i log4z.obj
 0001:00026b00       ??0?$pair@_JV?$basic_string@DU?$char_traits@D@std@@V?$allocator@D@2@@std@@@std@@QAE@ABU01@@Z 00427b00 f i log4z.obj
 0001:00026b80       ??0?$tuple@$$QAV?$basic_string@DU?$char_traits@D@std@@V?$allocator@D@2@@std@@@std@@QAE@$$QAV01@@Z 00427b80 f i log4z.obj
 0001:00026bf0       ??0?$tuple@$$V@std@@QAE@ABV01@@Z 00427bf0 f i log4z.obj
 0001:00026c30       ??0?$tuple@$$V@std@@QAE@XZ 00427c30 f i log4z.obj
 0001:00026c70       ??0?$tuple@ABV?$basic_string@DU?$char_traits@D@std@@V?$allocator@D@2@@std@@@std@@QAE@$$QAV01@@Z 00427c70 f i log4z.obj
 0001:00026ce0       ??0?$vector@PAULogData@log4z@zsummer@@V?$allocator@PAULogData@log4z@zsummer@@@std@@@std@@QAE@XZ 00427ce0 f i log4z.obj
 0001:00026d70       ??0AutoLock@log4z@zsummer@@QAE@AAVLockHelper@12@@Z 00427d70 f i log4z.obj
 0001:00026de0       ??0ILog4zManager@log4z@zsummer@@QAE@XZ 00427de0 f i log4z.obj
 0001:00026e30       ??0LockHelper@log4z@zsummer@@QAE@XZ 00427e30 f   log4z.obj
 0001:00026ea0       ??0Log4zFileHandler@log4z@zsummer@@QAE@XZ 00427ea0 f i log4z.obj
 0001:00026ef0       ??0LogerManager@log4z@zsummer@@QAE@XZ 00427ef0 f   log4z.obj
 0001:00027300       ??0LoggerInfo@log4z@zsummer@@QAE@$$QAU012@@Z 00428300 f i log4z.obj
 0001:000274f0       ??0LoggerInfo@log4z@zsummer@@QAE@ABU012@@Z 004284f0 f i log4z.obj
 0001:000276e0       ??0LoggerInfo@log4z@zsummer@@QAE@XZ 004286e0 f i log4z.obj
 0001:00027890       ??0SemHelper@log4z@zsummer@@QAE@XZ 00428890 f   log4z.obj
 0001:000278e0       ??0ThreadHelper@log4z@zsummer@@QAE@XZ 004288e0 f i log4z.obj
 0001:00027940       ??0_Bxty@?$_String_val@U?$_Simple_types@D@std@@@std@@QAE@XZ 00428940 f i log4z.obj
 0001:00027980       ??0_Container_base12@std@@QAE@XZ 00428980 f i log4z.obj
 0001:000279d0       ??0_Container_proxy@std@@QAE@XZ 004289d0 f i log4z.obj
 0001:00027a20       ??0_Iterator_base12@std@@QAE@ABU01@@Z 00428a20 f i log4z.obj
 0001:00027aa0       ??0_Iterator_base12@std@@QAE@XZ 00428aa0 f i log4z.obj
 0001:00027af0       ??1?$_Compressed_pair@U?$_Wrap_alloc@V?$allocator@PAULogData@log4z@zsummer@@@std@@@std@@V?$_Deque_val@U?$_Deque_simple_types@PAULogData@log4z@zsummer@@@std@@@2@$00@std@@QAE@XZ 00428af0 f i log4z.obj
 0001:00027b40       ??1?$_Compressed_pair@U?$_Wrap_alloc@V?$allocator@PAULogData@log4z@zsummer@@@std@@@std@@V?$_Vector_val@U?$_Simple_types@PAULogData@log4z@zsummer@@@std@@@2@$00@std@@QAE@XZ 00428b40 f i log4z.obj
 0001:00027b90       ??1?$_Compressed_pair@U?$_Wrap_alloc@V?$allocator@U?$_List_node@U?$pair@_JV?$basic_string@DU?$char_traits@D@std@@V?$allocator@D@2@@std@@@std@@PAX@std@@@std@@@std@@V?$_List_val@U?$_List_simple_types@U?$pair@_JV?$basic_string@DU?$char_traits@D@std@@V?$allocator@D@2@@std@@@std@@@std@@@2@$00@std@@QAE@XZ 00428b90 f i log4z.obj
 0001:00027be0       ??1?$_Compressed_pair@U?$_Wrap_alloc@V?$allocator@U?$_Tree_node@U?$pair@$$CBV?$basic_string@DU?$char_traits@D@std@@V?$allocator@D@2@@std@@H@std@@PAX@std@@@std@@@std@@V?$_Tree_val@U?$_Tree_simple_types@U?$pair@$$CBV?$basic_string@DU?$char_traits@D@std@@V?$allocator@D@2@@std@@H@std@@@std@@@2@$00@std@@QAE@XZ 00428be0 f i log4z.obj
 0001:00027c30       ??1?$_Compressed_pair@U?$_Wrap_alloc@V?$allocator@U?$_Tree_node@U?$pair@$$CBV?$basic_string@DU?$char_traits@D@std@@V?$allocator@D@2@@std@@ULoggerInfo@log4z@zsummer@@@std@@PAX@std@@@std@@@std@@V?$_Tree_val@U?$_Tree_simple_types@U?$pair@$$CBV?$basic_string@DU?$char_traits@D@std@@V?$allocator@D@2@@std@@ULoggerInfo@log4z@zsummer@@@std@@@std@@@2@$00@std@@QAE@XZ 00428c30 f i log4z.obj
 0001:00027c80       ??1?$_Compressed_pair@U?$less@V?$basic_string@DU?$char_traits@D@std@@V?$allocator@D@2@@std@@@std@@V?$_Compressed_pair@U?$_Wrap_alloc@V?$allocator@U?$_Tree_node@U?$pair@$$CBV?$basic_string@DU?$char_traits@D@std@@V?$allocator@D@2@@std@@H@std@@PAX@std@@@std@@@std@@V?$_Tree_val@U?$_Tree_simple_types@U?$pair@$$CBV?$basic_string@DU?$char_traits@D@std@@V?$allocator@D@2@@std@@H@std@@@std@@@2@$00@2@$00@std@@QAE@XZ 00428c80 f i log4z.obj
 0001:00027cd0       ??1?$_Compressed_pair@U?$less@V?$basic_string@DU?$char_traits@D@std@@V?$allocator@D@2@@std@@@std@@V?$_Compressed_pair@U?$_Wrap_alloc@V?$allocator@U?$_Tree_node@U?$pair@$$CBV?$basic_string@DU?$char_traits@D@std@@V?$allocator@D@2@@std@@ULoggerInfo@log4z@zsummer@@@std@@PAX@std@@@std@@@std@@V?$_Tree_val@U?$_Tree_simple_types@U?$pair@$$CBV?$basic_string@DU?$char_traits@D@std@@V?$allocator@D@2@@std@@ULoggerInfo@log4z@zsummer@@@std@@@std@@@2@$00@2@$00@std@@QAE@XZ 00428cd0 f i log4z.obj
 0001:00027d20       ??1?$_Deque_alloc@U?$_Deque_base_types@PAULogData@log4z@zsummer@@V?$allocator@PAULogData@log4z@zsummer@@@std@@@std@@@std@@QAE@XZ 00428d20 f i log4z.obj
 0001:00027db0       ??1?$_Deque_const_iterator@V?$_Deque_val@U?$_Deque_simple_types@PAULogData@log4z@zsummer@@@std@@@std@@@std@@QAE@XZ 00428db0 f i log4z.obj
 0001:00027e00       ??1?$_Deque_iterator@V?$_Deque_val@U?$_Deque_simple_types@PAULogData@log4z@zsummer@@@std@@@std@@@std@@QAE@XZ 00428e00 f i log4z.obj
 0001:00027e50       ??1?$_Deque_val@U?$_Deque_simple_types@PAULogData@log4z@zsummer@@@std@@@std@@QAE@XZ 00428e50 f i log4z.obj
 0001:00027ea0       ??1?$_Iterator012@Ubidirectional_iterator_tag@std@@U?$pair@$$CBV?$basic_string@DU?$char_traits@D@std@@V?$allocator@D@2@@std@@H@2@HPBU32@ABU32@U_Iterator_base12@2@@std@@QAE@XZ 00428ea0 f i log4z.obj
 0001:00027ef0       ??1?$_Iterator012@Ubidirectional_iterator_tag@std@@U?$pair@$$CBV?$basic_string@DU?$char_traits@D@std@@V?$allocator@D@2@@std@@ULoggerInfo@log4z@zsummer@@@2@HPBU32@ABU32@U_Iterator_base12@2@@std@@QAE@XZ 00428ef0 f i log4z.obj
 0001:00027f40       ??1?$_Iterator012@Ubidirectional_iterator_tag@std@@U?$pair@_JV?$basic_string@DU?$char_traits@D@std@@V?$allocator@D@2@@std@@@2@HPBU32@ABU32@U_Iterator_base12@2@@std@@QAE@XZ 00428f40 f i log4z.obj
 0001:00027f90       ??1?$_Iterator012@Urandom_access_iterator_tag@std@@DHPBDABDU_Iterator_base12@2@@std@@QAE@XZ 00428f90 f i log4z.obj
 0001:00027fe0       ??1?$_Iterator012@Urandom_access_iterator_tag@std@@PAULogData@log4z@zsummer@@HPBQAU345@ABQAU345@U_Iterator_base12@2@@std@@QAE@XZ 00428fe0 f i log4z.obj
 0001:00028030       ??1?$_List_alloc@U?$_List_base_types@U?$pair@_JV?$basic_string@DU?$char_traits@D@std@@V?$allocator@D@2@@std@@@std@@V?$allocator@U?$pair@_JV?$basic_string@DU?$char_traits@D@std@@V?$allocator@D@2@@std@@@std@@@2@@std@@@std@@QAE@XZ 00429030 f i log4z.obj
 0001:000280e0       ??1?$_List_buy@U?$pair@_JV?$basic_string@DU?$char_traits@D@std@@V?$allocator@D@2@@std@@@std@@V?$allocator@U?$pair@_JV?$basic_string@DU?$char_traits@D@std@@V?$allocator@D@2@@std@@@std@@@2@@std@@QAE@XZ 004290e0 f i log4z.obj
 0001:00028130       ??1?$_List_const_iterator@V?$_List_val@U?$_List_simple_types@U?$pair@_JV?$basic_string@DU?$char_traits@D@std@@V?$allocator@D@2@@std@@@std@@@std@@@std@@@std@@QAE@XZ 00429130 f i log4z.obj
 0001:00028180       ??1?$_List_iterator@V?$_List_val@U?$_List_simple_types@U?$pair@_JV?$basic_string@DU?$char_traits@D@std@@V?$allocator@D@2@@std@@@std@@@std@@@std@@@std@@QAE@XZ 00429180 f i log4z.obj
 0001:000281d0       ??1?$_List_unchecked_const_iterator@V?$_List_val@U?$_List_simple_types@U?$pair@_JV?$basic_string@DU?$char_traits@D@std@@V?$allocator@D@2@@std@@@std@@@std@@@std@@U_Iterator_base12@2@@std@@QAE@XZ 004291d0 f i log4z.obj
 0001:00028220       ??1?$_List_val@U?$_List_simple_types@U?$pair@_JV?$basic_string@DU?$char_traits@D@std@@V?$allocator@D@2@@std@@@std@@@std@@@std@@QAE@XZ 00429220 f i log4z.obj
 0001:00028270       ??1?$_String_const_iterator@V?$_String_val@U?$_Simple_types@D@std@@@std@@@std@@QAE@XZ 00429270 f i log4z.obj
 0001:000282c0       ??1?$_String_iterator@V?$_String_val@U?$_Simple_types@D@std@@@std@@@std@@QAE@XZ 004292c0 f i log4z.obj
 0001:00028310       ??1?$_Tree@V?$_Tmap_traits@V?$basic_string@DU?$char_traits@D@std@@V?$allocator@D@2@@std@@HU?$less@V?$basic_string@DU?$char_traits@D@std@@V?$allocator@D@2@@std@@@2@V?$allocator@U?$pair@$$CBV?$basic_string@DU?$char_traits@D@std@@V?$allocator@D@2@@std@@H@std@@@2@$0A@@std@@@std@@QAE@XZ 00429310 f i log4z.obj
 0001:000283a0       ??1?$_Tree@V?$_Tmap_traits@V?$basic_string@DU?$char_traits@D@std@@V?$allocator@D@2@@std@@ULoggerInfo@log4z@zsummer@@U?$less@V?$basic_string@DU?$char_traits@D@std@@V?$allocator@D@2@@std@@@2@V?$allocator@U?$pair@$$CBV?$basic_string@DU?$char_traits@D@std@@V?$allocator@D@2@@std@@ULoggerInfo@log4z@zsummer@@@std@@@2@$0A@@std@@@std@@QAE@XZ 004293a0 f i log4z.obj
 0001:00028430       ??1?$_Tree_comp_alloc@V?$_Tmap_traits@V?$basic_string@DU?$char_traits@D@std@@V?$allocator@D@2@@std@@HU?$less@V?$basic_string@DU?$char_traits@D@std@@V?$allocator@D@2@@std@@@2@V?$allocator@U?$pair@$$CBV?$basic_string@DU?$char_traits@D@std@@V?$allocator@D@2@@std@@H@std@@@2@$0A@@std@@@std@@QAE@XZ 00429430 f i log4z.obj
 0001:000284e0       ??1?$_Tree_comp_alloc@V?$_Tmap_traits@V?$basic_string@DU?$char_traits@D@std@@V?$allocator@D@2@@std@@ULoggerInfo@log4z@zsummer@@U?$less@V?$basic_string@DU?$char_traits@D@std@@V?$allocator@D@2@@std@@@2@V?$allocator@U?$pair@$$CBV?$basic_string@DU?$char_traits@D@std@@V?$allocator@D@2@@std@@ULoggerInfo@log4z@zsummer@@@std@@@2@$0A@@std@@@std@@QAE@XZ 004294e0 f i log4z.obj
 0001:00028590       ??1?$_Tree_const_iterator@V?$_Tree_val@U?$_Tree_simple_types@U?$pair@$$CBV?$basic_string@DU?$char_traits@D@std@@V?$allocator@D@2@@std@@H@std@@@std@@@std@@@std@@QAE@XZ 00429590 f i log4z.obj
 0001:000285e0       ??1?$_Tree_const_iterator@V?$_Tree_val@U?$_Tree_simple_types@U?$pair@$$CBV?$basic_string@DU?$char_traits@D@std@@V?$allocator@D@2@@std@@ULoggerInfo@log4z@zsummer@@@std@@@std@@@std@@@std@@QAE@XZ 004295e0 f i log4z.obj
 0001:00028630       ??1?$_Tree_iterator@V?$_Tree_val@U?$_Tree_simple_types@U?$pair@$$CBV?$basic_string@DU?$char_traits@D@std@@V?$allocator@D@2@@std@@H@std@@@std@@@std@@@std@@QAE@XZ 00429630 f i log4z.obj
 0001:00028680       ??1?$_Tree_iterator@V?$_Tree_val@U?$_Tree_simple_types@U?$pair@$$CBV?$basic_string@DU?$char_traits@D@std@@V?$allocator@D@2@@std@@ULoggerInfo@log4z@zsummer@@@std@@@std@@@std@@@std@@QAE@XZ 00429680 f i log4z.obj
 0001:000286d0       ??1?$_Tree_unchecked_const_iterator@V?$_Tree_val@U?$_Tree_simple_types@U?$pair@$$CBV?$basic_string@DU?$char_traits@D@std@@V?$allocator@D@2@@std@@H@std@@@std@@@std@@U_Iterator_base12@2@@std@@QAE@XZ 004296d0 f i log4z.obj
 0001:00028720       ??1?$_Tree_unchecked_const_iterator@V?$_Tree_val@U?$_Tree_simple_types@U?$pair@$$CBV?$basic_string@DU?$char_traits@D@std@@V?$allocator@D@2@@std@@ULoggerInfo@log4z@zsummer@@@std@@@std@@@std@@U_Iterator_base12@2@@std@@QAE@XZ 00429720 f i log4z.obj
 0001:00028770       ??1?$_Tree_val@U?$_Tree_simple_types@U?$pair@$$CBV?$basic_string@DU?$char_traits@D@std@@V?$allocator@D@2@@std@@H@std@@@std@@@std@@QAE@XZ 00429770 f i log4z.obj
 0001:000287c0       ??1?$_Tree_val@U?$_Tree_simple_types@U?$pair@$$CBV?$basic_string@DU?$char_traits@D@std@@V?$allocator@D@2@@std@@ULoggerInfo@log4z@zsummer@@@std@@@std@@@std@@QAE@XZ 004297c0 f i log4z.obj
 0001:00028810       ??1?$_Vector_alloc@U?$_Vec_base_types@PAULogData@log4z@zsummer@@V?$allocator@PAULogData@log4z@zsummer@@@std@@@std@@@std@@QAE@XZ 00429810 f i log4z.obj
 0001:000288a0       ??1?$_Vector_const_iterator@V?$_Vector_val@U?$_Simple_types@PAULogData@log4z@zsummer@@@std@@@std@@@std@@QAE@XZ 004298a0 f i log4z.obj
 0001:000288f0       ??1?$_Vector_iterator@V?$_Vector_val@U?$_Simple_types@PAULogData@log4z@zsummer@@@std@@@std@@@std@@QAE@XZ 004298f0 f i log4z.obj
 0001:00028940       ??1?$_Vector_val@U?$_Simple_types@PAULogData@log4z@zsummer@@@std@@@std@@QAE@XZ 00429940 f i log4z.obj
 0001:00028990       ??1?$deque@PAULogData@log4z@zsummer@@V?$allocator@PAULogData@log4z@zsummer@@@std@@@std@@QAE@XZ 00429990 f i log4z.obj
 0001:00028a20       ??1?$list@U?$pair@_JV?$basic_string@DU?$char_traits@D@std@@V?$allocator@D@2@@std@@@std@@V?$allocator@U?$pair@_JV?$basic_string@DU?$char_traits@D@std@@V?$allocator@D@2@@std@@@std@@@2@@std@@QAE@XZ 00429a20 f i log4z.obj
 0001:00028ab0       ??1?$map@V?$basic_string@DU?$char_traits@D@std@@V?$allocator@D@2@@std@@HU?$less@V?$basic_string@DU?$char_traits@D@std@@V?$allocator@D@2@@std@@@2@V?$allocator@U?$pair@$$CBV?$basic_string@DU?$char_traits@D@std@@V?$allocator@D@2@@std@@H@std@@@2@@std@@QAE@XZ 00429ab0 f i log4z.obj
 0001:00028b00       ??1?$map@V?$basic_string@DU?$char_traits@D@std@@V?$allocator@D@2@@std@@ULoggerInfo@log4z@zsummer@@U?$less@V?$basic_string@DU?$char_traits@D@std@@V?$allocator@D@2@@std@@@2@V?$allocator@U?$pair@$$CBV?$basic_string@DU?$char_traits@D@std@@V?$allocator@D@2@@std@@ULoggerInfo@log4z@zsummer@@@std@@@2@@std@@QAE@XZ 00429b00 f i log4z.obj
 0001:00028b50       ??1?$pair@$$CBV?$basic_string@DU?$char_traits@D@std@@V?$allocator@D@2@@std@@H@std@@QAE@XZ 00429b50 f i log4z.obj
 0001:00028ba0       ??1?$pair@$$CBV?$basic_string@DU?$char_traits@D@std@@V?$allocator@D@2@@std@@ULoggerInfo@log4z@zsummer@@@std@@QAE@XZ 00429ba0 f i log4z.obj
 0001:00028c00       ??1?$pair@V?$_Tree_iterator@V?$_Tree_val@U?$_Tree_simple_types@U?$pair@$$CBV?$basic_string@DU?$char_traits@D@std@@V?$allocator@D@2@@std@@H@std@@@std@@@std@@@std@@_N@std@@QAE@XZ 00429c00 f i log4z.obj
 0001:00028c50       ??1?$pair@V?$_Tree_iterator@V?$_Tree_val@U?$_Tree_simple_types@U?$pair@$$CBV?$basic_string@DU?$char_traits@D@std@@V?$allocator@D@2@@std@@ULoggerInfo@log4z@zsummer@@@std@@@std@@@std@@@std@@_N@std@@QAE@XZ 00429c50 f i log4z.obj
 0001:00028ca0       ??1?$pair@V?$basic_string@DU?$char_traits@D@std@@V?$allocator@D@2@@std@@PBD@std@@QAE@XZ 00429ca0 f i log4z.obj
 0001:00028cf0       ??1?$pair@V?$basic_string@DU?$char_traits@D@std@@V?$allocator@D@2@@std@@ULoggerInfo@log4z@zsummer@@@std@@QAE@XZ 00429cf0 f i log4z.obj
 0001:00028d50       ??1?$pair@V?$basic_string@DU?$char_traits@D@std@@V?$allocator@D@2@@std@@V12@@std@@QAE@XZ 00429d50 f i log4z.obj
 0001:00028db0       ??1?$pair@_JV?$basic_string@DU?$char_traits@D@std@@V?$allocator@D@2@@std@@@std@@QAE@XZ 00429db0 f i log4z.obj
 0001:00028e10       ??1?$vector@PAULogData@log4z@zsummer@@V?$allocator@PAULogData@log4z@zsummer@@@std@@@std@@QAE@XZ 00429e10 f i log4z.obj
 0001:00028ea0       ??1AutoLock@log4z@zsummer@@QAE@XZ 00429ea0 f i log4z.obj
 0001:00028f30       ??1ILog4zManager@log4z@zsummer@@UAE@XZ 00429f30 f i log4z.obj
 0001:00028f70       ??1LockHelper@log4z@zsummer@@UAE@XZ 00429f70 f   log4z.obj
 0001:00028fe0       ??1Log4zFileHandler@log4z@zsummer@@QAE@XZ 00429fe0 f i log4z.obj
 0001:00029070       ??1LogerManager@log4z@zsummer@@UAE@XZ 0042a070 f   log4z.obj
 0001:00029200       ??1LoggerInfo@log4z@zsummer@@QAE@XZ 0042a200 f i log4z.obj
 0001:00029290       ??1SemHelper@log4z@zsummer@@UAE@XZ 0042a290 f   log4z.obj
 0001:00029320       ??1ThreadHelper@log4z@zsummer@@UAE@XZ 0042a320 f i log4z.obj
 0001:00029360       ??1_Iterator_base12@std@@QAE@XZ 0042a360 f i log4z.obj
 0001:00029450       ??2@YAPAXIPAX@Z            0042a450 f i log4z.obj
 0001:00029490       ??3@YAXPAX0@Z              0042a490 f i log4z.obj
 0001:000294c0       ??4?$_Iterator012@Ubidirectional_iterator_tag@std@@U?$pair@$$CBV?$basic_string@DU?$char_traits@D@std@@V?$allocator@D@2@@std@@H@2@HPBU32@ABU32@U_Iterator_base12@2@@std@@QAEAAU01@$$QAU01@@Z 0042a4c0 f i log4z.obj
 0001:00029520       ??4?$_Iterator012@Ubidirectional_iterator_tag@std@@U?$pair@$$CBV?$basic_string@DU?$char_traits@D@std@@V?$allocator@D@2@@std@@H@2@HPBU32@ABU32@U_Iterator_base12@2@@std@@QAEAAU01@ABU01@@Z 0042a520 f i log4z.obj
 0001:00029580       ??4?$_Tree_const_iterator@V?$_Tree_val@U?$_Tree_simple_types@U?$pair@$$CBV?$basic_string@DU?$char_traits@D@std@@V?$allocator@D@2@@std@@H@std@@@std@@@std@@@std@@QAEAAV01@$$QAV01@@Z 0042a580 f i log4z.obj
 0001:000295e0       ??4?$_Tree_const_iterator@V?$_Tree_val@U?$_Tree_simple_types@U?$pair@$$CBV?$basic_string@DU?$char_traits@D@std@@V?$allocator@D@2@@std@@H@std@@@std@@@std@@@std@@QAEAAV01@ABV01@@Z 0042a5e0 f i log4z.obj
 0001:00029640       ??4?$_Tree_iterator@V?$_Tree_val@U?$_Tree_simple_types@U?$pair@$$CBV?$basic_string@DU?$char_traits@D@std@@V?$allocator@D@2@@std@@H@std@@@std@@@std@@@std@@QAEAAV01@$$QAV01@@Z 0042a640 f i log4z.obj
 0001:000296a0       ??4?$_Tree_unchecked_const_iterator@V?$_Tree_val@U?$_Tree_simple_types@U?$pair@$$CBV?$basic_string@DU?$char_traits@D@std@@V?$allocator@D@2@@std@@H@std@@@std@@@std@@U_Iterator_base12@2@@std@@QAEAAV01@$$QAV01@@Z 0042a6a0 f i log4z.obj
 0001:00029710       ??4?$_Tree_unchecked_const_iterator@V?$_Tree_val@U?$_Tree_simple_types@U?$pair@$$CBV?$basic_string@DU?$char_traits@D@std@@V?$allocator@D@2@@std@@H@std@@@std@@@std@@U_Iterator_base12@2@@std@@QAEAAV01@ABV01@@Z 0042a710 f i log4z.obj
 0001:00029780       ??4?$_Wrap_alloc@V?$allocator@D@std@@@std@@QAEAAU01@$$QAU01@@Z 0042a780 f i log4z.obj
 0001:000297e0       ??4?$basic_string@DU?$char_traits@D@std@@V?$allocator@D@2@@std@@QAEAAV01@$$QAV01@@Z 0042a7e0 f i log4z.obj
 0001:00029950       ??4?$basic_string@DU?$char_traits@D@std@@V?$allocator@D@2@@std@@QAEAAV01@ABV01@@Z 0042a950 f i log4z.obj
 0001:00029a10       ??4?$basic_string@DU?$char_traits@D@std@@V?$allocator@D@2@@std@@QAEAAV01@PBD@Z 0042aa10 f i log4z.obj
 0001:00029a70       ??4_Iterator_base12@std@@QAEAAU01@ABU01@@Z 0042aa70 f i log4z.obj
 0001:00029bb0       ??6Log4zStream@log4z@zsummer@@QAEAAV012@H@Z 0042abb0 f i log4z.obj
 0001:00029c10       ??6Log4zStream@log4z@zsummer@@QAEAAV012@_N@Z 0042ac10 f i log4z.obj
 0001:00029cb0       ??8?$_List_const_iterator@V?$_List_val@U?$_List_simple_types@U?$pair@_JV?$basic_string@DU?$char_traits@D@std@@V?$allocator@D@2@@std@@@std@@@std@@@std@@@std@@QBE_NABV01@@Z 0042acb0 f i log4z.obj
 0001:00029e00       ??8?$_String_const_iterator@V?$_String_val@U?$_Simple_types@D@std@@@std@@@std@@QBE_NABV01@@Z 0042ae00 f i log4z.obj
 0001:00029e90       ??8?$_Tree_const_iterator@V?$_Tree_val@U?$_Tree_simple_types@U?$pair@$$CBV?$basic_string@DU?$char_traits@D@std@@V?$allocator@D@2@@std@@H@std@@@std@@@std@@@std@@QBE_NABV01@@Z 0042ae90 f i log4z.obj
 0001:00029fe0       ??8?$_Tree_const_iterator@V?$_Tree_val@U?$_Tree_simple_types@U?$pair@$$CBV?$basic_string@DU?$char_traits@D@std@@V?$allocator@D@2@@std@@ULoggerInfo@log4z@zsummer@@@std@@@std@@@std@@@std@@QBE_NABV01@@Z 0042afe0 f i log4z.obj
 0001:0002a130       ??9?$_List_const_iterator@V?$_List_val@U?$_List_simple_types@U?$pair@_JV?$basic_string@DU?$char_traits@D@std@@V?$allocator@D@2@@std@@@std@@@std@@@std@@@std@@QBE_NABV01@@Z 0042b130 f i log4z.obj
 0001:0002a1c0       ??9?$_String_const_iterator@V?$_String_val@U?$_Simple_types@D@std@@@std@@@std@@QBE_NABV01@@Z 0042b1c0 f i log4z.obj
 0001:0002a250       ??9?$_Tree_const_iterator@V?$_Tree_val@U?$_Tree_simple_types@U?$pair@$$CBV?$basic_string@DU?$char_traits@D@std@@V?$allocator@D@2@@std@@H@std@@@std@@@std@@@std@@QBE_NABV01@@Z 0042b250 f i log4z.obj
 0001:0002a2e0       ??9?$_Tree_const_iterator@V?$_Tree_val@U?$_Tree_simple_types@U?$pair@$$CBV?$basic_string@DU?$char_traits@D@std@@V?$allocator@D@2@@std@@ULoggerInfo@log4z@zsummer@@@std@@@std@@@std@@@std@@QBE_NABV01@@Z 0042b2e0 f i log4z.obj
 0001:0002a370       ??A?$basic_string@DU?$char_traits@D@std@@V?$allocator@D@2@@std@@QAEAADI@Z 0042b370 f i log4z.obj
 0001:0002a410       ??A?$map@V?$basic_string@DU?$char_traits@D@std@@V?$allocator@D@2@@std@@HU?$less@V?$basic_string@DU?$char_traits@D@std@@V?$allocator@D@2@@std@@@2@V?$allocator@U?$pair@$$CBV?$basic_string@DU?$char_traits@D@std@@V?$allocator@D@2@@std@@H@std@@@2@@std@@QAEAAH$$QAV?$basic_string@DU?$char_traits@D@std@@V?$allocator@D@2@@1@@Z 0042b410 f i log4z.obj
 0001:0002a510       ??A?$map@V?$basic_string@DU?$char_traits@D@std@@V?$allocator@D@2@@std@@HU?$less@V?$basic_string@DU?$char_traits@D@std@@V?$allocator@D@2@@std@@@2@V?$allocator@U?$pair@$$CBV?$basic_string@DU?$char_traits@D@std@@V?$allocator@D@2@@std@@H@std@@@2@@std@@QAEAAHABV?$basic_string@DU?$char_traits@D@std@@V?$allocator@D@2@@1@@Z 0042b510 f i log4z.obj
 0001:0002a600       ??C?$_Tree_iterator@V?$_Tree_val@U?$_Tree_simple_types@U?$pair@$$CBV?$basic_string@DU?$char_traits@D@std@@V?$allocator@D@2@@std@@H@std@@@std@@@std@@@std@@QBEPAU?$pair@$$CBV?$basic_string@DU?$char_traits@D@std@@V?$allocator@D@2@@std@@H@1@XZ 0042b600 f i log4z.obj
 0001:0002a660       ??C?$_Tree_iterator@V?$_Tree_val@U?$_Tree_simple_types@U?$pair@$$CBV?$basic_string@DU?$char_traits@D@std@@V?$allocator@D@2@@std@@ULoggerInfo@log4z@zsummer@@@std@@@std@@@std@@@std@@QBEPAU?$pair@$$CBV?$basic_string@DU?$char_traits@D@std@@V?$allocator@D@2@@std@@ULoggerInfo@log4z@zsummer@@@1@XZ 0042b660 f i log4z.obj
 0001:0002a6c0       ??D?$_Deque_const_iterator@V?$_Deque_val@U?$_Deque_simple_types@PAULogData@log4z@zsummer@@@std@@@std@@@std@@QBEABQAULogData@log4z@zsummer@@XZ 0042b6c0 f i log4z.obj
 0001:0002a840       ??D?$_Deque_iterator@V?$_Deque_val@U?$_Deque_simple_types@PAULogData@log4z@zsummer@@@std@@@std@@@std@@QBEAAPAULogData@log4z@zsummer@@XZ 0042b840 f i log4z.obj
 0001:0002a890       ??D?$_List_const_iterator@V?$_List_val@U?$_List_simple_types@U?$pair@_JV?$basic_string@DU?$char_traits@D@std@@V?$allocator@D@2@@std@@@std@@@std@@@std@@@std@@QBEABU?$pair@_JV?$basic_string@DU?$char_traits@D@std@@V?$allocator@D@2@@std@@@1@XZ 0042b890 f i log4z.obj
 0001:0002a9d0       ??D?$_List_iterator@V?$_List_val@U?$_List_simple_types@U?$pair@_JV?$basic_string@DU?$char_traits@D@std@@V?$allocator@D@2@@std@@@std@@@std@@@std@@@std@@QBEAAU?$pair@_JV?$basic_string@DU?$char_traits@D@std@@V?$allocator@D@2@@std@@@1@XZ 0042b9d0 f i log4z.obj
 0001:0002aa20       ??D?$_String_const_iterator@V?$_String_val@U?$_Simple_types@D@std@@@std@@@std@@QBEABDXZ 0042ba20 f i log4z.obj
 0001:0002aba0       ??D?$_String_iterator@V?$_String_val@U?$_Simple_types@D@std@@@std@@@std@@QBEAADXZ 0042bba0 f i log4z.obj
 0001:0002abf0       ??D?$_Tree_const_iterator@V?$_Tree_val@U?$_Tree_simple_types@U?$pair@$$CBV?$basic_string@DU?$char_traits@D@std@@V?$allocator@D@2@@std@@H@std@@@std@@@std@@@std@@QBEABU?$pair@$$CBV?$basic_string@DU?$char_traits@D@std@@V?$allocator@D@2@@std@@H@1@XZ 0042bbf0 f i log4z.obj
 0001:0002ad30       ??D?$_Tree_const_iterator@V?$_Tree_val@U?$_Tree_simple_types@U?$pair@$$CBV?$basic_string@DU?$char_traits@D@std@@V?$allocator@D@2@@std@@ULoggerInfo@log4z@zsummer@@@std@@@std@@@std@@@std@@QBEABU?$pair@$$CBV?$basic_string@DU?$char_traits@D@std@@V?$allocator@D@2@@std@@ULoggerInfo@log4z@zsummer@@@1@XZ 0042bd30 f i log4z.obj
 0001:0002ae70       ??D?$_Tree_iterator@V?$_Tree_val@U?$_Tree_simple_types@U?$pair@$$CBV?$basic_string@DU?$char_traits@D@std@@V?$allocator@D@2@@std@@H@std@@@std@@@std@@@std@@QBEAAU?$pair@$$CBV?$basic_string@DU?$char_traits@D@std@@V?$allocator@D@2@@std@@H@1@XZ 0042be70 f i log4z.obj
 0001:0002aec0       ??D?$_Tree_iterator@V?$_Tree_val@U?$_Tree_simple_types@U?$pair@$$CBV?$basic_string@DU?$char_traits@D@std@@V?$allocator@D@2@@std@@ULoggerInfo@log4z@zsummer@@@std@@@std@@@std@@@std@@QBEAAU?$pair@$$CBV?$basic_string@DU?$char_traits@D@std@@V?$allocator@D@2@@std@@ULoggerInfo@log4z@zsummer@@@1@XZ 0042bec0 f i log4z.obj
 0001:0002af10       ??D?$_Vector_const_iterator@V?$_Vector_val@U?$_Simple_types@PAULogData@log4z@zsummer@@@std@@@std@@@std@@QBEABQAULogData@log4z@zsummer@@XZ 0042bf10 f i log4z.obj
 0001:0002b040       ??D?$_Vector_iterator@V?$_Vector_val@U?$_Simple_types@PAULogData@log4z@zsummer@@@std@@@std@@@std@@QBEAAPAULogData@log4z@zsummer@@XZ 0042c040 f i log4z.obj
 0001:0002b090       ??E?$_List_const_iterator@V?$_List_val@U?$_List_simple_types@U?$pair@_JV?$basic_string@DU?$char_traits@D@std@@V?$allocator@D@2@@std@@@std@@@std@@@std@@@std@@QAE?AV01@H@Z 0042c090 f i log4z.obj
 0001:0002b1b0       ??E?$_List_const_iterator@V?$_List_val@U?$_List_simple_types@U?$pair@_JV?$basic_string@DU?$char_traits@D@std@@V?$allocator@D@2@@std@@@std@@@std@@@std@@@std@@QAEAAV01@XZ 0042c1b0 f i log4z.obj
 0001:0002b300       ??E?$_List_iterator@V?$_List_val@U?$_List_simple_types@U?$pair@_JV?$basic_string@DU?$char_traits@D@std@@V?$allocator@D@2@@std@@@std@@@std@@@std@@@std@@QAEAAV01@XZ 0042c300 f i log4z.obj
 0001:0002b360       ??E?$_String_const_iterator@V?$_String_val@U?$_Simple_types@D@std@@@std@@@std@@QAEAAV01@XZ 0042c360 f i log4z.obj
 0001:0002b4b0       ??E?$_String_iterator@V?$_String_val@U?$_Simple_types@D@std@@@std@@@std@@QAEAAV01@XZ 0042c4b0 f i log4z.obj
 0001:0002b510       ??E?$_Tree_const_iterator@V?$_Tree_val@U?$_Tree_simple_types@U?$pair@$$CBV?$basic_string@DU?$char_traits@D@std@@V?$allocator@D@2@@std@@H@std@@@std@@@std@@@std@@QAE?AV01@H@Z 0042c510 f i log4z.obj
 0001:0002b630       ??E?$_Tree_const_iterator@V?$_Tree_val@U?$_Tree_simple_types@U?$pair@$$CBV?$basic_string@DU?$char_traits@D@std@@V?$allocator@D@2@@std@@H@std@@@std@@@std@@@std@@QAEAAV01@XZ 0042c630 f i log4z.obj
 0001:0002b770       ??E?$_Tree_const_iterator@V?$_Tree_val@U?$_Tree_simple_types@U?$pair@$$CBV?$basic_string@DU?$char_traits@D@std@@V?$allocator@D@2@@std@@ULoggerInfo@log4z@zsummer@@@std@@@std@@@std@@@std@@QAE?AV01@H@Z 0042c770 f i log4z.obj
 0001:0002b890       ??E?$_Tree_const_iterator@V?$_Tree_val@U?$_Tree_simple_types@U?$pair@$$CBV?$basic_string@DU?$char_traits@D@std@@V?$allocator@D@2@@std@@ULoggerInfo@log4z@zsummer@@@std@@@std@@@std@@@std@@QAEAAV01@XZ 0042c890 f i log4z.obj
 0001:0002b9d0       ??E?$_Tree_iterator@V?$_Tree_val@U?$_Tree_simple_types@U?$pair@$$CBV?$basic_string@DU?$char_traits@D@std@@V?$allocator@D@2@@std@@ULoggerInfo@log4z@zsummer@@@std@@@std@@@std@@@std@@QAEAAV01@XZ 0042c9d0 f i log4z.obj
 0001:0002ba30       ??E?$_Tree_unchecked_const_iterator@V?$_Tree_val@U?$_Tree_simple_types@U?$pair@$$CBV?$basic_string@DU?$char_traits@D@std@@V?$allocator@D@2@@std@@H@std@@@std@@@std@@U_Iterator_base12@2@@std@@QAEAAV01@XZ 0042ca30 f i log4z.obj
 0001:0002bb60       ??E?$_Tree_unchecked_const_iterator@V?$_Tree_val@U?$_Tree_simple_types@U?$pair@$$CBV?$basic_string@DU?$char_traits@D@std@@V?$allocator@D@2@@std@@ULoggerInfo@log4z@zsummer@@@std@@@std@@@std@@U_Iterator_base12@2@@std@@QAEAAV01@XZ 0042cb60 f i log4z.obj
 0001:0002bc90       ??F?$_List_const_iterator@V?$_List_val@U?$_List_simple_types@U?$pair@_JV?$basic_string@DU?$char_traits@D@std@@V?$allocator@D@2@@std@@@std@@@std@@@std@@@std@@QAEAAV01@XZ 0042cc90 f i log4z.obj
 0001:0002bde0       ??F?$_List_iterator@V?$_List_val@U?$_List_simple_types@U?$pair@_JV?$basic_string@DU?$char_traits@D@std@@V?$allocator@D@2@@std@@@std@@@std@@@std@@@std@@QAEAAV01@XZ 0042cde0 f i log4z.obj
 0001:0002be40       ??F?$_List_unchecked_const_iterator@V?$_List_val@U?$_List_simple_types@U?$pair@_JV?$basic_string@DU?$char_traits@D@std@@V?$allocator@D@2@@std@@@std@@@std@@@std@@U_Iterator_base0@2@@std@@QAEAAV01@XZ 0042ce40 f i log4z.obj
 0001:0002beb0       ??F?$_Tree_const_iterator@V?$_Tree_val@U?$_Tree_simple_types@U?$pair@$$CBV?$basic_string@DU?$char_traits@D@std@@V?$allocator@D@2@@std@@H@std@@@std@@@std@@@std@@QAEAAV01@XZ 0042ceb0 f i log4z.obj
 0001:0002c090       ??F?$_Tree_const_iterator@V?$_Tree_val@U?$_Tree_simple_types@U?$pair@$$CBV?$basic_string@DU?$char_traits@D@std@@V?$allocator@D@2@@std@@ULoggerInfo@log4z@zsummer@@@std@@@std@@@std@@@std@@QAEAAV01@XZ 0042d090 f i log4z.obj
 0001:0002c270       ??F?$_Tree_iterator@V?$_Tree_val@U?$_Tree_simple_types@U?$pair@$$CBV?$basic_string@DU?$char_traits@D@std@@V?$allocator@D@2@@std@@H@std@@@std@@@std@@@std@@QAEAAV01@XZ 0042d270 f i log4z.obj
 0001:0002c2d0       ??F?$_Tree_iterator@V?$_Tree_val@U?$_Tree_simple_types@U?$pair@$$CBV?$basic_string@DU?$char_traits@D@std@@V?$allocator@D@2@@std@@ULoggerInfo@log4z@zsummer@@@std@@@std@@@std@@@std@@QAEAAV01@XZ 0042d2d0 f i log4z.obj
 0001:0002c330       ??F?$_Tree_unchecked_const_iterator@V?$_Tree_val@U?$_Tree_simple_types@U?$pair@$$CBV?$basic_string@DU?$char_traits@D@std@@V?$allocator@D@2@@std@@H@std@@@std@@@std@@U_Iterator_base12@2@@std@@QAEAAV01@XZ 0042d330 f i log4z.obj
 0001:0002c490       ??F?$_Tree_unchecked_const_iterator@V?$_Tree_val@U?$_Tree_simple_types@U?$pair@$$CBV?$basic_string@DU?$char_traits@D@std@@V?$allocator@D@2@@std@@ULoggerInfo@log4z@zsummer@@@std@@@std@@@std@@U_Iterator_base12@2@@std@@QAEAAV01@XZ 0042d490 f i log4z.obj
 0001:0002c5f0       ??G?$_String_const_iterator@V?$_String_val@U?$_Simple_types@D@std@@@std@@@std@@QBEHABV01@@Z 0042d5f0 f i log4z.obj
 0001:0002c660       ??G?$_String_iterator@V?$_String_val@U?$_Simple_types@D@std@@@std@@@std@@QBEHABV?$_String_const_iterator@V?$_String_val@U?$_Simple_types@D@std@@@std@@@1@@Z 0042d660 f i log4z.obj
 0001:0002c6c0       ??G?$_Vector_iterator@V?$_Vector_val@U?$_Simple_types@PAULogData@log4z@zsummer@@@std@@@std@@@std@@QBE?AV01@H@Z 0042d6c0 f i log4z.obj
 0001:0002c7e0       ??H?$_String_iterator@V?$_String_val@U?$_Simple_types@D@std@@@std@@@std@@QBE?AV01@H@Z 0042d7e0 f i log4z.obj
 0001:0002c900       ??M?$_String_const_iterator@V?$_String_val@U?$_Simple_types@D@std@@@std@@@std@@QBE_NABV01@@Z 0042d900 f i log4z.obj
 0001:0002c990       ??R?$less@V?$basic_string@DU?$char_traits@D@std@@V?$allocator@D@2@@std@@@std@@QBE_NABV?$basic_string@DU?$char_traits@D@std@@V?$allocator@D@2@@1@0@Z 0042d990 f i log4z.obj
 0001:0002c9f0       ??Y?$_String_const_iterator@V?$_String_val@U?$_Simple_types@D@std@@@std@@@std@@QAEAAV01@H@Z 0042d9f0 f i log4z.obj
 0001:0002cba0       ??Y?$_String_iterator@V?$_String_val@U?$_Simple_types@D@std@@@std@@@std@@QAEAAV01@H@Z 0042dba0 f i log4z.obj
 0001:0002cc00       ??Y?$_Vector_const_iterator@V?$_Vector_val@U?$_Simple_types@PAULogData@log4z@zsummer@@@std@@@std@@@std@@QAEAAV01@H@Z 0042dc00 f i log4z.obj
 0001:0002cd70       ??Y?$_Vector_iterator@V?$_Vector_val@U?$_Simple_types@PAULogData@log4z@zsummer@@@std@@@std@@@std@@QAEAAV01@H@Z 0042dd70 f i log4z.obj
 0001:0002cdd0       ??Y?$basic_string@DU?$char_traits@D@std@@V?$allocator@D@2@@std@@QAEAAV01@PBD@Z 0042ddd0 f i log4z.obj
 0001:0002ce30       ??Z?$_Vector_iterator@V?$_Vector_val@U?$_Simple_types@PAULogData@log4z@zsummer@@@std@@@std@@@std@@QAEAAV01@H@Z 0042de30 f i log4z.obj
 0001:0002ce88       ??_ELogerManager@log4z@zsummer@@WBA@AEPAXI@Z 0042de88 f i log4z.obj
 0001:0002cea0       ??_G?$pair@$$CBV?$basic_string@DU?$char_traits@D@std@@V?$allocator@D@2@@std@@H@std@@QAEPAXI@Z 0042dea0 f i log4z.obj
 0001:0002cf10       ??_G?$pair@$$CBV?$basic_string@DU?$char_traits@D@std@@V?$allocator@D@2@@std@@ULoggerInfo@log4z@zsummer@@@std@@QAEPAXI@Z 0042df10 f i log4z.obj
 0001:0002cf90       ??_G?$pair@_JV?$basic_string@DU?$char_traits@D@std@@V?$allocator@D@2@@std@@@std@@QAEPAXI@Z 0042df90 f i log4z.obj
 0001:0002d000       ??_EILog4zManager@log4z@zsummer@@UAEPAXI@Z 0042e000 f i log4z.obj
 0001:0002d000       ??_GILog4zManager@log4z@zsummer@@UAEPAXI@Z 0042e000 f i log4z.obj
 0001:0002d070       ??_ELockHelper@log4z@zsummer@@UAEPAXI@Z 0042e070 f i log4z.obj
 0001:0002d070       ??_GLockHelper@log4z@zsummer@@UAEPAXI@Z 0042e070 f i log4z.obj
 0001:0002d0e0       ??_ELogerManager@log4z@zsummer@@UAEPAXI@Z 0042e0e0 f i log4z.obj
 0001:0002d0e0       ??_GLogerManager@log4z@zsummer@@UAEPAXI@Z 0042e0e0 f i log4z.obj
 0001:0002d160       ??_GSemHelper@log4z@zsummer@@UAEPAXI@Z 0042e160 f i log4z.obj
 0001:0002d160       ??_ESemHelper@log4z@zsummer@@UAEPAXI@Z 0042e160 f i log4z.obj
 0001:0002d1d0       ??_GThreadHelper@log4z@zsummer@@UAEPAXI@Z 0042e1d0 f i log4z.obj
 0001:0002d1d0       ??_EThreadHelper@log4z@zsummer@@UAEPAXI@Z 0042e1d0 f i log4z.obj
 0001:0002d240       ?_Adopt@_Iterator_base0@std@@QAEXPBX@Z 0042e240 f i log4z.obj
 0001:0002d280       ?_Adopt@_Iterator_base12@std@@QAEXPBU_Container_base12@2@@Z 0042e280 f i log4z.obj
 0001:0002d430       ?_Alloc_proxy@?$_Deque_alloc@U?$_Deque_base_types@PAULogData@log4z@zsummer@@V?$allocator@PAULogData@log4z@zsummer@@@std@@@std@@@std@@QAEXXZ 0042e430 f i log4z.obj
 0001:0002d530       ?_Alloc_proxy@?$_List_alloc@U?$_List_base_types@U?$pair@_JV?$basic_string@DU?$char_traits@D@std@@V?$allocator@D@2@@std@@@std@@V?$allocator@U?$pair@_JV?$basic_string@DU?$char_traits@D@std@@V?$allocator@D@2@@std@@@std@@@2@@std@@@std@@QAEXXZ 0042e530 f i log4z.obj
 0001:0002d630       ?_Alloc_proxy@?$_String_alloc@U?$_String_base_types@DV?$allocator@D@std@@@std@@@std@@QAEXXZ 0042e630 f i log4z.obj
 0001:0002d730       ?_Alloc_proxy@?$_Tree_comp_alloc@V?$_Tmap_traits@V?$basic_string@DU?$char_traits@D@std@@V?$allocator@D@2@@std@@HU?$less@V?$basic_string@DU?$char_traits@D@std@@V?$allocator@D@2@@std@@@2@V?$allocator@U?$pair@$$CBV?$basic_string@DU?$char_traits@D@std@@V?$allocator@D@2@@std@@H@std@@@2@$0A@@std@@@std@@QAEXXZ 0042e730 f i log4z.obj
 0001:0002d830       ?_Alloc_proxy@?$_Tree_comp_alloc@V?$_Tmap_traits@V?$basic_string@DU?$char_traits@D@std@@V?$allocator@D@2@@std@@ULoggerInfo@log4z@zsummer@@U?$less@V?$basic_string@DU?$char_traits@D@std@@V?$allocator@D@2@@std@@@2@V?$allocator@U?$pair@$$CBV?$basic_string@DU?$char_traits@D@std@@V?$allocator@D@2@@std@@ULoggerInfo@log4z@zsummer@@@std@@@2@$0A@@std@@@std@@QAEXXZ 0042e830 f i log4z.obj
 0001:0002d930       ?_Alloc_proxy@?$_Vector_alloc@U?$_Vec_base_types@PAULogData@log4z@zsummer@@V?$allocator@PAULogData@log4z@zsummer@@@std@@@std@@@std@@QAEXXZ 0042e930 f i log4z.obj
 0001:0002da30       ?_Allocate@std@@YAPAXII_N@Z 0042ea30 f i log4z.obj
 0001:0002dc90       ?_Assign_rv@?$basic_string@DU?$char_traits@D@std@@V?$allocator@D@2@@std@@QAEX$$QAV12@@Z 0042ec90 f i log4z.obj
 0001:0002ddb0       ?_Assign_rv@?$list@U?$pair@_JV?$basic_string@DU?$char_traits@D@std@@V?$allocator@D@2@@std@@@std@@V?$allocator@U?$pair@_JV?$basic_string@DU?$char_traits@D@std@@V?$allocator@D@2@@std@@@std@@@2@@std@@QAEX$$QAV12@@Z 0042edb0 f i log4z.obj
 0001:0002de50       ?_Buyheadnode@?$_List_alloc@U?$_List_base_types@U?$pair@_JV?$basic_string@DU?$char_traits@D@std@@V?$allocator@D@2@@std@@@std@@V?$allocator@U?$pair@_JV?$basic_string@DU?$char_traits@D@std@@V?$allocator@D@2@@std@@@std@@@2@@std@@@std@@QAEPAU?$_List_node@U?$pair@_JV?$basic_string@DU?$char_traits@D@std@@V?$allocator@D@2@@std@@@std@@PAX@2@XZ 0042ee50 f i log4z.obj
 0001:0002deb0       ?_Buyheadnode@?$_Tree_comp_alloc@V?$_Tmap_traits@V?$basic_string@DU?$char_traits@D@std@@V?$allocator@D@2@@std@@HU?$less@V?$basic_string@DU?$char_traits@D@std@@V?$allocator@D@2@@std@@@2@V?$allocator@U?$pair@$$CBV?$basic_string@DU?$char_traits@D@std@@V?$allocator@D@2@@std@@H@std@@@2@$0A@@std@@@std@@QAEPAU?$_Tree_node@U?$pair@$$CBV?$basic_string@DU?$char_traits@D@std@@V?$allocator@D@2@@std@@H@std@@PAX@2@XZ 0042eeb0 f i log4z.obj
 0001:0002e0c0       ?_Buyheadnode@?$_Tree_comp_alloc@V?$_Tmap_traits@V?$basic_string@DU?$char_traits@D@std@@V?$allocator@D@2@@std@@ULoggerInfo@log4z@zsummer@@U?$less@V?$basic_string@DU?$char_traits@D@std@@V?$allocator@D@2@@std@@@2@V?$allocator@U?$pair@$$CBV?$basic_string@DU?$char_traits@D@std@@V?$allocator@D@2@@std@@ULoggerInfo@log4z@zsummer@@@std@@@2@$0A@@std@@@std@@QAEPAU?$_Tree_node@U?$pair@$$CBV?$basic_string@DU?$char_traits@D@std@@V?$allocator@D@2@@std@@ULoggerInfo@log4z@zsummer@@@std@@PAX@2@XZ 0042f0c0 f i log4z.obj
 0001:0002e2d0       ?_Buynode0@?$_List_alloc@U?$_List_base_types@U?$pair@_JV?$basic_string@DU?$char_traits@D@std@@V?$allocator@D@2@@std@@@std@@V?$allocator@U?$pair@_JV?$basic_string@DU?$char_traits@D@std@@V?$allocator@D@2@@std@@@std@@@2@@std@@@std@@QAEPAU?$_List_node@U?$pair@_JV?$basic_string@DU?$char_traits@D@std@@V?$allocator@D@2@@std@@@std@@PAX@2@PAU32@0@Z 0042f2d0 f i log4z.obj
 0001:0002e460       ?_Buynode0@?$_Tree_comp_alloc@V?$_Tmap_traits@V?$basic_string@DU?$char_traits@D@std@@V?$allocator@D@2@@std@@HU?$less@V?$basic_string@DU?$char_traits@D@std@@V?$allocator@D@2@@std@@@2@V?$allocator@U?$pair@$$CBV?$basic_string@DU?$char_traits@D@std@@V?$allocator@D@2@@std@@H@std@@@2@$0A@@std@@@std@@QAEPAU?$_Tree_node@U?$pair@$$CBV?$basic_string@DU?$char_traits@D@std@@V?$allocator@D@2@@std@@H@std@@PAX@2@XZ 0042f460 f i log4z.obj
 0001:0002e620       ?_Buynode0@?$_Tree_comp_alloc@V?$_Tmap_traits@V?$basic_string@DU?$char_traits@D@std@@V?$allocator@D@2@@std@@ULoggerInfo@log4z@zsummer@@U?$less@V?$basic_string@DU?$char_traits@D@std@@V?$allocator@D@2@@std@@@2@V?$allocator@U?$pair@$$CBV?$basic_string@DU?$char_traits@D@std@@V?$allocator@D@2@@std@@ULoggerInfo@log4z@zsummer@@@std@@@2@$0A@@std@@@std@@QAEPAU?$_Tree_node@U?$pair@$$CBV?$basic_string@DU?$char_traits@D@std@@V?$allocator@D@2@@std@@ULoggerInfo@log4z@zsummer@@@std@@PAX@2@XZ 0042f620 f i log4z.obj
 0001:0002e7e0       ?_Check_offset@?$basic_string@DU?$char_traits@D@std@@V?$allocator@D@2@@std@@QBEXI@Z 0042f7e0 f i log4z.obj
 0001:0002e850       ?_Check_offset_exclusive@?$basic_string@DU?$char_traits@D@std@@V?$allocator@D@2@@std@@QBEXI@Z 0042f850 f i log4z.obj
 0001:0002e8c0       ?_Clamp_suffix_size@?$basic_string@DU?$char_traits@D@std@@V?$allocator@D@2@@std@@QBEIII@Z 0042f8c0 f i log4z.obj
 0001:0002e940       ?_Clrcont@_Iterator_base12@std@@QAEXXZ 0042f940 f i log4z.obj
 0001:0002e980       ?_Color@?$_Tree_comp_alloc@V?$_Tmap_traits@V?$basic_string@DU?$char_traits@D@std@@V?$allocator@D@2@@std@@HU?$less@V?$basic_string@DU?$char_traits@D@std@@V?$allocator@D@2@@std@@@2@V?$allocator@U?$pair@$$CBV?$basic_string@DU?$char_traits@D@std@@V?$allocator@D@2@@std@@H@std@@@2@$0A@@std@@@std@@SAAADPAU?$_Tree_node@U?$pair@$$CBV?$basic_string@DU?$char_traits@D@std@@V?$allocator@D@2@@std@@H@std@@PAX@2@@Z 0042f980 f i log4z.obj
 0001:0002e9d0       ?_Color@?$_Tree_comp_alloc@V?$_Tmap_traits@V?$basic_string@DU?$char_traits@D@std@@V?$allocator@D@2@@std@@ULoggerInfo@log4z@zsummer@@U?$less@V?$basic_string@DU?$char_traits@D@std@@V?$allocator@D@2@@std@@@2@V?$allocator@U?$pair@$$CBV?$basic_string@DU?$char_traits@D@std@@V?$allocator@D@2@@std@@ULoggerInfo@log4z@zsummer@@@std@@@2@$0A@@std@@@std@@SAAADPAU?$_Tree_node@U?$pair@$$CBV?$basic_string@DU?$char_traits@D@std@@V?$allocator@D@2@@std@@ULoggerInfo@log4z@zsummer@@@std@@PAX@2@@Z 0042f9d0 f i log4z.obj
 0001:0002ea20       ?_Color@?$_Tree_val@U?$_Tree_simple_types@U?$pair@$$CBV?$basic_string@DU?$char_traits@D@std@@V?$allocator@D@2@@std@@H@std@@@std@@@std@@SAAADPAU?$_Tree_node@U?$pair@$$CBV?$basic_string@DU?$char_traits@D@std@@V?$allocator@D@2@@std@@H@std@@PAX@2@@Z 0042fa20 f i log4z.obj
 0001:0002ea60       ?_Color@?$_Tree_val@U?$_Tree_simple_types@U?$pair@$$CBV?$basic_string@DU?$char_traits@D@std@@V?$allocator@D@2@@std@@ULoggerInfo@log4z@zsummer@@@std@@@std@@@std@@SAAADPAU?$_Tree_node@U?$pair@$$CBV?$basic_string@DU?$char_traits@D@std@@V?$allocator@D@2@@std@@ULoggerInfo@log4z@zsummer@@@std@@PAX@2@@Z 0042fa60 f i log4z.obj
 0001:0002eaa0       ?_Compare@?$_Tree@V?$_Tmap_traits@V?$basic_string@DU?$char_traits@D@std@@V?$allocator@D@2@@std@@HU?$less@V?$basic_string@DU?$char_traits@D@std@@V?$allocator@D@2@@std@@@2@V?$allocator@U?$pair@$$CBV?$basic_string@DU?$char_traits@D@std@@V?$allocator@D@2@@std@@H@std@@@2@$0A@@std@@@std@@IBE_NABV?$basic_string@DU?$char_traits@D@std@@V?$allocator@D@2@@2@0@Z 0042faa0 f i log4z.obj
 0001:0002eb20       ?_Compare@?$_Tree@V?$_Tmap_traits@V?$basic_string@DU?$char_traits@D@std@@V?$allocator@D@2@@std@@ULoggerInfo@log4z@zsummer@@U?$less@V?$basic_string@DU?$char_traits@D@std@@V?$allocator@D@2@@std@@@2@V?$allocator@U?$pair@$$CBV?$basic_string@DU?$char_traits@D@std@@V?$allocator@D@2@@std@@ULoggerInfo@log4z@zsummer@@@std@@@2@$0A@@std@@@std@@IBE_NABV?$basic_string@DU?$char_traits@D@std@@V?$allocator@D@2@@2@0@Z 0042fb20 f i log4z.obj
 0001:0002eba0       ?_Compat@?$_String_const_iterator@V?$_String_val@U?$_Simple_types@D@std@@@std@@@std@@QBEXABV12@@Z 0042fba0 f i log4z.obj
 0001:0002ecb0       ?_Construct@?$_Tree_comp_alloc@V?$_Tmap_traits@V?$basic_string@DU?$char_traits@D@std@@V?$allocator@D@2@@std@@HU?$less@V?$basic_string@DU?$char_traits@D@std@@V?$allocator@D@2@@std@@@2@V?$allocator@U?$pair@$$CBV?$basic_string@DU?$char_traits@D@std@@V?$allocator@D@2@@std@@H@std@@@2@$0A@@std@@@std@@QAEXXZ 0042fcb0 f i log4z.obj
 0001:0002eda0       ?_Construct@?$_Tree_comp_alloc@V?$_Tmap_traits@V?$basic_string@DU?$char_traits@D@std@@V?$allocator@D@2@@std@@ULoggerInfo@log4z@zsummer@@U?$less@V?$basic_string@DU?$char_traits@D@std@@V?$allocator@D@2@@std@@@2@V?$allocator@U?$pair@$$CBV?$basic_string@DU?$char_traits@D@std@@V?$allocator@D@2@@std@@ULoggerInfo@log4z@zsummer@@@std@@@2@$0A@@std@@@std@@QAEXXZ 0042fda0 f i log4z.obj
 0001:0002ee90       ?_Copy@?$basic_string@DU?$char_traits@D@std@@V?$allocator@D@2@@std@@QAEXII@Z 0042fe90 f i log4z.obj
 0001:0002f150       ?_Copy_alloc@?$_String_alloc@U?$_String_base_types@DV?$allocator@D@std@@@std@@@std@@QAEXABU?$_Wrap_alloc@V?$allocator@D@std@@@2@@Z 00430150 f i log4z.obj
 0001:0002f200       ?_Destroy@?$vector@PAULogData@log4z@zsummer@@V?$allocator@PAULogData@log4z@zsummer@@@std@@@std@@IAEXPAPAULogData@log4z@zsummer@@0@Z 00430200 f i log4z.obj
 0001:0002f270       ?_Destroy_if_not_nil@?$_Tree@V?$_Tmap_traits@V?$basic_string@DU?$char_traits@D@std@@V?$allocator@D@2@@std@@HU?$less@V?$basic_string@DU?$char_traits@D@std@@V?$allocator@D@2@@std@@@2@V?$allocator@U?$pair@$$CBV?$basic_string@DU?$char_traits@D@std@@V?$allocator@D@2@@std@@H@std@@@2@$0A@@std@@@std@@IAEXPAU?$_Tree_node@U?$pair@$$CBV?$basic_string@DU?$char_traits@D@std@@V?$allocator@D@2@@std@@H@std@@PAX@2@@Z 00430270 f i log4z.obj
 0001:0002f300       ?_Destroy_if_not_nil@?$_Tree@V?$_Tmap_traits@V?$basic_string@DU?$char_traits@D@std@@V?$allocator@D@2@@std@@ULoggerInfo@log4z@zsummer@@U?$less@V?$basic_string@DU?$char_traits@D@std@@V?$allocator@D@2@@std@@@2@V?$allocator@U?$pair@$$CBV?$basic_string@DU?$char_traits@D@std@@V?$allocator@D@2@@std@@ULoggerInfo@log4z@zsummer@@@std@@@2@$0A@@std@@@std@@IAEXPAU?$_Tree_node@U?$pair@$$CBV?$basic_string@DU?$char_traits@D@std@@V?$allocator@D@2@@std@@ULoggerInfo@log4z@zsummer@@@std@@PAX@2@@Z 00430300 f i log4z.obj
 0001:0002f390       ?_Erase@?$_Tree@V?$_Tmap_traits@V?$basic_string@DU?$char_traits@D@std@@V?$allocator@D@2@@std@@HU?$less@V?$basic_string@DU?$char_traits@D@std@@V?$allocator@D@2@@std@@@2@V?$allocator@U?$pair@$$CBV?$basic_string@DU?$char_traits@D@std@@V?$allocator@D@2@@std@@H@std@@@2@$0A@@std@@@std@@IAEXPAU?$_Tree_node@U?$pair@$$CBV?$basic_string@DU?$char_traits@D@std@@V?$allocator@D@2@@std@@H@std@@PAX@2@@Z 00430390 f i log4z.obj
 0001:0002f480       ?_Erase@?$_Tree@V?$_Tmap_traits@V?$basic_string@DU?$char_traits@D@std@@V?$allocator@D@2@@std@@ULoggerInfo@log4z@zsummer@@U?$less@V?$basic_string@DU?$char_traits@D@std@@V?$allocator@D@2@@std@@@2@V?$allocator@U?$pair@$$CBV?$basic_string@DU?$char_traits@D@std@@V?$allocator@D@2@@std@@ULoggerInfo@log4z@zsummer@@@std@@@2@$0A@@std@@@std@@IAEXPAU?$_Tree_node@U?$pair@$$CBV?$basic_string@DU?$char_traits@D@std@@V?$allocator@D@2@@std@@ULoggerInfo@log4z@zsummer@@@std@@PAX@2@@Z 00430480 f i log4z.obj
 0001:0002f570       ?_Free_proxy@?$_Deque_alloc@U?$_Deque_base_types@PAULogData@log4z@zsummer@@V?$allocator@PAULogData@log4z@zsummer@@@std@@@std@@@std@@QAEXXZ 00430570 f i log4z.obj
 0001:0002f660       ?_Free_proxy@?$_List_alloc@U?$_List_base_types@U?$pair@_JV?$basic_string@DU?$char_traits@D@std@@V?$allocator@D@2@@std@@@std@@V?$allocator@U?$pair@_JV?$basic_string@DU?$char_traits@D@std@@V?$allocator@D@2@@std@@@std@@@2@@std@@@std@@QAEXXZ 00430660 f i log4z.obj
 0001:0002f750       ?_Free_proxy@?$_Tree_comp_alloc@V?$_Tmap_traits@V?$basic_string@DU?$char_traits@D@std@@V?$allocator@D@2@@std@@HU?$less@V?$basic_string@DU?$char_traits@D@std@@V?$allocator@D@2@@std@@@2@V?$allocator@U?$pair@$$CBV?$basic_string@DU?$char_traits@D@std@@V?$allocator@D@2@@std@@H@std@@@2@$0A@@std@@@std@@QAEXXZ 00430750 f i log4z.obj
 0001:0002f840       ?_Free_proxy@?$_Tree_comp_alloc@V?$_Tmap_traits@V?$basic_string@DU?$char_traits@D@std@@V?$allocator@D@2@@std@@ULoggerInfo@log4z@zsummer@@U?$less@V?$basic_string@DU?$char_traits@D@std@@V?$allocator@D@2@@std@@@2@V?$allocator@U?$pair@$$CBV?$basic_string@DU?$char_traits@D@std@@V?$allocator@D@2@@std@@ULoggerInfo@log4z@zsummer@@@std@@@2@$0A@@std@@@std@@QAEXXZ 00430840 f i log4z.obj
 0001:0002f930       ?_Free_proxy@?$_Vector_alloc@U?$_Vec_base_types@PAULogData@log4z@zsummer@@V?$allocator@PAULogData@log4z@zsummer@@@std@@@std@@@std@@QAEXXZ 00430930 f i log4z.obj
 0001:0002fa20       ?_Freeheadnode@?$_List_alloc@U?$_List_base_types@U?$pair@_JV?$basic_string@DU?$char_traits@D@std@@V?$allocator@D@2@@std@@@std@@V?$allocator@U?$pair@_JV?$basic_string@DU?$char_traits@D@std@@V?$allocator@D@2@@std@@@std@@@2@@std@@@std@@QAEXPAU?$_List_node@U?$pair@_JV?$basic_string@DU?$char_traits@D@std@@V?$allocator@D@2@@std@@@std@@PAX@2@@Z 00430a20 f i log4z.obj
 0001:0002fae0       ?_Freeheadnode@?$_Tree_comp_alloc@V?$_Tmap_traits@V?$basic_string@DU?$char_traits@D@std@@V?$allocator@D@2@@std@@HU?$less@V?$basic_string@DU?$char_traits@D@std@@V?$allocator@D@2@@std@@@2@V?$allocator@U?$pair@$$CBV?$basic_string@DU?$char_traits@D@std@@V?$allocator@D@2@@std@@H@std@@@2@$0A@@std@@@std@@QAEXPAU?$_Tree_node@U?$pair@$$CBV?$basic_string@DU?$char_traits@D@std@@V?$allocator@D@2@@std@@H@std@@PAX@2@@Z 00430ae0 f i log4z.obj
 0001:0002fbd0       ?_Freeheadnode@?$_Tree_comp_alloc@V?$_Tmap_traits@V?$basic_string@DU?$char_traits@D@std@@V?$allocator@D@2@@std@@ULoggerInfo@log4z@zsummer@@U?$less@V?$basic_string@DU?$char_traits@D@std@@V?$allocator@D@2@@std@@@2@V?$allocator@U?$pair@$$CBV?$basic_string@DU?$char_traits@D@std@@V?$allocator@D@2@@std@@ULoggerInfo@log4z@zsummer@@@std@@@2@$0A@@std@@@std@@QAEXPAU?$_Tree_node@U?$pair@$$CBV?$basic_string@DU?$char_traits@D@std@@V?$allocator@D@2@@std@@ULoggerInfo@log4z@zsummer@@@std@@PAX@2@@Z 00430bd0 f i log4z.obj
 0001:0002fcc0       ?_Freenode0@?$_Tree_comp_alloc@V?$_Tmap_traits@V?$basic_string@DU?$char_traits@D@std@@V?$allocator@D@2@@std@@HU?$less@V?$basic_string@DU?$char_traits@D@std@@V?$allocator@D@2@@std@@@2@V?$allocator@U?$pair@$$CBV?$basic_string@DU?$char_traits@D@std@@V?$allocator@D@2@@std@@H@std@@@2@$0A@@std@@@std@@QAEXPAU?$_Tree_node@U?$pair@$$CBV?$basic_string@DU?$char_traits@D@std@@V?$allocator@D@2@@std@@H@std@@PAX@2@@Z 00430cc0 f i log4z.obj
 0001:0002fdb0       ?_Freenode0@?$_Tree_comp_alloc@V?$_Tmap_traits@V?$basic_string@DU?$char_traits@D@std@@V?$allocator@D@2@@std@@ULoggerInfo@log4z@zsummer@@U?$less@V?$basic_string@DU?$char_traits@D@std@@V?$allocator@D@2@@std@@@2@V?$allocator@U?$pair@$$CBV?$basic_string@DU?$char_traits@D@std@@V?$allocator@D@2@@std@@ULoggerInfo@log4z@zsummer@@@std@@@2@$0A@@std@@@std@@QAEXPAU?$_Tree_node@U?$pair@$$CBV?$basic_string@DU?$char_traits@D@std@@V?$allocator@D@2@@std@@ULoggerInfo@log4z@zsummer@@@std@@PAX@2@@Z 00430db0 f i log4z.obj
 0001:0002fea0       ?_Freenode@?$_List_buy@U?$pair@_JV?$basic_string@DU?$char_traits@D@std@@V?$allocator@D@2@@std@@@std@@V?$allocator@U?$pair@_JV?$basic_string@DU?$char_traits@D@std@@V?$allocator@D@2@@std@@@std@@@2@@std@@QAEXPAU?$_List_node@U?$pair@_JV?$basic_string@DU?$char_traits@D@std@@V?$allocator@D@2@@std@@@std@@PAX@2@@Z 00430ea0 f i log4z.obj
 0001:0002ff90       ?_Get_data@?$_Deque_alloc@U?$_Deque_base_types@PAULogData@log4z@zsummer@@V?$allocator@PAULogData@log4z@zsummer@@@std@@@std@@@std@@QAEAAV?$_Deque_val@U?$_Deque_simple_types@PAULogData@log4z@zsummer@@@std@@@2@XZ 00430f90 f i log4z.obj
 0001:0002ffe0       ?_Get_data@?$_Deque_alloc@U?$_Deque_base_types@PAULogData@log4z@zsummer@@V?$allocator@PAULogData@log4z@zsummer@@@std@@@std@@@std@@QBEABV?$_Deque_val@U?$_Deque_simple_types@PAULogData@log4z@zsummer@@@std@@@2@XZ 00430fe0 f i log4z.obj
 0001:00030030       ?_Get_data@?$_List_alloc@U?$_List_base_types@U?$pair@_JV?$basic_string@DU?$char_traits@D@std@@V?$allocator@D@2@@std@@@std@@V?$allocator@U?$pair@_JV?$basic_string@DU?$char_traits@D@std@@V?$allocator@D@2@@std@@@std@@@2@@std@@@std@@QAEAAV?$_List_val@U?$_List_simple_types@U?$pair@_JV?$basic_string@DU?$char_traits@D@std@@V?$allocator@D@2@@std@@@std@@@std@@@2@XZ 00431030 f i log4z.obj
 0001:00030080       ?_Get_data@?$_List_alloc@U?$_List_base_types@U?$pair@_JV?$basic_string@DU?$char_traits@D@std@@V?$allocator@D@2@@std@@@std@@V?$allocator@U?$pair@_JV?$basic_string@DU?$char_traits@D@std@@V?$allocator@D@2@@std@@@std@@@2@@std@@@std@@QBEABV?$_List_val@U?$_List_simple_types@U?$pair@_JV?$basic_string@DU?$char_traits@D@std@@V?$allocator@D@2@@std@@@std@@@std@@@2@XZ 00431080 f i log4z.obj
 0001:000300d0       ?_Get_data@?$_Tree_comp_alloc@V?$_Tmap_traits@V?$basic_string@DU?$char_traits@D@std@@V?$allocator@D@2@@std@@HU?$less@V?$basic_string@DU?$char_traits@D@std@@V?$allocator@D@2@@std@@@2@V?$allocator@U?$pair@$$CBV?$basic_string@DU?$char_traits@D@std@@V?$allocator@D@2@@std@@H@std@@@2@$0A@@std@@@std@@QAEAAV?$_Tree_val@U?$_Tree_simple_types@U?$pair@$$CBV?$basic_string@DU?$char_traits@D@std@@V?$allocator@D@2@@std@@H@std@@@std@@@2@XZ 004310d0 f i log4z.obj
 0001:00030130       ?_Get_data@?$_Tree_comp_alloc@V?$_Tmap_traits@V?$basic_string@DU?$char_traits@D@std@@V?$allocator@D@2@@std@@HU?$less@V?$basic_string@DU?$char_traits@D@std@@V?$allocator@D@2@@std@@@2@V?$allocator@U?$pair@$$CBV?$basic_string@DU?$char_traits@D@std@@V?$allocator@D@2@@std@@H@std@@@2@$0A@@std@@@std@@QBEABV?$_Tree_val@U?$_Tree_simple_types@U?$pair@$$CBV?$basic_string@DU?$char_traits@D@std@@V?$allocator@D@2@@std@@H@std@@@std@@@2@XZ 00431130 f i log4z.obj
 0001:00030190       ?_Get_data@?$_Tree_comp_alloc@V?$_Tmap_traits@V?$basic_string@DU?$char_traits@D@std@@V?$allocator@D@2@@std@@ULoggerInfo@log4z@zsummer@@U?$less@V?$basic_string@DU?$char_traits@D@std@@V?$allocator@D@2@@std@@@2@V?$allocator@U?$pair@$$CBV?$basic_string@DU?$char_traits@D@std@@V?$allocator@D@2@@std@@ULoggerInfo@log4z@zsummer@@@std@@@2@$0A@@std@@@std@@QAEAAV?$_Tree_val@U?$_Tree_simple_types@U?$pair@$$CBV?$basic_string@DU?$char_traits@D@std@@V?$allocator@D@2@@std@@ULoggerInfo@log4z@zsummer@@@std@@@std@@@2@XZ 00431190 f i log4z.obj
 0001:000301f0       ?_Get_data@?$_Tree_comp_alloc@V?$_Tmap_traits@V?$basic_string@DU?$char_traits@D@std@@V?$allocator@D@2@@std@@ULoggerInfo@log4z@zsummer@@U?$less@V?$basic_string@DU?$char_traits@D@std@@V?$allocator@D@2@@std@@@2@V?$allocator@U?$pair@$$CBV?$basic_string@DU?$char_traits@D@std@@V?$allocator@D@2@@std@@ULoggerInfo@log4z@zsummer@@@std@@@2@$0A@@std@@@std@@QBEABV?$_Tree_val@U?$_Tree_simple_types@U?$pair@$$CBV?$basic_string@DU?$char_traits@D@std@@V?$allocator@D@2@@std@@ULoggerInfo@log4z@zsummer@@@std@@@std@@@2@XZ 004311f0 f i log4z.obj
 0001:00030250       ?_Get_data@?$_Vector_alloc@U?$_Vec_base_types@PAULogData@log4z@zsummer@@V?$allocator@PAULogData@log4z@zsummer@@@std@@@std@@@std@@QAEAAV?$_Vector_val@U?$_Simple_types@PAULogData@log4z@zsummer@@@std@@@2@XZ 00431250 f i log4z.obj
 0001:000302a0       ?_Get_data@?$_Vector_alloc@U?$_Vec_base_types@PAULogData@log4z@zsummer@@V?$allocator@PAULogData@log4z@zsummer@@@std@@@std@@@std@@QBEABV?$_Vector_val@U?$_Simple_types@PAULogData@log4z@zsummer@@@std@@@2@XZ 004312a0 f i log4z.obj
 0001:000302f0       ?_Get_first@?$_Compressed_pair@U?$_Wrap_alloc@V?$allocator@D@std@@@std@@V?$_String_val@U?$_Simple_types@D@std@@@2@$00@std@@QBEABU?$_Wrap_alloc@V?$allocator@D@std@@@2@XZ 004312f0 f i log4z.obj
 0001:00030330       ?_Get_first@?$_Compressed_pair@U?$_Wrap_alloc@V?$allocator@PAULogData@log4z@zsummer@@@std@@@std@@V?$_Deque_val@U?$_Deque_simple_types@PAULogData@log4z@zsummer@@@std@@@2@$00@std@@QAEAAU?$_Wrap_alloc@V?$allocator@PAULogData@log4z@zsummer@@@std@@@2@XZ 00431330 f i log4z.obj
 0001:00030370       ?_Get_first@?$_Compressed_pair@U?$_Wrap_alloc@V?$allocator@PAULogData@log4z@zsummer@@@std@@@std@@V?$_Deque_val@U?$_Deque_simple_types@PAULogData@log4z@zsummer@@@std@@@2@$00@std@@QBEABU?$_Wrap_alloc@V?$allocator@PAULogData@log4z@zsummer@@@std@@@2@XZ 00431370 f i log4z.obj
 0001:000303b0       ?_Get_first@?$_Compressed_pair@U?$_Wrap_alloc@V?$allocator@PAULogData@log4z@zsummer@@@std@@@std@@V?$_Vector_val@U?$_Simple_types@PAULogData@log4z@zsummer@@@std@@@2@$00@std@@QAEAAU?$_Wrap_alloc@V?$allocator@PAULogData@log4z@zsummer@@@std@@@2@XZ 004313b0 f i log4z.obj
 0001:000303f0       ?_Get_first@?$_Compressed_pair@U?$_Wrap_alloc@V?$allocator@PAULogData@log4z@zsummer@@@std@@@std@@V?$_Vector_val@U?$_Simple_types@PAULogData@log4z@zsummer@@@std@@@2@$00@std@@QBEABU?$_Wrap_alloc@V?$allocator@PAULogData@log4z@zsummer@@@std@@@2@XZ 004313f0 f i log4z.obj
 0001:00030430       ?_Get_first@?$_Compressed_pair@U?$_Wrap_alloc@V?$allocator@U?$_List_node@U?$pair@_JV?$basic_string@DU?$char_traits@D@std@@V?$allocator@D@2@@std@@@std@@PAX@std@@@std@@@std@@V?$_List_val@U?$_List_simple_types@U?$pair@_JV?$basic_string@DU?$char_traits@D@std@@V?$allocator@D@2@@std@@@std@@@std@@@2@$00@std@@QAEAAU?$_Wrap_alloc@V?$allocator@U?$_List_node@U?$pair@_JV?$basic_string@DU?$char_traits@D@std@@V?$allocator@D@2@@std@@@std@@PAX@std@@@std@@@2@XZ 00431430 f i log4z.obj
 0001:00030470       ?_Get_first@?$_Compressed_pair@U?$_Wrap_alloc@V?$allocator@U?$_List_node@U?$pair@_JV?$basic_string@DU?$char_traits@D@std@@V?$allocator@D@2@@std@@@std@@PAX@std@@@std@@@std@@V?$_List_val@U?$_List_simple_types@U?$pair@_JV?$basic_string@DU?$char_traits@D@std@@V?$allocator@D@2@@std@@@std@@@std@@@2@$00@std@@QBEABU?$_Wrap_alloc@V?$allocator@U?$_List_node@U?$pair@_JV?$basic_string@DU?$char_traits@D@std@@V?$allocator@D@2@@std@@@std@@PAX@std@@@std@@@2@XZ 00431470 f i log4z.obj
 0001:000304b0       ?_Get_first@?$_Compressed_pair@U?$_Wrap_alloc@V?$allocator@U?$_Tree_node@U?$pair@$$CBV?$basic_string@DU?$char_traits@D@std@@V?$allocator@D@2@@std@@H@std@@PAX@std@@@std@@@std@@V?$_Tree_val@U?$_Tree_simple_types@U?$pair@$$CBV?$basic_string@DU?$char_traits@D@std@@V?$allocator@D@2@@std@@H@std@@@std@@@2@$00@std@@QAEAAU?$_Wrap_alloc@V?$allocator@U?$_Tree_node@U?$pair@$$CBV?$basic_string@DU?$char_traits@D@std@@V?$allocator@D@2@@std@@H@std@@PAX@std@@@std@@@2@XZ 004314b0 f i log4z.obj
 0001:000304f0       ?_Get_first@?$_Compressed_pair@U?$_Wrap_alloc@V?$allocator@U?$_Tree_node@U?$pair@$$CBV?$basic_string@DU?$char_traits@D@std@@V?$allocator@D@2@@std@@H@std@@PAX@std@@@std@@@std@@V?$_Tree_val@U?$_Tree_simple_types@U?$pair@$$CBV?$basic_string@DU?$char_traits@D@std@@V?$allocator@D@2@@std@@H@std@@@std@@@2@$00@std@@QBEABU?$_Wrap_alloc@V?$allocator@U?$_Tree_node@U?$pair@$$CBV?$basic_string@DU?$char_traits@D@std@@V?$allocator@D@2@@std@@H@std@@PAX@std@@@std@@@2@XZ 004314f0 f i log4z.obj
 0001:00030530       ?_Get_first@?$_Compressed_pair@U?$_Wrap_alloc@V?$allocator@U?$_Tree_node@U?$pair@$$CBV?$basic_string@DU?$char_traits@D@std@@V?$allocator@D@2@@std@@ULoggerInfo@log4z@zsummer@@@std@@PAX@std@@@std@@@std@@V?$_Tree_val@U?$_Tree_simple_types@U?$pair@$$CBV?$basic_string@DU?$char_traits@D@std@@V?$allocator@D@2@@std@@ULoggerInfo@log4z@zsummer@@@std@@@std@@@2@$00@std@@QAEAAU?$_Wrap_alloc@V?$allocator@U?$_Tree_node@U?$pair@$$CBV?$basic_string@DU?$char_traits@D@std@@V?$allocator@D@2@@std@@ULoggerInfo@log4z@zsummer@@@std@@PAX@std@@@std@@@2@XZ 00431530 f i log4z.obj
 0001:00030570       ?_Get_first@?$_Compressed_pair@U?$_Wrap_alloc@V?$allocator@U?$_Tree_node@U?$pair@$$CBV?$basic_string@DU?$char_traits@D@std@@V?$allocator@D@2@@std@@ULoggerInfo@log4z@zsummer@@@std@@PAX@std@@@std@@@std@@V?$_Tree_val@U?$_Tree_simple_types@U?$pair@$$CBV?$basic_string@DU?$char_traits@D@std@@V?$allocator@D@2@@std@@ULoggerInfo@log4z@zsummer@@@std@@@std@@@2@$00@std@@QBEABU?$_Wrap_alloc@V?$allocator@U?$_Tree_node@U?$pair@$$CBV?$basic_string@DU?$char_traits@D@std@@V?$allocator@D@2@@std@@ULoggerInfo@log4z@zsummer@@@std@@PAX@std@@@std@@@2@XZ 00431570 f i log4z.obj
 0001:000305b0       ?_Get_first@?$_Compressed_pair@U?$less@V?$basic_string@DU?$char_traits@D@std@@V?$allocator@D@2@@std@@@std@@V?$_Compressed_pair@U?$_Wrap_alloc@V?$allocator@U?$_Tree_node@U?$pair@$$CBV?$basic_string@DU?$char_traits@D@std@@V?$allocator@D@2@@std@@H@std@@PAX@std@@@std@@@std@@V?$_Tree_val@U?$_Tree_simple_types@U?$pair@$$CBV?$basic_string@DU?$char_traits@D@std@@V?$allocator@D@2@@std@@H@std@@@std@@@2@$00@2@$00@std@@QAEAAU?$less@V?$basic_string@DU?$char_traits@D@std@@V?$allocator@D@2@@std@@@2@XZ 004315b0 f i log4z.obj
 0001:000305f0       ?_Get_first@?$_Compressed_pair@U?$less@V?$basic_string@DU?$char_traits@D@std@@V?$allocator@D@2@@std@@@std@@V?$_Compressed_pair@U?$_Wrap_alloc@V?$allocator@U?$_Tree_node@U?$pair@$$CBV?$basic_string@DU?$char_traits@D@std@@V?$allocator@D@2@@std@@H@std@@PAX@std@@@std@@@std@@V?$_Tree_val@U?$_Tree_simple_types@U?$pair@$$CBV?$basic_string@DU?$char_traits@D@std@@V?$allocator@D@2@@std@@H@std@@@std@@@2@$00@2@$00@std@@QBEABU?$less@V?$basic_string@DU?$char_traits@D@std@@V?$allocator@D@2@@std@@@2@XZ 004315f0 f i log4z.obj
 0001:00030630       ?_Get_first@?$_Compressed_pair@U?$less@V?$basic_string@DU?$char_traits@D@std@@V?$allocator@D@2@@std@@@std@@V?$_Compressed_pair@U?$_Wrap_alloc@V?$allocator@U?$_Tree_node@U?$pair@$$CBV?$basic_string@DU?$char_traits@D@std@@V?$allocator@D@2@@std@@ULoggerInfo@log4z@zsummer@@@std@@PAX@std@@@std@@@std@@V?$_Tree_val@U?$_Tree_simple_types@U?$pair@$$CBV?$basic_string@DU?$char_traits@D@std@@V?$allocator@D@2@@std@@ULoggerInfo@log4z@zsummer@@@std@@@std@@@2@$00@2@$00@std@@QAEAAU?$less@V?$basic_string@DU?$char_traits@D@std@@V?$allocator@D@2@@std@@@2@XZ 00431630 f i log4z.obj
 0001:00030670       ?_Get_first@?$_Compressed_pair@U?$less@V?$basic_string@DU?$char_traits@D@std@@V?$allocator@D@2@@std@@@std@@V?$_Compressed_pair@U?$_Wrap_alloc@V?$allocator@U?$_Tree_node@U?$pair@$$CBV?$basic_string@DU?$char_traits@D@std@@V?$allocator@D@2@@std@@ULoggerInfo@log4z@zsummer@@@std@@PAX@std@@@std@@@std@@V?$_Tree_val@U?$_Tree_simple_types@U?$pair@$$CBV?$basic_string@DU?$char_traits@D@std@@V?$allocator@D@2@@std@@ULoggerInfo@log4z@zsummer@@@std@@@std@@@2@$00@2@$00@std@@QBEABU?$less@V?$basic_string@DU?$char_traits@D@std@@V?$allocator@D@2@@std@@@2@XZ 00431670 f i log4z.obj
 0001:000306b0       ?_Get_second@?$_Compressed_pair@U?$_Wrap_alloc@V?$allocator@PAULogData@log4z@zsummer@@@std@@@std@@V?$_Deque_val@U?$_Deque_simple_types@PAULogData@log4z@zsummer@@@std@@@2@$00@std@@QAEAAV?$_Deque_val@U?$_Deque_simple_types@PAULogData@log4z@zsummer@@@std@@@2@XZ 004316b0 f i log4z.obj
 0001:000306f0       ?_Get_second@?$_Compressed_pair@U?$_Wrap_alloc@V?$allocator@PAULogData@log4z@zsummer@@@std@@@std@@V?$_Deque_val@U?$_Deque_simple_types@PAULogData@log4z@zsummer@@@std@@@2@$00@std@@QBEABV?$_Deque_val@U?$_Deque_simple_types@PAULogData@log4z@zsummer@@@std@@@2@XZ 004316f0 f i log4z.obj
 0001:00030730       ?_Get_second@?$_Compressed_pair@U?$_Wrap_alloc@V?$allocator@PAULogData@log4z@zsummer@@@std@@@std@@V?$_Vector_val@U?$_Simple_types@PAULogData@log4z@zsummer@@@std@@@2@$00@std@@QAEAAV?$_Vector_val@U?$_Simple_types@PAULogData@log4z@zsummer@@@std@@@2@XZ 00431730 f i log4z.obj
 0001:00030770       ?_Get_second@?$_Compressed_pair@U?$_Wrap_alloc@V?$allocator@PAULogData@log4z@zsummer@@@std@@@std@@V?$_Vector_val@U?$_Simple_types@PAULogData@log4z@zsummer@@@std@@@2@$00@std@@QBEABV?$_Vector_val@U?$_Simple_types@PAULogData@log4z@zsummer@@@std@@@2@XZ 00431770 f i log4z.obj
 0001:000307b0       ?_Get_second@?$_Compressed_pair@U?$_Wrap_alloc@V?$allocator@U?$_List_node@U?$pair@_JV?$basic_string@DU?$char_traits@D@std@@V?$allocator@D@2@@std@@@std@@PAX@std@@@std@@@std@@V?$_List_val@U?$_List_simple_types@U?$pair@_JV?$basic_string@DU?$char_traits@D@std@@V?$allocator@D@2@@std@@@std@@@std@@@2@$00@std@@QAEAAV?$_List_val@U?$_List_simple_types@U?$pair@_JV?$basic_string@DU?$char_traits@D@std@@V?$allocator@D@2@@std@@@std@@@std@@@2@XZ 004317b0 f i log4z.obj
 0001:000307f0       ?_Get_second@?$_Compressed_pair@U?$_Wrap_alloc@V?$allocator@U?$_List_node@U?$pair@_JV?$basic_string@DU?$char_traits@D@std@@V?$allocator@D@2@@std@@@std@@PAX@std@@@std@@@std@@V?$_List_val@U?$_List_simple_types@U?$pair@_JV?$basic_string@DU?$char_traits@D@std@@V?$allocator@D@2@@std@@@std@@@std@@@2@$00@std@@QBEABV?$_List_val@U?$_List_simple_types@U?$pair@_JV?$basic_string@DU?$char_traits@D@std@@V?$allocator@D@2@@std@@@std@@@std@@@2@XZ 004317f0 f i log4z.obj
 0001:00030830       ?_Get_second@?$_Compressed_pair@U?$_Wrap_alloc@V?$allocator@U?$_Tree_node@U?$pair@$$CBV?$basic_string@DU?$char_traits@D@std@@V?$allocator@D@2@@std@@H@std@@PAX@std@@@std@@@std@@V?$_Tree_val@U?$_Tree_simple_types@U?$pair@$$CBV?$basic_string@DU?$char_traits@D@std@@V?$allocator@D@2@@std@@H@std@@@std@@@2@$00@std@@QAEAAV?$_Tree_val@U?$_Tree_simple_types@U?$pair@$$CBV?$basic_string@DU?$char_traits@D@std@@V?$allocator@D@2@@std@@H@std@@@std@@@2@XZ 00431830 f i log4z.obj
 0001:00030870       ?_Get_second@?$_Compressed_pair@U?$_Wrap_alloc@V?$allocator@U?$_Tree_node@U?$pair@$$CBV?$basic_string@DU?$char_traits@D@std@@V?$allocator@D@2@@std@@H@std@@PAX@std@@@std@@@std@@V?$_Tree_val@U?$_Tree_simple_types@U?$pair@$$CBV?$basic_string@DU?$char_traits@D@std@@V?$allocator@D@2@@std@@H@std@@@std@@@2@$00@std@@QBEABV?$_Tree_val@U?$_Tree_simple_types@U?$pair@$$CBV?$basic_string@DU?$char_traits@D@std@@V?$allocator@D@2@@std@@H@std@@@std@@@2@XZ 00431870 f i log4z.obj
 0001:000308b0       ?_Get_second@?$_Compressed_pair@U?$_Wrap_alloc@V?$allocator@U?$_Tree_node@U?$pair@$$CBV?$basic_string@DU?$char_traits@D@std@@V?$allocator@D@2@@std@@ULoggerInfo@log4z@zsummer@@@std@@PAX@std@@@std@@@std@@V?$_Tree_val@U?$_Tree_simple_types@U?$pair@$$CBV?$basic_string@DU?$char_traits@D@std@@V?$allocator@D@2@@std@@ULoggerInfo@log4z@zsummer@@@std@@@std@@@2@$00@std@@QAEAAV?$_Tree_val@U?$_Tree_simple_types@U?$pair@$$CBV?$basic_string@DU?$char_traits@D@std@@V?$allocator@D@2@@std@@ULoggerInfo@log4z@zsummer@@@std@@@std@@@2@XZ 004318b0 f i log4z.obj
 0001:000308f0       ?_Get_second@?$_Compressed_pair@U?$_Wrap_alloc@V?$allocator@U?$_Tree_node@U?$pair@$$CBV?$basic_string@DU?$char_traits@D@std@@V?$allocator@D@2@@std@@ULoggerInfo@log4z@zsummer@@@std@@PAX@std@@@std@@@std@@V?$_Tree_val@U?$_Tree_simple_types@U?$pair@$$CBV?$basic_string@DU?$char_traits@D@std@@V?$allocator@D@2@@std@@ULoggerInfo@log4z@zsummer@@@std@@@std@@@2@$00@std@@QBEABV?$_Tree_val@U?$_Tree_simple_types@U?$pair@$$CBV?$basic_string@DU?$char_traits@D@std@@V?$allocator@D@2@@std@@ULoggerInfo@log4z@zsummer@@@std@@@std@@@2@XZ 004318f0 f i log4z.obj
 0001:00030930       ?_Get_second@?$_Compressed_pair@U?$less@V?$basic_string@DU?$char_traits@D@std@@V?$allocator@D@2@@std@@@std@@V?$_Compressed_pair@U?$_Wrap_alloc@V?$allocator@U?$_Tree_node@U?$pair@$$CBV?$basic_string@DU?$char_traits@D@std@@V?$allocator@D@2@@std@@H@std@@PAX@std@@@std@@@std@@V?$_Tree_val@U?$_Tree_simple_types@U?$pair@$$CBV?$basic_string@DU?$char_traits@D@std@@V?$allocator@D@2@@std@@H@std@@@std@@@2@$00@2@$00@std@@QAEAAV?$_Compressed_pair@U?$_Wrap_alloc@V?$allocator@U?$_Tree_node@U?$pair@$$CBV?$basic_string@DU?$char_traits@D@std@@V?$allocator@D@2@@std@@H@std@@PAX@std@@@std@@@std@@V?$_Tree_val@U?$_Tree_simple_types@U?$pair@$$CBV?$basic_string@DU?$char_traits@D@std@@V?$allocator@D@2@@std@@H@std@@@std@@@2@$00@2@XZ 00431930 f i log4z.obj
 0001:00030970       ?_Get_second@?$_Compressed_pair@U?$less@V?$basic_string@DU?$char_traits@D@std@@V?$allocator@D@2@@std@@@std@@V?$_Compressed_pair@U?$_Wrap_alloc@V?$allocator@U?$_Tree_node@U?$pair@$$CBV?$basic_string@DU?$char_traits@D@std@@V?$allocator@D@2@@std@@H@std@@PAX@std@@@std@@@std@@V?$_Tree_val@U?$_Tree_simple_types@U?$pair@$$CBV?$basic_string@DU?$char_traits@D@std@@V?$allocator@D@2@@std@@H@std@@@std@@@2@$00@2@$00@std@@QBEABV?$_Compressed_pair@U?$_Wrap_alloc@V?$allocator@U?$_Tree_node@U?$pair@$$CBV?$basic_string@DU?$char_traits@D@std@@V?$allocator@D@2@@std@@H@std@@PAX@std@@@std@@@std@@V?$_Tree_val@U?$_Tree_simple_types@U?$pair@$$CBV?$basic_string@DU?$char_traits@D@std@@V?$allocator@D@2@@std@@H@std@@@std@@@2@$00@2@XZ 00431970 f i log4z.obj
 0001:000309b0       ?_Get_second@?$_Compressed_pair@U?$less@V?$basic_string@DU?$char_traits@D@std@@V?$allocator@D@2@@std@@@std@@V?$_Compressed_pair@U?$_Wrap_alloc@V?$allocator@U?$_Tree_node@U?$pair@$$CBV?$basic_string@DU?$char_traits@D@std@@V?$allocator@D@2@@std@@ULoggerInfo@log4z@zsummer@@@std@@PAX@std@@@std@@@std@@V?$_Tree_val@U?$_Tree_simple_types@U?$pair@$$CBV?$basic_string@DU?$char_traits@D@std@@V?$allocator@D@2@@std@@ULoggerInfo@log4z@zsummer@@@std@@@std@@@2@$00@2@$00@std@@QAEAAV?$_Compressed_pair@U?$_Wrap_alloc@V?$allocator@U?$_Tree_node@U?$pair@$$CBV?$basic_string@DU?$char_traits@D@std@@V?$allocator@D@2@@std@@ULoggerInfo@log4z@zsummer@@@std@@PAX@std@@@std@@@std@@V?$_Tree_val@U?$_Tree_simple_types@U?$pair@$$CBV?$basic_string@DU?$char_traits@D@std@@V?$allocator@D@2@@std@@ULoggerInfo@log4z@zsummer@@@std@@@std@@@2@$00@2@XZ 004319b0 f i log4z.obj
 0001:000309f0       ?_Get_second@?$_Compressed_pair@U?$less@V?$basic_string@DU?$char_traits@D@std@@V?$allocator@D@2@@std@@@std@@V?$_Compressed_pair@U?$_Wrap_alloc@V?$allocator@U?$_Tree_node@U?$pair@$$CBV?$basic_string@DU?$char_traits@D@std@@V?$allocator@D@2@@std@@ULoggerInfo@log4z@zsummer@@@std@@PAX@std@@@std@@@std@@V?$_Tree_val@U?$_Tree_simple_types@U?$pair@$$CBV?$basic_string@DU?$char_traits@D@std@@V?$allocator@D@2@@std@@ULoggerInfo@log4z@zsummer@@@std@@@std@@@2@$00@2@$00@std@@QBEABV?$_Compressed_pair@U?$_Wrap_alloc@V?$allocator@U?$_Tree_node@U?$pair@$$CBV?$basic_string@DU?$char_traits@D@std@@V?$allocator@D@2@@std@@ULoggerInfo@log4z@zsummer@@@std@@PAX@std@@@std@@@std@@V?$_Tree_val@U?$_Tree_simple_types@U?$pair@$$CBV?$basic_string@DU?$char_traits@D@std@@V?$allocator@D@2@@std@@ULoggerInfo@log4z@zsummer@@@std@@@std@@@2@$00@2@XZ 004319f0 f i log4z.obj
 0001:00030a30       ?_Getal@?$_Deque_alloc@U?$_Deque_base_types@PAULogData@log4z@zsummer@@V?$allocator@PAULogData@log4z@zsummer@@@std@@@std@@@std@@QAEAAU?$_Wrap_alloc@V?$allocator@PAULogData@log4z@zsummer@@@std@@@2@XZ 00431a30 f i log4z.obj
 0001:00030a80       ?_Getal@?$_Deque_alloc@U?$_Deque_base_types@PAULogData@log4z@zsummer@@V?$allocator@PAULogData@log4z@zsummer@@@std@@@std@@@std@@QBEABU?$_Wrap_alloc@V?$allocator@PAULogData@log4z@zsummer@@@std@@@2@XZ 00431a80 f i log4z.obj
 0001:00030ad0       ?_Getal@?$_List_alloc@U?$_List_base_types@U?$pair@_JV?$basic_string@DU?$char_traits@D@std@@V?$allocator@D@2@@std@@@std@@V?$allocator@U?$pair@_JV?$basic_string@DU?$char_traits@D@std@@V?$allocator@D@2@@std@@@std@@@2@@std@@@std@@QAEAAU?$_Wrap_alloc@V?$allocator@U?$_List_node@U?$pair@_JV?$basic_string@DU?$char_traits@D@std@@V?$allocator@D@2@@std@@@std@@PAX@std@@@std@@@2@XZ 00431ad0 f i log4z.obj
 0001:00030b20       ?_Getal@?$_List_alloc@U?$_List_base_types@U?$pair@_JV?$basic_string@DU?$char_traits@D@std@@V?$allocator@D@2@@std@@@std@@V?$allocator@U?$pair@_JV?$basic_string@DU?$char_traits@D@std@@V?$allocator@D@2@@std@@@std@@@2@@std@@@std@@QBEABU?$_Wrap_alloc@V?$allocator@U?$_List_node@U?$pair@_JV?$basic_string@DU?$char_traits@D@std@@V?$allocator@D@2@@std@@@std@@PAX@std@@@std@@@2@XZ 00431b20 f i log4z.obj
 0001:00030b70       ?_Getal@?$_String_alloc@U?$_String_base_types@DV?$allocator@D@std@@@std@@@std@@QBEABU?$_Wrap_alloc@V?$allocator@D@std@@@2@XZ 00431b70 f i log4z.obj
 0001:00030bc0       ?_Getal@?$_Tree_comp_alloc@V?$_Tmap_traits@V?$basic_string@DU?$char_traits@D@std@@V?$allocator@D@2@@std@@HU?$less@V?$basic_string@DU?$char_traits@D@std@@V?$allocator@D@2@@std@@@2@V?$allocator@U?$pair@$$CBV?$basic_string@DU?$char_traits@D@std@@V?$allocator@D@2@@std@@H@std@@@2@$0A@@std@@@std@@QAEAAU?$_Wrap_alloc@V?$allocator@U?$_Tree_node@U?$pair@$$CBV?$basic_string@DU?$char_traits@D@std@@V?$allocator@D@2@@std@@H@std@@PAX@std@@@std@@@2@XZ 00431bc0 f i log4z.obj
 0001:00030c20       ?_Getal@?$_Tree_comp_alloc@V?$_Tmap_traits@V?$basic_string@DU?$char_traits@D@std@@V?$allocator@D@2@@std@@HU?$less@V?$basic_string@DU?$char_traits@D@std@@V?$allocator@D@2@@std@@@2@V?$allocator@U?$pair@$$CBV?$basic_string@DU?$char_traits@D@std@@V?$allocator@D@2@@std@@H@std@@@2@$0A@@std@@@std@@QBEABU?$_Wrap_alloc@V?$allocator@U?$_Tree_node@U?$pair@$$CBV?$basic_string@DU?$char_traits@D@std@@V?$allocator@D@2@@std@@H@std@@PAX@std@@@std@@@2@XZ 00431c20 f i log4z.obj
 0001:00030c80       ?_Getal@?$_Tree_comp_alloc@V?$_Tmap_traits@V?$basic_string@DU?$char_traits@D@std@@V?$allocator@D@2@@std@@ULoggerInfo@log4z@zsummer@@U?$less@V?$basic_string@DU?$char_traits@D@std@@V?$allocator@D@2@@std@@@2@V?$allocator@U?$pair@$$CBV?$basic_string@DU?$char_traits@D@std@@V?$allocator@D@2@@std@@ULoggerInfo@log4z@zsummer@@@std@@@2@$0A@@std@@@std@@QAEAAU?$_Wrap_alloc@V?$allocator@U?$_Tree_node@U?$pair@$$CBV?$basic_string@DU?$char_traits@D@std@@V?$allocator@D@2@@std@@ULoggerInfo@log4z@zsummer@@@std@@PAX@std@@@std@@@2@XZ 00431c80 f i log4z.obj
 0001:00030ce0       ?_Getal@?$_Tree_comp_alloc@V?$_Tmap_traits@V?$basic_string@DU?$char_traits@D@std@@V?$allocator@D@2@@std@@ULoggerInfo@log4z@zsummer@@U?$less@V?$basic_string@DU?$char_traits@D@std@@V?$allocator@D@2@@std@@@2@V?$allocator@U?$pair@$$CBV?$basic_string@DU?$char_traits@D@std@@V?$allocator@D@2@@std@@ULoggerInfo@log4z@zsummer@@@std@@@2@$0A@@std@@@std@@QBEABU?$_Wrap_alloc@V?$allocator@U?$_Tree_node@U?$pair@$$CBV?$basic_string@DU?$char_traits@D@std@@V?$allocator@D@2@@std@@ULoggerInfo@log4z@zsummer@@@std@@PAX@std@@@std@@@2@XZ 00431ce0 f i log4z.obj
 0001:00030d40       ?_Getal@?$_Vector_alloc@U?$_Vec_base_types@PAULogData@log4z@zsummer@@V?$allocator@PAULogData@log4z@zsummer@@@std@@@std@@@std@@QAEAAU?$_Wrap_alloc@V?$allocator@PAULogData@log4z@zsummer@@@std@@@2@XZ 00431d40 f i log4z.obj
 0001:00030d90       ?_Getal@?$_Vector_alloc@U?$_Vec_base_types@PAULogData@log4z@zsummer@@V?$allocator@PAULogData@log4z@zsummer@@@std@@@std@@@std@@QBEABU?$_Wrap_alloc@V?$allocator@PAULogData@log4z@zsummer@@@std@@@2@XZ 00431d90 f i log4z.obj
 0001:00030de0       ?_Getblock@?$_Deque_alloc@U?$_Deque_base_types@PAULogData@log4z@zsummer@@V?$allocator@PAULogData@log4z@zsummer@@@std@@@std@@@std@@QBEII@Z 00431de0 f i log4z.obj
 0001:00030e40       ?_Getblock@?$_Deque_val@U?$_Deque_simple_types@PAULogData@log4z@zsummer@@@std@@@std@@QBEII@Z 00431e40 f i log4z.obj
 0001:00030e90       ?_Getcomp@?$_Tree_comp_alloc@V?$_Tmap_traits@V?$basic_string@DU?$char_traits@D@std@@V?$allocator@D@2@@std@@HU?$less@V?$basic_string@DU?$char_traits@D@std@@V?$allocator@D@2@@std@@@2@V?$allocator@U?$pair@$$CBV?$basic_string@DU?$char_traits@D@std@@V?$allocator@D@2@@std@@H@std@@@2@$0A@@std@@@std@@QAEAAU?$less@V?$basic_string@DU?$char_traits@D@std@@V?$allocator@D@2@@std@@@2@XZ 00431e90 f i log4z.obj
 0001:00030ee0       ?_Getcomp@?$_Tree_comp_alloc@V?$_Tmap_traits@V?$basic_string@DU?$char_traits@D@std@@V?$allocator@D@2@@std@@HU?$less@V?$basic_string@DU?$char_traits@D@std@@V?$allocator@D@2@@std@@@2@V?$allocator@U?$pair@$$CBV?$basic_string@DU?$char_traits@D@std@@V?$allocator@D@2@@std@@H@std@@@2@$0A@@std@@@std@@QBEABU?$less@V?$basic_string@DU?$char_traits@D@std@@V?$allocator@D@2@@std@@@2@XZ 00431ee0 f i log4z.obj
 0001:00030f30       ?_Getcomp@?$_Tree_comp_alloc@V?$_Tmap_traits@V?$basic_string@DU?$char_traits@D@std@@V?$allocator@D@2@@std@@ULoggerInfo@log4z@zsummer@@U?$less@V?$basic_string@DU?$char_traits@D@std@@V?$allocator@D@2@@std@@@2@V?$allocator@U?$pair@$$CBV?$basic_string@DU?$char_traits@D@std@@V?$allocator@D@2@@std@@ULoggerInfo@log4z@zsummer@@@std@@@2@$0A@@std@@@std@@QAEAAU?$less@V?$basic_string@DU?$char_traits@D@std@@V?$allocator@D@2@@std@@@2@XZ 00431f30 f i log4z.obj
 0001:00030f80       ?_Getcomp@?$_Tree_comp_alloc@V?$_Tmap_traits@V?$basic_string@DU?$char_traits@D@std@@V?$allocator@D@2@@std@@ULoggerInfo@log4z@zsummer@@U?$less@V?$basic_string@DU?$char_traits@D@std@@V?$allocator@D@2@@std@@@2@V?$allocator@U?$pair@$$CBV?$basic_string@DU?$char_traits@D@std@@V?$allocator@D@2@@std@@ULoggerInfo@log4z@zsummer@@@std@@@2@$0A@@std@@@std@@QBEABU?$less@V?$basic_string@DU?$char_traits@D@std@@V?$allocator@D@2@@std@@@2@XZ 00431f80 f i log4z.obj
 0001:00030fd0       ?_Getcont@_Iterator_base12@std@@QBEPBU_Container_base12@2@XZ 00431fd0 f i log4z.obj
 0001:00031040       ?_Getpfirst@?$_Deque_alloc@U?$_Deque_base_types@PAULogData@log4z@zsummer@@V?$allocator@PAULogData@log4z@zsummer@@@std@@@std@@@std@@QBEPAPAU_Iterator_base12@2@XZ 00432040 f i log4z.obj
 0001:000310a0       ?_Getpfirst@?$_List_alloc@U?$_List_base_types@U?$pair@_JV?$basic_string@DU?$char_traits@D@std@@V?$allocator@D@2@@std@@@std@@V?$allocator@U?$pair@_JV?$basic_string@DU?$char_traits@D@std@@V?$allocator@D@2@@std@@@std@@@2@@std@@@std@@QBEPAPAU_Iterator_base12@2@XZ 004320a0 f i log4z.obj
 0001:00031100       ?_Getpfirst@?$_Tree_comp_alloc@V?$_Tmap_traits@V?$basic_string@DU?$char_traits@D@std@@V?$allocator@D@2@@std@@HU?$less@V?$basic_string@DU?$char_traits@D@std@@V?$allocator@D@2@@std@@@2@V?$allocator@U?$pair@$$CBV?$basic_string@DU?$char_traits@D@std@@V?$allocator@D@2@@std@@H@std@@@2@$0A@@std@@@std@@QBEPAPAU_Iterator_base12@2@XZ 00432100 f i log4z.obj
 0001:00031160       ?_Getpfirst@?$_Tree_comp_alloc@V?$_Tmap_traits@V?$basic_string@DU?$char_traits@D@std@@V?$allocator@D@2@@std@@ULoggerInfo@log4z@zsummer@@U?$less@V?$basic_string@DU?$char_traits@D@std@@V?$allocator@D@2@@std@@@2@V?$allocator@U?$pair@$$CBV?$basic_string@DU?$char_traits@D@std@@V?$allocator@D@2@@std@@ULoggerInfo@log4z@zsummer@@@std@@@2@$0A@@std@@@std@@QBEPAPAU_Iterator_base12@2@XZ 00432160 f i log4z.obj
 0001:000311c0       ?_Getpfirst@?$_Vector_alloc@U?$_Vec_base_types@PAULogData@log4z@zsummer@@V?$allocator@PAULogData@log4z@zsummer@@@std@@@std@@@std@@QBEPAPAU_Iterator_base12@2@XZ 004321c0 f i log4z.obj
 0001:00031220       ?_Getpfirst@_Container_base12@std@@QBEPAPAU_Iterator_base12@2@XZ 00432220 f i log4z.obj
 0001:00031290       ?_Getpnext@_Iterator_base12@std@@QAEPAPAU12@XZ 00432290 f i log4z.obj
 0001:000312d0       ?_Grow@?$basic_string@DU?$char_traits@D@std@@V?$allocator@D@2@@std@@QAE_NI_N@Z 004322d0 f i log4z.obj
 0001:00031400       ?_Grow_to@?$vector@PAULogData@log4z@zsummer@@V?$allocator@PAULogData@log4z@zsummer@@@std@@@std@@IBEII@Z 00432400 f i log4z.obj
 0001:000314b0       ?_Growmap@?$deque@PAULogData@log4z@zsummer@@V?$allocator@PAULogData@log4z@zsummer@@@std@@@std@@IAEXI@Z 004324b0 f i log4z.obj
 0001:00031840       ?_Incsize@?$list@U?$pair@_JV?$basic_string@DU?$char_traits@D@std@@V?$allocator@D@2@@std@@@std@@V?$allocator@U?$pair@_JV?$basic_string@DU?$char_traits@D@std@@V?$allocator@D@2@@std@@@std@@@2@@std@@QAEXI@Z 00432840 f i log4z.obj
 0001:000318f0       ?_Inside@?$basic_string@DU?$char_traits@D@std@@V?$allocator@D@2@@std@@QAE_NPBD@Z 004328f0 f i log4z.obj
 0001:00031980       ?_Inside@?$vector@PAULogData@log4z@zsummer@@V?$allocator@PAULogData@log4z@zsummer@@@std@@@std@@IBE_NPBQAULogData@log4z@zsummer@@@Z 00432980 f i log4z.obj
 0001:00031a30       ?_Isnil@?$_Tree_comp_alloc@V?$_Tmap_traits@V?$basic_string@DU?$char_traits@D@std@@V?$allocator@D@2@@std@@HU?$less@V?$basic_string@DU?$char_traits@D@std@@V?$allocator@D@2@@std@@@2@V?$allocator@U?$pair@$$CBV?$basic_string@DU?$char_traits@D@std@@V?$allocator@D@2@@std@@H@std@@@2@$0A@@std@@@std@@SAAADPAU?$_Tree_node@U?$pair@$$CBV?$basic_string@DU?$char_traits@D@std@@V?$allocator@D@2@@std@@H@std@@PAX@2@@Z 00432a30 f i log4z.obj
 0001:00031a80       ?_Isnil@?$_Tree_comp_alloc@V?$_Tmap_traits@V?$basic_string@DU?$char_traits@D@std@@V?$allocator@D@2@@std@@ULoggerInfo@log4z@zsummer@@U?$less@V?$basic_string@DU?$char_traits@D@std@@V?$allocator@D@2@@std@@@2@V?$allocator@U?$pair@$$CBV?$basic_string@DU?$char_traits@D@std@@V?$allocator@D@2@@std@@ULoggerInfo@log4z@zsummer@@@std@@@2@$0A@@std@@@std@@SAAADPAU?$_Tree_node@U?$pair@$$CBV?$basic_string@DU?$char_traits@D@std@@V?$allocator@D@2@@std@@ULoggerInfo@log4z@zsummer@@@std@@PAX@2@@Z 00432a80 f i log4z.obj
 0001:00031ad0       ?_Isnil@?$_Tree_val@U?$_Tree_simple_types@U?$pair@$$CBV?$basic_string@DU?$char_traits@D@std@@V?$allocator@D@2@@std@@H@std@@@std@@@std@@SAAADPAU?$_Tree_node@U?$pair@$$CBV?$basic_string@DU?$char_traits@D@std@@V?$allocator@D@2@@std@@H@std@@PAX@2@@Z 00432ad0 f i log4z.obj
 0001:00031b10       ?_Isnil@?$_Tree_val@U?$_Tree_simple_types@U?$pair@$$CBV?$basic_string@DU?$char_traits@D@std@@V?$allocator@D@2@@std@@ULoggerInfo@log4z@zsummer@@@std@@@std@@@std@@SAAADPAU?$_Tree_node@U?$pair@$$CBV?$basic_string@DU?$char_traits@D@std@@V?$allocator@D@2@@std@@ULoggerInfo@log4z@zsummer@@@std@@PAX@2@@Z 00432b10 f i log4z.obj
 0001:00031b50       ?_Key@?$_Tree@V?$_Tmap_traits@V?$basic_string@DU?$char_traits@D@std@@V?$allocator@D@2@@std@@HU?$less@V?$basic_string@DU?$char_traits@D@std@@V?$allocator@D@2@@std@@@2@V?$allocator@U?$pair@$$CBV?$basic_string@DU?$char_traits@D@std@@V?$allocator@D@2@@std@@H@std@@@2@$0A@@std@@@std@@IBEABV?$basic_string@DU?$char_traits@D@std@@V?$allocator@D@2@@2@PAU?$_Tree_node@U?$pair@$$CBV?$basic_string@DU?$char_traits@D@std@@V?$allocator@D@2@@std@@H@std@@PAX@2@@Z 00432b50 f i log4z.obj
 0001:00031bc0       ?_Key@?$_Tree@V?$_Tmap_traits@V?$basic_string@DU?$char_traits@D@std@@V?$allocator@D@2@@std@@ULoggerInfo@log4z@zsummer@@U?$less@V?$basic_string@DU?$char_traits@D@std@@V?$allocator@D@2@@std@@@2@V?$allocator@U?$pair@$$CBV?$basic_string@DU?$char_traits@D@std@@V?$allocator@D@2@@std@@ULoggerInfo@log4z@zsummer@@@std@@@2@$0A@@std@@@std@@IBEABV?$basic_string@DU?$char_traits@D@std@@V?$allocator@D@2@@2@PAU?$_Tree_node@U?$pair@$$CBV?$basic_string@DU?$char_traits@D@std@@V?$allocator@D@2@@std@@ULoggerInfo@log4z@zsummer@@@std@@PAX@2@@Z 00432bc0 f i log4z.obj
 0001:00031c30       ?_Kfn@?$_Tree@V?$_Tmap_traits@V?$basic_string@DU?$char_traits@D@std@@V?$allocator@D@2@@std@@HU?$less@V?$basic_string@DU?$char_traits@D@std@@V?$allocator@D@2@@std@@@2@V?$allocator@U?$pair@$$CBV?$basic_string@DU?$char_traits@D@std@@V?$allocator@D@2@@std@@H@std@@@2@$0A@@std@@@std@@IBEABV?$basic_string@DU?$char_traits@D@std@@V?$allocator@D@2@@2@ABU?$pair@$$CBV?$basic_string@DU?$char_traits@D@std@@V?$allocator@D@2@@std@@H@2@@Z 00432c30 f i log4z.obj
 0001:00031c90       ?_Kfn@?$_Tree@V?$_Tmap_traits@V?$basic_string@DU?$char_traits@D@std@@V?$allocator@D@2@@std@@ULoggerInfo@log4z@zsummer@@U?$less@V?$basic_string@DU?$char_traits@D@std@@V?$allocator@D@2@@std@@@2@V?$allocator@U?$pair@$$CBV?$basic_string@DU?$char_traits@D@std@@V?$allocator@D@2@@std@@ULoggerInfo@log4z@zsummer@@@std@@@2@$0A@@std@@@std@@IBEABV?$basic_string@DU?$char_traits@D@std@@V?$allocator@D@2@@2@ABU?$pair@$$CBV?$basic_string@DU?$char_traits@D@std@@V?$allocator@D@2@@std@@ULoggerInfo@log4z@zsummer@@@2@@Z 00432c90 f i log4z.obj
 0001:00031cf0       ?_Left@?$_Tree_comp_alloc@V?$_Tmap_traits@V?$basic_string@DU?$char_traits@D@std@@V?$allocator@D@2@@std@@HU?$less@V?$basic_string@DU?$char_traits@D@std@@V?$allocator@D@2@@std@@@2@V?$allocator@U?$pair@$$CBV?$basic_string@DU?$char_traits@D@std@@V?$allocator@D@2@@std@@H@std@@@2@$0A@@std@@@std@@SAAAPAU?$_Tree_node@U?$pair@$$CBV?$basic_string@DU?$char_traits@D@std@@V?$allocator@D@2@@std@@H@std@@PAX@2@PAU32@@Z 00432cf0 f i log4z.obj
 0001:00031d40       ?_Left@?$_Tree_comp_alloc@V?$_Tmap_traits@V?$basic_string@DU?$char_traits@D@std@@V?$allocator@D@2@@std@@ULoggerInfo@log4z@zsummer@@U?$less@V?$basic_string@DU?$char_traits@D@std@@V?$allocator@D@2@@std@@@2@V?$allocator@U?$pair@$$CBV?$basic_string@DU?$char_traits@D@std@@V?$allocator@D@2@@std@@ULoggerInfo@log4z@zsummer@@@std@@@2@$0A@@std@@@std@@SAAAPAU?$_Tree_node@U?$pair@$$CBV?$basic_string@DU?$char_traits@D@std@@V?$allocator@D@2@@std@@ULoggerInfo@log4z@zsummer@@@std@@PAX@2@PAU32@@Z 00432d40 f i log4z.obj
 0001:00031d90       ?_Left@?$_Tree_val@U?$_Tree_simple_types@U?$pair@$$CBV?$basic_string@DU?$char_traits@D@std@@V?$allocator@D@2@@std@@H@std@@@std@@@std@@SAAAPAU?$_Tree_node@U?$pair@$$CBV?$basic_string@DU?$char_traits@D@std@@V?$allocator@D@2@@std@@H@std@@PAX@2@PAU32@@Z 00432d90 f i log4z.obj
 0001:00031dd0       ?_Left@?$_Tree_val@U?$_Tree_simple_types@U?$pair@$$CBV?$basic_string@DU?$char_traits@D@std@@V?$allocator@D@2@@std@@ULoggerInfo@log4z@zsummer@@@std@@@std@@@std@@SAAAPAU?$_Tree_node@U?$pair@$$CBV?$basic_string@DU?$char_traits@D@std@@V?$allocator@D@2@@std@@ULoggerInfo@log4z@zsummer@@@std@@PAX@2@PAU32@@Z 00432dd0 f i log4z.obj
 0001:00031e10       ?_Lmost@?$_Tree@V?$_Tmap_traits@V?$basic_string@DU?$char_traits@D@std@@V?$allocator@D@2@@std@@HU?$less@V?$basic_string@DU?$char_traits@D@std@@V?$allocator@D@2@@std@@@2@V?$allocator@U?$pair@$$CBV?$basic_string@DU?$char_traits@D@std@@V?$allocator@D@2@@std@@H@std@@@2@$0A@@std@@@std@@IBEAAPAU?$_Tree_node@U?$pair@$$CBV?$basic_string@DU?$char_traits@D@std@@V?$allocator@D@2@@std@@H@std@@PAX@2@XZ 00432e10 f i log4z.obj
 0001:00031e70       ?_Lmost@?$_Tree@V?$_Tmap_traits@V?$basic_string@DU?$char_traits@D@std@@V?$allocator@D@2@@std@@ULoggerInfo@log4z@zsummer@@U?$less@V?$basic_string@DU?$char_traits@D@std@@V?$allocator@D@2@@std@@@2@V?$allocator@U?$pair@$$CBV?$basic_string@DU?$char_traits@D@std@@V?$allocator@D@2@@std@@ULoggerInfo@log4z@zsummer@@@std@@@2@$0A@@std@@@std@@IBEAAPAU?$_Tree_node@U?$pair@$$CBV?$basic_string@DU?$char_traits@D@std@@V?$allocator@D@2@@std@@ULoggerInfo@log4z@zsummer@@@std@@PAX@2@XZ 00432e70 f i log4z.obj
 0001:00031ed0       ?_Lrotate@?$_Tree@V?$_Tmap_traits@V?$basic_string@DU?$char_traits@D@std@@V?$allocator@D@2@@std@@HU?$less@V?$basic_string@DU?$char_traits@D@std@@V?$allocator@D@2@@std@@@2@V?$allocator@U?$pair@$$CBV?$basic_string@DU?$char_traits@D@std@@V?$allocator@D@2@@std@@H@std@@@2@$0A@@std@@@std@@IAEXPAU?$_Tree_node@U?$pair@$$CBV?$basic_string@DU?$char_traits@D@std@@V?$allocator@D@2@@std@@H@std@@PAX@2@@Z 00432ed0 f i log4z.obj
 0001:00032080       ?_Lrotate@?$_Tree@V?$_Tmap_traits@V?$basic_string@DU?$char_traits@D@std@@V?$allocator@D@2@@std@@ULoggerInfo@log4z@zsummer@@U?$less@V?$basic_string@DU?$char_traits@D@std@@V?$allocator@D@2@@std@@@2@V?$allocator@U?$pair@$$CBV?$basic_string@DU?$char_traits@D@std@@V?$allocator@D@2@@std@@ULoggerInfo@log4z@zsummer@@@std@@@2@$0A@@std@@@std@@IAEXPAU?$_Tree_node@U?$pair@$$CBV?$basic_string@DU?$char_traits@D@std@@V?$allocator@D@2@@std@@ULoggerInfo@log4z@zsummer@@@std@@PAX@2@@Z 00433080 f i log4z.obj
 0001:00032230       ?_Make_iter@?$list@U?$pair@_JV?$basic_string@DU?$char_traits@D@std@@V?$allocator@D@2@@std@@@std@@V?$allocator@U?$pair@_JV?$basic_string@DU?$char_traits@D@std@@V?$allocator@D@2@@std@@@std@@@2@@std@@QBE?AV?$_List_iterator@V?$_List_val@U?$_List_simple_types@U?$pair@_JV?$basic_string@DU?$char_traits@D@std@@V?$allocator@D@2@@std@@@std@@@std@@@std@@@2@V?$_List_const_iterator@V?$_List_val@U?$_List_simple_types@U?$pair@_JV?$basic_string@DU?$char_traits@D@std@@V?$allocator@D@2@@std@@@std@@@std@@@std@@@2@@Z 00433230 f i log4z.obj
 0001:000322e0       ?_Map@?$_Deque_alloc@U?$_Deque_base_types@PAULogData@log4z@zsummer@@V?$allocator@PAULogData@log4z@zsummer@@@std@@@std@@@std@@QAEAAPAPAPAULogData@log4z@zsummer@@XZ 004332e0 f i log4z.obj
 0001:00032340       ?_Mapsize@?$_Deque_alloc@U?$_Deque_base_types@PAULogData@log4z@zsummer@@V?$allocator@PAULogData@log4z@zsummer@@@std@@@std@@@std@@QAEAAIXZ 00433340 f i log4z.obj
 0001:000323a0       ?_Max@?$_Tree_comp_alloc@V?$_Tmap_traits@V?$basic_string@DU?$char_traits@D@std@@V?$allocator@D@2@@std@@HU?$less@V?$basic_string@DU?$char_traits@D@std@@V?$allocator@D@2@@std@@@2@V?$allocator@U?$pair@$$CBV?$basic_string@DU?$char_traits@D@std@@V?$allocator@D@2@@std@@H@std@@@2@$0A@@std@@@std@@SAPAU?$_Tree_node@U?$pair@$$CBV?$basic_string@DU?$char_traits@D@std@@V?$allocator@D@2@@std@@H@std@@PAX@2@PAU32@@Z 004333a0 f i log4z.obj
 0001:000323f0       ?_Max@?$_Tree_comp_alloc@V?$_Tmap_traits@V?$basic_string@DU?$char_traits@D@std@@V?$allocator@D@2@@std@@ULoggerInfo@log4z@zsummer@@U?$less@V?$basic_string@DU?$char_traits@D@std@@V?$allocator@D@2@@std@@@2@V?$allocator@U?$pair@$$CBV?$basic_string@DU?$char_traits@D@std@@V?$allocator@D@2@@std@@ULoggerInfo@log4z@zsummer@@@std@@@2@$0A@@std@@@std@@SAPAU?$_Tree_node@U?$pair@$$CBV?$basic_string@DU?$char_traits@D@std@@V?$allocator@D@2@@std@@ULoggerInfo@log4z@zsummer@@@std@@PAX@2@PAU32@@Z 004333f0 f i log4z.obj
 0001:00032440       ?_Max@?$_Tree_val@U?$_Tree_simple_types@U?$pair@$$CBV?$basic_string@DU?$char_traits@D@std@@V?$allocator@D@2@@std@@H@std@@@std@@@std@@SAPAU?$_Tree_node@U?$pair@$$CBV?$basic_string@DU?$char_traits@D@std@@V?$allocator@D@2@@std@@H@std@@PAX@2@PAU32@@Z 00433440 f i log4z.obj
 0001:000324c0       ?_Max@?$_Tree_val@U?$_Tree_simple_types@U?$pair@$$CBV?$basic_string@DU?$char_traits@D@std@@V?$allocator@D@2@@std@@ULoggerInfo@log4z@zsummer@@@std@@@std@@@std@@SAPAU?$_Tree_node@U?$pair@$$CBV?$basic_string@DU?$char_traits@D@std@@V?$allocator@D@2@@std@@ULoggerInfo@log4z@zsummer@@@std@@PAX@2@PAU32@@Z 004334c0 f i log4z.obj
 0001:00032540       ?_Min@?$_Tree_comp_alloc@V?$_Tmap_traits@V?$basic_string@DU?$char_traits@D@std@@V?$allocator@D@2@@std@@HU?$less@V?$basic_string@DU?$char_traits@D@std@@V?$allocator@D@2@@std@@@2@V?$allocator@U?$pair@$$CBV?$basic_string@DU?$char_traits@D@std@@V?$allocator@D@2@@std@@H@std@@@2@$0A@@std@@@std@@SAPAU?$_Tree_node@U?$pair@$$CBV?$basic_string@DU?$char_traits@D@std@@V?$allocator@D@2@@std@@H@std@@PAX@2@PAU32@@Z 00433540 f i log4z.obj
 0001:00032590       ?_Min@?$_Tree_comp_alloc@V?$_Tmap_traits@V?$basic_string@DU?$char_traits@D@std@@V?$allocator@D@2@@std@@ULoggerInfo@log4z@zsummer@@U?$less@V?$basic_string@DU?$char_traits@D@std@@V?$allocator@D@2@@std@@@2@V?$allocator@U?$pair@$$CBV?$basic_string@DU?$char_traits@D@std@@V?$allocator@D@2@@std@@ULoggerInfo@log4z@zsummer@@@std@@@2@$0A@@std@@@std@@SAPAU?$_Tree_node@U?$pair@$$CBV?$basic_string@DU?$char_traits@D@std@@V?$allocator@D@2@@std@@ULoggerInfo@log4z@zsummer@@@std@@PAX@2@PAU32@@Z 00433590 f i log4z.obj
 0001:000325e0       ?_Min@?$_Tree_val@U?$_Tree_simple_types@U?$pair@$$CBV?$basic_string@DU?$char_traits@D@std@@V?$allocator@D@2@@std@@H@std@@@std@@@std@@SAPAU?$_Tree_node@U?$pair@$$CBV?$basic_string@DU?$char_traits@D@std@@V?$allocator@D@2@@std@@H@std@@PAX@2@PAU32@@Z 004335e0 f i log4z.obj
 0001:00032660       ?_Min@?$_Tree_val@U?$_Tree_simple_types@U?$pair@$$CBV?$basic_string@DU?$char_traits@D@std@@V?$allocator@D@2@@std@@ULoggerInfo@log4z@zsummer@@@std@@@std@@@std@@SAPAU?$_Tree_node@U?$pair@$$CBV?$basic_string@DU?$char_traits@D@std@@V?$allocator@D@2@@std@@ULoggerInfo@log4z@zsummer@@@std@@PAX@2@PAU32@@Z 00433660 f i log4z.obj
 0001:000326e0       ?_Move_alloc@?$_String_alloc@U?$_String_base_types@DV?$allocator@D@std@@@std@@@std@@QAEXAAU?$_Wrap_alloc@V?$allocator@D@std@@@2@@Z 004336e0 f i log4z.obj
 0001:00032760       ?_Myend@?$_Vector_alloc@U?$_Vec_base_types@PAULogData@log4z@zsummer@@V?$allocator@PAULogData@log4z@zsummer@@@std@@@std@@@std@@QAEAAPAPAULogData@log4z@zsummer@@XZ 00433760 f i log4z.obj
 0001:000327c0       ?_Myend@?$_Vector_alloc@U?$_Vec_base_types@PAULogData@log4z@zsummer@@V?$allocator@PAULogData@log4z@zsummer@@@std@@@std@@@std@@QBEABQAPAULogData@log4z@zsummer@@XZ 004337c0 f i log4z.obj
 0001:00032820       ?_Myfirst@?$_Vector_alloc@U?$_Vec_base_types@PAULogData@log4z@zsummer@@V?$allocator@PAULogData@log4z@zsummer@@@std@@@std@@@std@@QAEAAPAPAULogData@log4z@zsummer@@XZ 00433820 f i log4z.obj
 0001:00032880       ?_Myfirst@?$_Vector_alloc@U?$_Vec_base_types@PAULogData@log4z@zsummer@@V?$allocator@PAULogData@log4z@zsummer@@@std@@@std@@@std@@QBEABQAPAULogData@log4z@zsummer@@XZ 00433880 f i log4z.obj
 0001:000328e0       ?_Myhead@?$_List_alloc@U?$_List_base_types@U?$pair@_JV?$basic_string@DU?$char_traits@D@std@@V?$allocator@D@2@@std@@@std@@V?$allocator@U?$pair@_JV?$basic_string@DU?$char_traits@D@std@@V?$allocator@D@2@@std@@@std@@@2@@std@@@std@@QAEAAPAU?$_List_node@U?$pair@_JV?$basic_string@DU?$char_traits@D@std@@V?$allocator@D@2@@std@@@std@@PAX@2@XZ 004338e0 f i log4z.obj
 0001:00032940       ?_Myhead@?$_List_alloc@U?$_List_base_types@U?$pair@_JV?$basic_string@DU?$char_traits@D@std@@V?$allocator@D@2@@std@@@std@@V?$allocator@U?$pair@_JV?$basic_string@DU?$char_traits@D@std@@V?$allocator@D@2@@std@@@std@@@2@@std@@@std@@QBEABQAU?$_List_node@U?$pair@_JV?$basic_string@DU?$char_traits@D@std@@V?$allocator@D@2@@std@@@std@@PAX@2@XZ 00433940 f i log4z.obj
 0001:000329a0       ?_Myhead@?$_Tree_comp_alloc@V?$_Tmap_traits@V?$basic_string@DU?$char_traits@D@std@@V?$allocator@D@2@@std@@HU?$less@V?$basic_string@DU?$char_traits@D@std@@V?$allocator@D@2@@std@@@2@V?$allocator@U?$pair@$$CBV?$basic_string@DU?$char_traits@D@std@@V?$allocator@D@2@@std@@H@std@@@2@$0A@@std@@@std@@QAEAAPAU?$_Tree_node@U?$pair@$$CBV?$basic_string@DU?$char_traits@D@std@@V?$allocator@D@2@@std@@H@std@@PAX@2@XZ 004339a0 f i log4z.obj
 0001:00032a00       ?_Myhead@?$_Tree_comp_alloc@V?$_Tmap_traits@V?$basic_string@DU?$char_traits@D@std@@V?$allocator@D@2@@std@@HU?$less@V?$basic_string@DU?$char_traits@D@std@@V?$allocator@D@2@@std@@@2@V?$allocator@U?$pair@$$CBV?$basic_string@DU?$char_traits@D@std@@V?$allocator@D@2@@std@@H@std@@@2@$0A@@std@@@std@@QBEABQAU?$_Tree_node@U?$pair@$$CBV?$basic_string@DU?$char_traits@D@std@@V?$allocator@D@2@@std@@H@std@@PAX@2@XZ 00433a00 f i log4z.obj
 0001:00032a60       ?_Myhead@?$_Tree_comp_alloc@V?$_Tmap_traits@V?$basic_string@DU?$char_traits@D@std@@V?$allocator@D@2@@std@@ULoggerInfo@log4z@zsummer@@U?$less@V?$basic_string@DU?$char_traits@D@std@@V?$allocator@D@2@@std@@@2@V?$allocator@U?$pair@$$CBV?$basic_string@DU?$char_traits@D@std@@V?$allocator@D@2@@std@@ULoggerInfo@log4z@zsummer@@@std@@@2@$0A@@std@@@std@@QAEAAPAU?$_Tree_node@U?$pair@$$CBV?$basic_string@DU?$char_traits@D@std@@V?$allocator@D@2@@std@@ULoggerInfo@log4z@zsummer@@@std@@PAX@2@XZ 00433a60 f i log4z.obj
 0001:00032ac0       ?_Myhead@?$_Tree_comp_alloc@V?$_Tmap_traits@V?$basic_string@DU?$char_traits@D@std@@V?$allocator@D@2@@std@@ULoggerInfo@log4z@zsummer@@U?$less@V?$basic_string@DU?$char_traits@D@std@@V?$allocator@D@2@@std@@@2@V?$allocator@U?$pair@$$CBV?$basic_string@DU?$char_traits@D@std@@V?$allocator@D@2@@std@@ULoggerInfo@log4z@zsummer@@@std@@@2@$0A@@std@@@std@@QBEABQAU?$_Tree_node@U?$pair@$$CBV?$basic_string@DU?$char_traits@D@std@@V?$allocator@D@2@@std@@ULoggerInfo@log4z@zsummer@@@std@@PAX@2@XZ 00433ac0 f i log4z.obj
 0001:00032b20       ?_Mylast@?$_Vector_alloc@U?$_Vec_base_types@PAULogData@log4z@zsummer@@V?$allocator@PAULogData@log4z@zsummer@@@std@@@std@@@std@@QAEAAPAPAULogData@log4z@zsummer@@XZ 00433b20 f i log4z.obj
 0001:00032b80       ?_Mylast@?$_Vector_alloc@U?$_Vec_base_types@PAULogData@log4z@zsummer@@V?$allocator@PAULogData@log4z@zsummer@@@std@@@std@@@std@@QBEABQAPAULogData@log4z@zsummer@@XZ 00433b80 f i log4z.obj
 0001:00032be0       ?_Mynode@?$_List_unchecked_const_iterator@V?$_List_val@U?$_List_simple_types@U?$pair@_JV?$basic_string@DU?$char_traits@D@std@@V?$allocator@D@2@@std@@@std@@@std@@@std@@U_Iterator_base0@2@@std@@QBEPAU?$_List_node@U?$pair@_JV?$basic_string@DU?$char_traits@D@std@@V?$allocator@D@2@@std@@@std@@PAX@2@XZ 00433be0 f i log4z.obj
 0001:00032c20       ?_Mynode@?$_List_unchecked_const_iterator@V?$_List_val@U?$_List_simple_types@U?$pair@_JV?$basic_string@DU?$char_traits@D@std@@V?$allocator@D@2@@std@@@std@@@std@@@std@@U_Iterator_base12@2@@std@@QBEPAU?$_List_node@U?$pair@_JV?$basic_string@DU?$char_traits@D@std@@V?$allocator@D@2@@std@@@std@@PAX@2@XZ 00433c20 f i log4z.obj
 0001:00032c60       ?_Mynode@?$_Tree_unchecked_const_iterator@V?$_Tree_val@U?$_Tree_simple_types@U?$pair@$$CBV?$basic_string@DU?$char_traits@D@std@@V?$allocator@D@2@@std@@H@std@@@std@@@std@@U_Iterator_base12@2@@std@@QBEPAU?$_Tree_node@U?$pair@$$CBV?$basic_string@DU?$char_traits@D@std@@V?$allocator@D@2@@std@@H@std@@PAX@2@XZ 00433c60 f i log4z.obj
 0001:00032ca0       ?_Mynode@?$_Tree_unchecked_const_iterator@V?$_Tree_val@U?$_Tree_simple_types@U?$pair@$$CBV?$basic_string@DU?$char_traits@D@std@@V?$allocator@D@2@@std@@ULoggerInfo@log4z@zsummer@@@std@@@std@@@std@@U_Iterator_base12@2@@std@@QBEPAU?$_Tree_node@U?$pair@$$CBV?$basic_string@DU?$char_traits@D@std@@V?$allocator@D@2@@std@@ULoggerInfo@log4z@zsummer@@@std@@PAX@2@XZ 00433ca0 f i log4z.obj
 0001:00032ce0       ?_Myoff@?$_Deque_alloc@U?$_Deque_base_types@PAULogData@log4z@zsummer@@V?$allocator@PAULogData@log4z@zsummer@@@std@@@std@@@std@@QAEAAIXZ 00433ce0 f i log4z.obj
 0001:00032d40       ?_Myoff@?$_Deque_alloc@U?$_Deque_base_types@PAULogData@log4z@zsummer@@V?$allocator@PAULogData@log4z@zsummer@@@std@@@std@@@std@@QBEABIXZ 00433d40 f i log4z.obj
 0001:00032da0       ?_Myproxy@?$_Deque_alloc@U?$_Deque_base_types@PAULogData@log4z@zsummer@@V?$allocator@PAULogData@log4z@zsummer@@@std@@@std@@@std@@QAEAAPAU_Container_proxy@2@XZ 00433da0 f i log4z.obj
 0001:00032df0       ?_Myproxy@?$_List_alloc@U?$_List_base_types@U?$pair@_JV?$basic_string@DU?$char_traits@D@std@@V?$allocator@D@2@@std@@@std@@V?$allocator@U?$pair@_JV?$basic_string@DU?$char_traits@D@std@@V?$allocator@D@2@@std@@@std@@@2@@std@@@std@@QAEAAPAU_Container_proxy@2@XZ 00433df0 f i log4z.obj
 0001:00032e40       ?_Myproxy@?$_Tree_comp_alloc@V?$_Tmap_traits@V?$basic_string@DU?$char_traits@D@std@@V?$allocator@D@2@@std@@HU?$less@V?$basic_string@DU?$char_traits@D@std@@V?$allocator@D@2@@std@@@2@V?$allocator@U?$pair@$$CBV?$basic_string@DU?$char_traits@D@std@@V?$allocator@D@2@@std@@H@std@@@2@$0A@@std@@@std@@QAEAAPAU_Container_proxy@2@XZ 00433e40 f i log4z.obj
 0001:00032e90       ?_Myproxy@?$_Tree_comp_alloc@V?$_Tmap_traits@V?$basic_string@DU?$char_traits@D@std@@V?$allocator@D@2@@std@@ULoggerInfo@log4z@zsummer@@U?$less@V?$basic_string@DU?$char_traits@D@std@@V?$allocator@D@2@@std@@@2@V?$allocator@U?$pair@$$CBV?$basic_string@DU?$char_traits@D@std@@V?$allocator@D@2@@std@@ULoggerInfo@log4z@zsummer@@@std@@@2@$0A@@std@@@std@@QAEAAPAU_Container_proxy@2@XZ 00433e90 f i log4z.obj
 0001:00032ee0       ?_Myproxy@?$_Vector_alloc@U?$_Vec_base_types@PAULogData@log4z@zsummer@@V?$allocator@PAULogData@log4z@zsummer@@@std@@@std@@@std@@QAEAAPAU_Container_proxy@2@XZ 00433ee0 f i log4z.obj
 0001:00032f30       ?_Myptr@?$_String_alloc@U?$_String_base_types@DV?$allocator@D@std@@@std@@@std@@QAEPADXZ 00433f30 f i log4z.obj
 0001:00032f90       ?_Mysize@?$_Deque_alloc@U?$_Deque_base_types@PAULogData@log4z@zsummer@@V?$allocator@PAULogData@log4z@zsummer@@@std@@@std@@@std@@QAEAAIXZ 00433f90 f i log4z.obj
 0001:00032ff0       ?_Mysize@?$_Deque_alloc@U?$_Deque_base_types@PAULogData@log4z@zsummer@@V?$allocator@PAULogData@log4z@zsummer@@@std@@@std@@@std@@QBEABIXZ 00433ff0 f i log4z.obj
 0001:00033050       ?_Mysize@?$_List_alloc@U?$_List_base_types@U?$pair@_JV?$basic_string@DU?$char_traits@D@std@@V?$allocator@D@2@@std@@@std@@V?$allocator@U?$pair@_JV?$basic_string@DU?$char_traits@D@std@@V?$allocator@D@2@@std@@@std@@@2@@std@@@std@@QAEAAIXZ 00434050 f i log4z.obj
 0001:000330b0       ?_Mysize@?$_List_alloc@U?$_List_base_types@U?$pair@_JV?$basic_string@DU?$char_traits@D@std@@V?$allocator@D@2@@std@@@std@@V?$allocator@U?$pair@_JV?$basic_string@DU?$char_traits@D@std@@V?$allocator@D@2@@std@@@std@@@2@@std@@@std@@QBEABIXZ 004340b0 f i log4z.obj
 0001:00033110       ?_Mysize@?$_String_alloc@U?$_String_base_types@DV?$allocator@D@std@@@std@@@std@@QAEAAIXZ 00434110 f i log4z.obj
 0001:00033170       ?_Mysize@?$_Tree_comp_alloc@V?$_Tmap_traits@V?$basic_string@DU?$char_traits@D@std@@V?$allocator@D@2@@std@@HU?$less@V?$basic_string@DU?$char_traits@D@std@@V?$allocator@D@2@@std@@@2@V?$allocator@U?$pair@$$CBV?$basic_string@DU?$char_traits@D@std@@V?$allocator@D@2@@std@@H@std@@@2@$0A@@std@@@std@@QAEAAIXZ 00434170 f i log4z.obj
 0001:000331d0       ?_Mysize@?$_Tree_comp_alloc@V?$_Tmap_traits@V?$basic_string@DU?$char_traits@D@std@@V?$allocator@D@2@@std@@HU?$less@V?$basic_string@DU?$char_traits@D@std@@V?$allocator@D@2@@std@@@2@V?$allocator@U?$pair@$$CBV?$basic_string@DU?$char_traits@D@std@@V?$allocator@D@2@@std@@H@std@@@2@$0A@@std@@@std@@QBEABIXZ 004341d0 f i log4z.obj
 0001:00033230       ?_Mysize@?$_Tree_comp_alloc@V?$_Tmap_traits@V?$basic_string@DU?$char_traits@D@std@@V?$allocator@D@2@@std@@ULoggerInfo@log4z@zsummer@@U?$less@V?$basic_string@DU?$char_traits@D@std@@V?$allocator@D@2@@std@@@2@V?$allocator@U?$pair@$$CBV?$basic_string@DU?$char_traits@D@std@@V?$allocator@D@2@@std@@ULoggerInfo@log4z@zsummer@@@std@@@2@$0A@@std@@@std@@QAEAAIXZ 00434230 f i log4z.obj
 0001:00033290       ?_Myval@?$_List_alloc@U?$_List_base_types@U?$pair@_JV?$basic_string@DU?$char_traits@D@std@@V?$allocator@D@2@@std@@@std@@V?$allocator@U?$pair@_JV?$basic_string@DU?$char_traits@D@std@@V?$allocator@D@2@@std@@@std@@@2@@std@@@std@@SAAAU?$pair@_JV?$basic_string@DU?$char_traits@D@std@@V?$allocator@D@2@@std@@@2@PAU?$_List_node@U?$pair@_JV?$basic_string@DU?$char_traits@D@std@@V?$allocator@D@2@@std@@@std@@PAX@2@@Z 00434290 f i log4z.obj
 0001:000332e0       ?_Myval@?$_List_val@U?$_List_simple_types@U?$pair@_JV?$basic_string@DU?$char_traits@D@std@@V?$allocator@D@2@@std@@@std@@@std@@@std@@SAAAU?$pair@_JV?$basic_string@DU?$char_traits@D@std@@V?$allocator@D@2@@std@@@2@PAU?$_List_node@U?$pair@_JV?$basic_string@DU?$char_traits@D@std@@V?$allocator@D@2@@std@@@std@@PAX@2@@Z 004342e0 f i log4z.obj
 0001:00033320       ?_Myval@?$_Tree_comp_alloc@V?$_Tmap_traits@V?$basic_string@DU?$char_traits@D@std@@V?$allocator@D@2@@std@@HU?$less@V?$basic_string@DU?$char_traits@D@std@@V?$allocator@D@2@@std@@@2@V?$allocator@U?$pair@$$CBV?$basic_string@DU?$char_traits@D@std@@V?$allocator@D@2@@std@@H@std@@@2@$0A@@std@@@std@@SAAAU?$pair@$$CBV?$basic_string@DU?$char_traits@D@std@@V?$allocator@D@2@@std@@H@2@PAU?$_Tree_node@U?$pair@$$CBV?$basic_string@DU?$char_traits@D@std@@V?$allocator@D@2@@std@@H@std@@PAX@2@@Z 00434320 f i log4z.obj
 0001:00033370       ?_Myval@?$_Tree_comp_alloc@V?$_Tmap_traits@V?$basic_string@DU?$char_traits@D@std@@V?$allocator@D@2@@std@@ULoggerInfo@log4z@zsummer@@U?$less@V?$basic_string@DU?$char_traits@D@std@@V?$allocator@D@2@@std@@@2@V?$allocator@U?$pair@$$CBV?$basic_string@DU?$char_traits@D@std@@V?$allocator@D@2@@std@@ULoggerInfo@log4z@zsummer@@@std@@@2@$0A@@std@@@std@@SAAAU?$pair@$$CBV?$basic_string@DU?$char_traits@D@std@@V?$allocator@D@2@@std@@ULoggerInfo@log4z@zsummer@@@2@PAU?$_Tree_node@U?$pair@$$CBV?$basic_string@DU?$char_traits@D@std@@V?$allocator@D@2@@std@@ULoggerInfo@log4z@zsummer@@@std@@PAX@2@@Z 00434370 f i log4z.obj
 0001:000333c0       ?_Myval@?$_Tree_val@U?$_Tree_simple_types@U?$pair@$$CBV?$basic_string@DU?$char_traits@D@std@@V?$allocator@D@2@@std@@H@std@@@std@@@std@@SAAAU?$pair@$$CBV?$basic_string@DU?$char_traits@D@std@@V?$allocator@D@2@@std@@H@2@PAU?$_Tree_node@U?$pair@$$CBV?$basic_string@DU?$char_traits@D@std@@V?$allocator@D@2@@std@@H@std@@PAX@2@@Z 004343c0 f i log4z.obj
 0001:00033400       ?_Myval@?$_Tree_val@U?$_Tree_simple_types@U?$pair@$$CBV?$basic_string@DU?$char_traits@D@std@@V?$allocator@D@2@@std@@ULoggerInfo@log4z@zsummer@@@std@@@std@@@std@@SAAAU?$pair@$$CBV?$basic_string@DU?$char_traits@D@std@@V?$allocator@D@2@@std@@ULoggerInfo@log4z@zsummer@@@2@PAU?$_Tree_node@U?$pair@$$CBV?$basic_string@DU?$char_traits@D@std@@V?$allocator@D@2@@std@@ULoggerInfo@log4z@zsummer@@@std@@PAX@2@@Z 00434400 f i log4z.obj
 0001:00033440       ?_Nextnode@?$_List_alloc@U?$_List_base_types@U?$pair@_JV?$basic_string@DU?$char_traits@D@std@@V?$allocator@D@2@@std@@@std@@V?$allocator@U?$pair@_JV?$basic_string@DU?$char_traits@D@std@@V?$allocator@D@2@@std@@@std@@@2@@std@@@std@@SAAAPAU?$_List_node@U?$pair@_JV?$basic_string@DU?$char_traits@D@std@@V?$allocator@D@2@@std@@@std@@PAX@2@PAU32@@Z 00434440 f i log4z.obj
 0001:00033490       ?_Nextnode@?$_List_val@U?$_List_simple_types@U?$pair@_JV?$basic_string@DU?$char_traits@D@std@@V?$allocator@D@2@@std@@@std@@@std@@@std@@SAAAPAU?$_List_node@U?$pair@_JV?$basic_string@DU?$char_traits@D@std@@V?$allocator@D@2@@std@@@std@@PAX@2@PAU32@@Z 00434490 f i log4z.obj
 0001:000334d0       ?_Orphan_all@?$_Deque_alloc@U?$_Deque_base_types@PAULogData@log4z@zsummer@@V?$allocator@PAULogData@log4z@zsummer@@@std@@@std@@@std@@QAEXXZ 004344d0 f i log4z.obj
 0001:00033530       ?_Orphan_all@?$_List_alloc@U?$_List_base_types@U?$pair@_JV?$basic_string@DU?$char_traits@D@std@@V?$allocator@D@2@@std@@@std@@V?$allocator@U?$pair@_JV?$basic_string@DU?$char_traits@D@std@@V?$allocator@D@2@@std@@@std@@@2@@std@@@std@@QAEXXZ 00434530 f i log4z.obj
 0001:00033590       ?_Orphan_all@?$_Tree_comp_alloc@V?$_Tmap_traits@V?$basic_string@DU?$char_traits@D@std@@V?$allocator@D@2@@std@@HU?$less@V?$basic_string@DU?$char_traits@D@std@@V?$allocator@D@2@@std@@@2@V?$allocator@U?$pair@$$CBV?$basic_string@DU?$char_traits@D@std@@V?$allocator@D@2@@std@@H@std@@@2@$0A@@std@@@std@@QAEXXZ 00434590 f i log4z.obj
 0001:000335f0       ?_Orphan_all@?$_Tree_comp_alloc@V?$_Tmap_traits@V?$basic_string@DU?$char_traits@D@std@@V?$allocator@D@2@@std@@ULoggerInfo@log4z@zsummer@@U?$less@V?$basic_string@DU?$char_traits@D@std@@V?$allocator@D@2@@std@@@2@V?$allocator@U?$pair@$$CBV?$basic_string@DU?$char_traits@D@std@@V?$allocator@D@2@@std@@ULoggerInfo@log4z@zsummer@@@std@@@2@$0A@@std@@@std@@QAEXXZ 004345f0 f i log4z.obj
 0001:00033650       ?_Orphan_all@?$_Vector_alloc@U?$_Vec_base_types@PAULogData@log4z@zsummer@@V?$allocator@PAULogData@log4z@zsummer@@@std@@@std@@@std@@QAEXXZ 00434650 f i log4z.obj
 0001:000336b0       ?_Orphan_me@_Iterator_base12@std@@QAEXXZ 004346b0 f i log4z.obj
 0001:00033780       ?_Orphan_off@?$deque@PAULogData@log4z@zsummer@@V?$allocator@PAULogData@log4z@zsummer@@@std@@@std@@IBEXI@Z 00434780 f i log4z.obj
 0001:00033960       ?_Orphan_ptr@?$_Tree@V?$_Tmap_traits@V?$basic_string@DU?$char_traits@D@std@@V?$allocator@D@2@@std@@HU?$less@V?$basic_string@DU?$char_traits@D@std@@V?$allocator@D@2@@std@@@2@V?$allocator@U?$pair@$$CBV?$basic_string@DU?$char_traits@D@std@@V?$allocator@D@2@@std@@H@std@@@2@$0A@@std@@@std@@IAEXPAU?$_Tree_node@U?$pair@$$CBV?$basic_string@DU?$char_traits@D@std@@V?$allocator@D@2@@std@@H@std@@PAX@2@@Z 00434960 f i log4z.obj
 0001:00033ae0       ?_Orphan_ptr@?$_Tree@V?$_Tmap_traits@V?$basic_string@DU?$char_traits@D@std@@V?$allocator@D@2@@std@@ULoggerInfo@log4z@zsummer@@U?$less@V?$basic_string@DU?$char_traits@D@std@@V?$allocator@D@2@@std@@@2@V?$allocator@U?$pair@$$CBV?$basic_string@DU?$char_traits@D@std@@V?$allocator@D@2@@std@@ULoggerInfo@log4z@zsummer@@@std@@@2@$0A@@std@@@std@@IAEXPAU?$_Tree_node@U?$pair@$$CBV?$basic_string@DU?$char_traits@D@std@@V?$allocator@D@2@@std@@ULoggerInfo@log4z@zsummer@@@std@@PAX@2@@Z 00434ae0 f i log4z.obj
 0001:00033c60       ?_Orphan_ptr@?$list@U?$pair@_JV?$basic_string@DU?$char_traits@D@std@@V?$allocator@D@2@@std@@@std@@V?$allocator@U?$pair@_JV?$basic_string@DU?$char_traits@D@std@@V?$allocator@D@2@@std@@@std@@@2@@std@@QAEXPAU?$_List_node@U?$pair@_JV?$basic_string@DU?$char_traits@D@std@@V?$allocator@D@2@@std@@@std@@PAX@2@@Z 00434c60 f i log4z.obj
 0001:00033de0       ?_Orphan_range@?$vector@PAULogData@log4z@zsummer@@V?$allocator@PAULogData@log4z@zsummer@@@std@@@std@@IBEXPAPAULogData@log4z@zsummer@@0@Z 00434de0 f i log4z.obj
 0001:00033f50       ?_Parent@?$_Tree_comp_alloc@V?$_Tmap_traits@V?$basic_string@DU?$char_traits@D@std@@V?$allocator@D@2@@std@@HU?$less@V?$basic_string@DU?$char_traits@D@std@@V?$allocator@D@2@@std@@@2@V?$allocator@U?$pair@$$CBV?$basic_string@DU?$char_traits@D@std@@V?$allocator@D@2@@std@@H@std@@@2@$0A@@std@@@std@@SAAAPAU?$_Tree_node@U?$pair@$$CBV?$basic_string@DU?$char_traits@D@std@@V?$allocator@D@2@@std@@H@std@@PAX@2@PAU32@@Z 00434f50 f i log4z.obj
 0001:00033fa0       ?_Parent@?$_Tree_comp_alloc@V?$_Tmap_traits@V?$basic_string@DU?$char_traits@D@std@@V?$allocator@D@2@@std@@ULoggerInfo@log4z@zsummer@@U?$less@V?$basic_string@DU?$char_traits@D@std@@V?$allocator@D@2@@std@@@2@V?$allocator@U?$pair@$$CBV?$basic_string@DU?$char_traits@D@std@@V?$allocator@D@2@@std@@ULoggerInfo@log4z@zsummer@@@std@@@2@$0A@@std@@@std@@SAAAPAU?$_Tree_node@U?$pair@$$CBV?$basic_string@DU?$char_traits@D@std@@V?$allocator@D@2@@std@@ULoggerInfo@log4z@zsummer@@@std@@PAX@2@PAU32@@Z 00434fa0 f i log4z.obj
 0001:00033ff0       ?_Parent@?$_Tree_val@U?$_Tree_simple_types@U?$pair@$$CBV?$basic_string@DU?$char_traits@D@std@@V?$allocator@D@2@@std@@H@std@@@std@@@std@@SAAAPAU?$_Tree_node@U?$pair@$$CBV?$basic_string@DU?$char_traits@D@std@@V?$allocator@D@2@@std@@H@std@@PAX@2@PAU32@@Z 00434ff0 f i log4z.obj
 0001:00034030       ?_Parent@?$_Tree_val@U?$_Tree_simple_types@U?$pair@$$CBV?$basic_string@DU?$char_traits@D@std@@V?$allocator@D@2@@std@@ULoggerInfo@log4z@zsummer@@@std@@@std@@@std@@SAAAPAU?$_Tree_node@U?$pair@$$CBV?$basic_string@DU?$char_traits@D@std@@V?$allocator@D@2@@std@@ULoggerInfo@log4z@zsummer@@@std@@PAX@2@PAU32@@Z 00435030 f i log4z.obj
 0001:00034070       ?_Prevnode@?$_List_alloc@U?$_List_base_types@U?$pair@_JV?$basic_string@DU?$char_traits@D@std@@V?$allocator@D@2@@std@@@std@@V?$allocator@U?$pair@_JV?$basic_string@DU?$char_traits@D@std@@V?$allocator@D@2@@std@@@std@@@2@@std@@@std@@SAAAPAU?$_List_node@U?$pair@_JV?$basic_string@DU?$char_traits@D@std@@V?$allocator@D@2@@std@@@std@@PAX@2@PAU32@@Z 00435070 f i log4z.obj
 0001:000340c0       ?_Prevnode@?$_List_val@U?$_List_simple_types@U?$pair@_JV?$basic_string@DU?$char_traits@D@std@@V?$allocator@D@2@@std@@@std@@@std@@@std@@SAAAPAU?$_List_node@U?$pair@_JV?$basic_string@DU?$char_traits@D@std@@V?$allocator@D@2@@std@@@std@@PAX@2@PAU32@@Z 004350c0 f i log4z.obj
 0001:00034100       ?_Reallocate@?$vector@PAULogData@log4z@zsummer@@V?$allocator@PAULogData@log4z@zsummer@@@std@@@std@@IAEXI@Z 00435100 f i log4z.obj
 0001:000342f0       ?_Rechecked@?$_String_iterator@V?$_String_val@U?$_Simple_types@D@std@@@std@@@std@@QAEAAV12@PAD@Z 004352f0 f i log4z.obj
 0001:00034340       ?_Reserve@?$vector@PAULogData@log4z@zsummer@@V?$allocator@PAULogData@log4z@zsummer@@@std@@@std@@IAEXI@Z 00435340 f i log4z.obj
 0001:000343f0       ?_Right@?$_Tree_comp_alloc@V?$_Tmap_traits@V?$basic_string@DU?$char_traits@D@std@@V?$allocator@D@2@@std@@HU?$less@V?$basic_string@DU?$char_traits@D@std@@V?$allocator@D@2@@std@@@2@V?$allocator@U?$pair@$$CBV?$basic_string@DU?$char_traits@D@std@@V?$allocator@D@2@@std@@H@std@@@2@$0A@@std@@@std@@SAAAPAU?$_Tree_node@U?$pair@$$CBV?$basic_string@DU?$char_traits@D@std@@V?$allocator@D@2@@std@@H@std@@PAX@2@PAU32@@Z 004353f0 f i log4z.obj
 0001:00034440       ?_Right@?$_Tree_comp_alloc@V?$_Tmap_traits@V?$basic_string@DU?$char_traits@D@std@@V?$allocator@D@2@@std@@ULoggerInfo@log4z@zsummer@@U?$less@V?$basic_string@DU?$char_traits@D@std@@V?$allocator@D@2@@std@@@2@V?$allocator@U?$pair@$$CBV?$basic_string@DU?$char_traits@D@std@@V?$allocator@D@2@@std@@ULoggerInfo@log4z@zsummer@@@std@@@2@$0A@@std@@@std@@SAAAPAU?$_Tree_node@U?$pair@$$CBV?$basic_string@DU?$char_traits@D@std@@V?$allocator@D@2@@std@@ULoggerInfo@log4z@zsummer@@@std@@PAX@2@PAU32@@Z 00435440 f i log4z.obj
 0001:00034490       ?_Right@?$_Tree_val@U?$_Tree_simple_types@U?$pair@$$CBV?$basic_string@DU?$char_traits@D@std@@V?$allocator@D@2@@std@@H@std@@@std@@@std@@SAAAPAU?$_Tree_node@U?$pair@$$CBV?$basic_string@DU?$char_traits@D@std@@V?$allocator@D@2@@std@@H@std@@PAX@2@PAU32@@Z 00435490 f i log4z.obj
 0001:000344d0       ?_Right@?$_Tree_val@U?$_Tree_simple_types@U?$pair@$$CBV?$basic_string@DU?$char_traits@D@std@@V?$allocator@D@2@@std@@ULoggerInfo@log4z@zsummer@@@std@@@std@@@std@@SAAAPAU?$_Tree_node@U?$pair@$$CBV?$basic_string@DU?$char_traits@D@std@@V?$allocator@D@2@@std@@ULoggerInfo@log4z@zsummer@@@std@@PAX@2@PAU32@@Z 004354d0 f i log4z.obj
 0001:00034510       ?_Rmost@?$_Tree@V?$_Tmap_traits@V?$basic_string@DU?$char_traits@D@std@@V?$allocator@D@2@@std@@HU?$less@V?$basic_string@DU?$char_traits@D@std@@V?$allocator@D@2@@std@@@2@V?$allocator@U?$pair@$$CBV?$basic_string@DU?$char_traits@D@std@@V?$allocator@D@2@@std@@H@std@@@2@$0A@@std@@@std@@IBEAAPAU?$_Tree_node@U?$pair@$$CBV?$basic_string@DU?$char_traits@D@std@@V?$allocator@D@2@@std@@H@std@@PAX@2@XZ 00435510 f i log4z.obj
 0001:00034570       ?_Rmost@?$_Tree@V?$_Tmap_traits@V?$basic_string@DU?$char_traits@D@std@@V?$allocator@D@2@@std@@ULoggerInfo@log4z@zsummer@@U?$less@V?$basic_string@DU?$char_traits@D@std@@V?$allocator@D@2@@std@@@2@V?$allocator@U?$pair@$$CBV?$basic_string@DU?$char_traits@D@std@@V?$allocator@D@2@@std@@ULoggerInfo@log4z@zsummer@@@std@@@2@$0A@@std@@@std@@IBEAAPAU?$_Tree_node@U?$pair@$$CBV?$basic_string@DU?$char_traits@D@std@@V?$allocator@D@2@@std@@ULoggerInfo@log4z@zsummer@@@std@@PAX@2@XZ 00435570 f i log4z.obj
 0001:000345d0       ?_Root@?$_Tree@V?$_Tmap_traits@V?$basic_string@DU?$char_traits@D@std@@V?$allocator@D@2@@std@@HU?$less@V?$basic_string@DU?$char_traits@D@std@@V?$allocator@D@2@@std@@@2@V?$allocator@U?$pair@$$CBV?$basic_string@DU?$char_traits@D@std@@V?$allocator@D@2@@std@@H@std@@@2@$0A@@std@@@std@@IBEAAPAU?$_Tree_node@U?$pair@$$CBV?$basic_string@DU?$char_traits@D@std@@V?$allocator@D@2@@std@@H@std@@PAX@2@XZ 004355d0 f i log4z.obj
 0001:00034630       ?_Root@?$_Tree@V?$_Tmap_traits@V?$basic_string@DU?$char_traits@D@std@@V?$allocator@D@2@@std@@ULoggerInfo@log4z@zsummer@@U?$less@V?$basic_string@DU?$char_traits@D@std@@V?$allocator@D@2@@std@@@2@V?$allocator@U?$pair@$$CBV?$basic_string@DU?$char_traits@D@std@@V?$allocator@D@2@@std@@ULoggerInfo@log4z@zsummer@@@std@@@2@$0A@@std@@@std@@IBEAAPAU?$_Tree_node@U?$pair@$$CBV?$basic_string@DU?$char_traits@D@std@@V?$allocator@D@2@@std@@ULoggerInfo@log4z@zsummer@@@std@@PAX@2@XZ 00435630 f i log4z.obj
 0001:00034690       ?_Rrotate@?$_Tree@V?$_Tmap_traits@V?$basic_string@DU?$char_traits@D@std@@V?$allocator@D@2@@std@@HU?$less@V?$basic_string@DU?$char_traits@D@std@@V?$allocator@D@2@@std@@@2@V?$allocator@U?$pair@$$CBV?$basic_string@DU?$char_traits@D@std@@V?$allocator@D@2@@std@@H@std@@@2@$0A@@std@@@std@@IAEXPAU?$_Tree_node@U?$pair@$$CBV?$basic_string@DU?$char_traits@D@std@@V?$allocator@D@2@@std@@H@std@@PAX@2@@Z 00435690 f i log4z.obj
 0001:00034840       ?_Rrotate@?$_Tree@V?$_Tmap_traits@V?$basic_string@DU?$char_traits@D@std@@V?$allocator@D@2@@std@@ULoggerInfo@log4z@zsummer@@U?$less@V?$basic_string@DU?$char_traits@D@std@@V?$allocator@D@2@@std@@@2@V?$allocator@U?$pair@$$CBV?$basic_string@DU?$char_traits@D@std@@V?$allocator@D@2@@std@@ULoggerInfo@log4z@zsummer@@@std@@@2@$0A@@std@@@std@@IAEXPAU?$_Tree_node@U?$pair@$$CBV?$basic_string@DU?$char_traits@D@std@@V?$allocator@D@2@@std@@ULoggerInfo@log4z@zsummer@@@std@@PAX@2@@Z 00435840 f i log4z.obj
 0001:000349f0       ?_Setcont@?$_Deque_const_iterator@V?$_Deque_val@U?$_Deque_simple_types@PAULogData@log4z@zsummer@@@std@@@std@@@std@@QAEXPBV?$_Deque_val@U?$_Deque_simple_types@PAULogData@log4z@zsummer@@@std@@@2@@Z 004359f0 f i log4z.obj
 0001:00034a50       ?_Swap_all@?$_Deque_alloc@U?$_Deque_base_types@PAULogData@log4z@zsummer@@V?$allocator@PAULogData@log4z@zsummer@@@std@@@std@@@std@@QAEXAAV12@@Z 00435a50 f i log4z.obj
 0001:00034ac0       ?_Swap_all@?$_List_alloc@U?$_List_base_types@U?$pair@_JV?$basic_string@DU?$char_traits@D@std@@V?$allocator@D@2@@std@@@std@@V?$allocator@U?$pair@_JV?$basic_string@DU?$char_traits@D@std@@V?$allocator@D@2@@std@@@std@@@2@@std@@@std@@QAEXAAV12@@Z 00435ac0 f i log4z.obj
 0001:00034b30       ?_Swap_all@_Container_base12@std@@QAEXAAU12@@Z 00435b30 f i log4z.obj
 0001:00034c30       ?_Tidy@?$_Tree@V?$_Tmap_traits@V?$basic_string@DU?$char_traits@D@std@@V?$allocator@D@2@@std@@HU?$less@V?$basic_string@DU?$char_traits@D@std@@V?$allocator@D@2@@std@@@2@V?$allocator@U?$pair@$$CBV?$basic_string@DU?$char_traits@D@std@@V?$allocator@D@2@@std@@H@std@@@2@$0A@@std@@@std@@IAEXXZ 00435c30 f i log4z.obj
 0001:00034dc0       ?_Tidy@?$_Tree@V?$_Tmap_traits@V?$basic_string@DU?$char_traits@D@std@@V?$allocator@D@2@@std@@ULoggerInfo@log4z@zsummer@@U?$less@V?$basic_string@DU?$char_traits@D@std@@V?$allocator@D@2@@std@@@2@V?$allocator@U?$pair@$$CBV?$basic_string@DU?$char_traits@D@std@@V?$allocator@D@2@@std@@ULoggerInfo@log4z@zsummer@@@std@@@2@$0A@@std@@@std@@IAEXXZ 00435dc0 f i log4z.obj
 0001:00034f50       ?_Tidy@?$deque@PAULogData@log4z@zsummer@@V?$allocator@PAULogData@log4z@zsummer@@@std@@@std@@IAEXXZ 00435f50 f i log4z.obj
 0001:00035100       ?_Tidy@?$list@U?$pair@_JV?$basic_string@DU?$char_traits@D@std@@V?$allocator@D@2@@std@@@std@@V?$allocator@U?$pair@_JV?$basic_string@DU?$char_traits@D@std@@V?$allocator@D@2@@std@@@std@@@2@@std@@QAEXXZ 00436100 f i log4z.obj
 0001:00035150       ?_Tidy@?$vector@PAULogData@log4z@zsummer@@V?$allocator@PAULogData@log4z@zsummer@@@std@@@std@@IAEXXZ 00436150 f i log4z.obj
 0001:00035250       ?_Traits_compare@?$basic_string@DU?$char_traits@D@std@@V?$allocator@D@2@@std@@SAHQBDI0I@Z 00436250 f i log4z.obj
 0001:00035310       ?_Unchecked@?$_List_const_iterator@V?$_List_val@U?$_List_simple_types@U?$pair@_JV?$basic_string@DU?$char_traits@D@std@@V?$allocator@D@2@@std@@@std@@@std@@@std@@@std@@QBE?AV?$_List_unchecked_const_iterator@V?$_List_val@U?$_List_simple_types@U?$pair@_JV?$basic_string@DU?$char_traits@D@std@@V?$allocator@D@2@@std@@@std@@@std@@@std@@U_Iterator_base0@2@@2@XZ 00436310 f i log4z.obj
 0001:00035380       ?_Unchecked@?$_String_iterator@V?$_String_val@U?$_Simple_types@D@std@@@std@@@std@@QBEPADXZ 00436380 f i log4z.obj
 0001:000353e0       ?_Unchecked_end@?$list@U?$pair@_JV?$basic_string@DU?$char_traits@D@std@@V?$allocator@D@2@@std@@@std@@V?$allocator@U?$pair@_JV?$basic_string@DU?$char_traits@D@std@@V?$allocator@D@2@@std@@@std@@@2@@std@@QAE?AV?$_List_unchecked_iterator@V?$_List_val@U?$_List_simple_types@U?$pair@_JV?$basic_string@DU?$char_traits@D@std@@V?$allocator@D@2@@std@@@std@@@std@@@std@@@2@XZ 004363e0 f i log4z.obj
 0001:00035450       ?_Unchecked_erase@?$list@U?$pair@_JV?$basic_string@DU?$char_traits@D@std@@V?$allocator@D@2@@std@@@std@@V?$allocator@U?$pair@_JV?$basic_string@DU?$char_traits@D@std@@V?$allocator@D@2@@std@@@std@@@2@@std@@QAEXV?$_List_unchecked_const_iterator@V?$_List_val@U?$_List_simple_types@U?$pair@_JV?$basic_string@DU?$char_traits@D@std@@V?$allocator@D@2@@std@@@std@@@std@@@std@@U_Iterator_base0@2@@2@@Z 00436450 f i log4z.obj
 0001:00035550       ?_Unlinknode@?$list@U?$pair@_JV?$basic_string@DU?$char_traits@D@std@@V?$allocator@D@2@@std@@@std@@V?$allocator@U?$pair@_JV?$basic_string@DU?$char_traits@D@std@@V?$allocator@D@2@@std@@@std@@@2@@std@@QAEPAU?$_List_node@U?$pair@_JV?$basic_string@DU?$char_traits@D@std@@V?$allocator@D@2@@std@@@std@@PAX@2@V?$_List_const_iterator@V?$_List_val@U?$_List_simple_types@U?$pair@_JV?$basic_string@DU?$char_traits@D@std@@V?$allocator@D@2@@std@@@std@@@std@@@std@@@2@@Z 00436550 f i log4z.obj
 0001:00035700       ?_Unused_capacity@?$vector@PAULogData@log4z@zsummer@@V?$allocator@PAULogData@log4z@zsummer@@@std@@@std@@QBEIXZ 00436700 f i log4z.obj
 0001:00035770       ?_Xlen@?$basic_string@DU?$char_traits@D@std@@V?$allocator@D@2@@std@@QBEXXZ 00436770 f i log4z.obj
 0001:000357d0       ?_Xlen@?$deque@PAULogData@log4z@zsummer@@V?$allocator@PAULogData@log4z@zsummer@@@std@@@std@@IBEXXZ 004367d0 f i log4z.obj
 0001:00035830       ?_Xlen@?$vector@PAULogData@log4z@zsummer@@V?$allocator@PAULogData@log4z@zsummer@@@std@@@std@@IBEXXZ 00436830 f i log4z.obj
 0001:00035890       ?_Xran@?$basic_string@DU?$char_traits@D@std@@V?$allocator@D@2@@std@@QBEXXZ 00436890 f i log4z.obj
 0001:000358f0       ?address@?$_Wrap_alloc@V?$allocator@D@std@@@std@@QBEPADAAD@Z 004368f0 f i log4z.obj
 0001:00035950       ?allocate@?$_Wrap_alloc@V?$allocator@D@std@@@std@@QAEPADI@Z 00436950 f i log4z.obj
 0001:000359b0       ?allocate@?$_Wrap_alloc@V?$allocator@PAPAULogData@log4z@zsummer@@@std@@@std@@QAEPAPAPAULogData@log4z@zsummer@@I@Z 004369b0 f i log4z.obj
 0001:00035a10       ?allocate@?$_Wrap_alloc@V?$allocator@PAULogData@log4z@zsummer@@@std@@@std@@QAEPAPAULogData@log4z@zsummer@@I@Z 00436a10 f i log4z.obj
 0001:00035a70       ?allocate@?$_Wrap_alloc@V?$allocator@U?$_List_node@U?$pair@_JV?$basic_string@DU?$char_traits@D@std@@V?$allocator@D@2@@std@@@std@@PAX@std@@@std@@@std@@QAEPAU?$_List_node@U?$pair@_JV?$basic_string@DU?$char_traits@D@std@@V?$allocator@D@2@@std@@@std@@PAX@2@I@Z 00436a70 f i log4z.obj
 0001:00035ad0       ?allocate@?$_Wrap_alloc@V?$allocator@U?$_Tree_node@U?$pair@$$CBV?$basic_string@DU?$char_traits@D@std@@V?$allocator@D@2@@std@@H@std@@PAX@std@@@std@@@std@@QAEPAU?$_Tree_node@U?$pair@$$CBV?$basic_string@DU?$char_traits@D@std@@V?$allocator@D@2@@std@@H@std@@PAX@2@I@Z 00436ad0 f i log4z.obj
 0001:00035b30       ?allocate@?$_Wrap_alloc@V?$allocator@U?$_Tree_node@U?$pair@$$CBV?$basic_string@DU?$char_traits@D@std@@V?$allocator@D@2@@std@@ULoggerInfo@log4z@zsummer@@@std@@PAX@std@@@std@@@std@@QAEPAU?$_Tree_node@U?$pair@$$CBV?$basic_string@DU?$char_traits@D@std@@V?$allocator@D@2@@std@@ULoggerInfo@log4z@zsummer@@@std@@PAX@2@I@Z 00436b30 f i log4z.obj
 0001:00035b90       ?allocate@?$_Wrap_alloc@V?$allocator@U_Container_proxy@std@@@std@@@std@@QAEPAU_Container_proxy@2@I@Z 00436b90 f i log4z.obj
 0001:00035bf0       ?allocate@?$allocator@D@std@@QAEPADI@Z 00436bf0 f i log4z.obj
 0001:00035c50       ?allocate@?$allocator@PAPAULogData@log4z@zsummer@@@std@@QAEPAPAPAULogData@log4z@zsummer@@I@Z 00436c50 f i log4z.obj
 0001:00035cb0       ?allocate@?$allocator@PAULogData@log4z@zsummer@@@std@@QAEPAPAULogData@log4z@zsummer@@I@Z 00436cb0 f i log4z.obj
 0001:00035d10       ?allocate@?$allocator@U?$_List_node@U?$pair@_JV?$basic_string@DU?$char_traits@D@std@@V?$allocator@D@2@@std@@@std@@PAX@std@@@std@@QAEPAU?$_List_node@U?$pair@_JV?$basic_string@DU?$char_traits@D@std@@V?$allocator@D@2@@std@@@std@@PAX@2@I@Z 00436d10 f i log4z.obj
 0001:00035d70       ?allocate@?$allocator@U?$_Tree_node@U?$pair@$$CBV?$basic_string@DU?$char_traits@D@std@@V?$allocator@D@2@@std@@H@std@@PAX@std@@@std@@QAEPAU?$_Tree_node@U?$pair@$$CBV?$basic_string@DU?$char_traits@D@std@@V?$allocator@D@2@@std@@H@std@@PAX@2@I@Z 00436d70 f i log4z.obj
 0001:00035dd0       ?allocate@?$allocator@U?$_Tree_node@U?$pair@$$CBV?$basic_string@DU?$char_traits@D@std@@V?$allocator@D@2@@std@@ULoggerInfo@log4z@zsummer@@@std@@PAX@std@@@std@@QAEPAU?$_Tree_node@U?$pair@$$CBV?$basic_string@DU?$char_traits@D@std@@V?$allocator@D@2@@std@@ULoggerInfo@log4z@zsummer@@@std@@PAX@2@I@Z 00436dd0 f i log4z.obj
 0001:00035e30       ?allocate@?$allocator@U_Container_proxy@std@@@std@@QAEPAU_Container_proxy@2@I@Z 00436e30 f i log4z.obj
 0001:00035e90       ?append@?$basic_string@DU?$char_traits@D@std@@V?$allocator@D@2@@std@@QAEAAV12@ABV12@II@Z 00436e90 f i log4z.obj
 0001:00035fb0       ?append@?$basic_string@DU?$char_traits@D@std@@V?$allocator@D@2@@std@@QAEAAV12@PBD@Z 00436fb0 f i log4z.obj
 0001:00036040       ?append@?$basic_string@DU?$char_traits@D@std@@V?$allocator@D@2@@std@@QAEAAV12@PBDI@Z 00437040 f i log4z.obj
 0001:000361b0       ?assign@?$basic_string@DU?$char_traits@D@std@@V?$allocator@D@2@@std@@QAEAAV12@ABV12@@Z 004371b0 f i log4z.obj
 0001:00036210       ?assign@?$basic_string@DU?$char_traits@D@std@@V?$allocator@D@2@@std@@QAEAAV12@ABV12@II@Z 00437210 f i log4z.obj
 0001:00036310       ?assign@?$basic_string@DU?$char_traits@D@std@@V?$allocator@D@2@@std@@QAEAAV12@PBD@Z 00437310 f i log4z.obj
 0001:000363a0       ?assign@?$basic_string@DU?$char_traits@D@std@@V?$allocator@D@2@@std@@QAEAAV12@PBDI@Z 004373a0 f i log4z.obj
 0001:000364c0       ?at@?$basic_string@DU?$char_traits@D@std@@V?$allocator@D@2@@std@@QAEAADI@Z 004374c0 f i log4z.obj
 0001:00036530       ?back@?$list@U?$pair@_JV?$basic_string@DU?$char_traits@D@std@@V?$allocator@D@2@@std@@@std@@V?$allocator@U?$pair@_JV?$basic_string@DU?$char_traits@D@std@@V?$allocator@D@2@@std@@@std@@@2@@std@@QAEAAU?$pair@_JV?$basic_string@DU?$char_traits@D@std@@V?$allocator@D@2@@std@@@2@XZ 00437530 f i log4z.obj
 0001:00036620       ?back@?$vector@PAULogData@log4z@zsummer@@V?$allocator@PAULogData@log4z@zsummer@@@std@@@std@@QAEAAPAULogData@log4z@zsummer@@XZ 00437620 f i log4z.obj
 0001:00036750       ?begin@?$_Tree@V?$_Tmap_traits@V?$basic_string@DU?$char_traits@D@std@@V?$allocator@D@2@@std@@HU?$less@V?$basic_string@DU?$char_traits@D@std@@V?$allocator@D@2@@std@@@2@V?$allocator@U?$pair@$$CBV?$basic_string@DU?$char_traits@D@std@@V?$allocator@D@2@@std@@H@std@@@2@$0A@@std@@@std@@QAE?AV?$_Tree_iterator@V?$_Tree_val@U?$_Tree_simple_types@U?$pair@$$CBV?$basic_string@DU?$char_traits@D@std@@V?$allocator@D@2@@std@@H@std@@@std@@@std@@@2@XZ 00437750 f i log4z.obj
 0001:00036800       ?begin@?$_Tree@V?$_Tmap_traits@V?$basic_string@DU?$char_traits@D@std@@V?$allocator@D@2@@std@@ULoggerInfo@log4z@zsummer@@U?$less@V?$basic_string@DU?$char_traits@D@std@@V?$allocator@D@2@@std@@@2@V?$allocator@U?$pair@$$CBV?$basic_string@DU?$char_traits@D@std@@V?$allocator@D@2@@std@@ULoggerInfo@log4z@zsummer@@@std@@@2@$0A@@std@@@std@@QAE?AV?$_Tree_iterator@V?$_Tree_val@U?$_Tree_simple_types@U?$pair@$$CBV?$basic_string@DU?$char_traits@D@std@@V?$allocator@D@2@@std@@ULoggerInfo@log4z@zsummer@@@std@@@std@@@std@@@2@XZ 00437800 f i log4z.obj
 0001:000368b0       ?begin@?$basic_string@DU?$char_traits@D@std@@V?$allocator@D@2@@std@@QAE?AV?$_String_iterator@V?$_String_val@U?$_Simple_types@D@std@@@std@@@2@XZ 004378b0 f i log4z.obj
 0001:00036970       ?begin@?$deque@PAULogData@log4z@zsummer@@V?$allocator@PAULogData@log4z@zsummer@@@std@@@std@@QAE?AV?$_Deque_iterator@V?$_Deque_val@U?$_Deque_simple_types@PAULogData@log4z@zsummer@@@std@@@std@@@2@XZ 00437970 f i log4z.obj
 0001:00036a20       ?begin@?$list@U?$pair@_JV?$basic_string@DU?$char_traits@D@std@@V?$allocator@D@2@@std@@@std@@V?$allocator@U?$pair@_JV?$basic_string@DU?$char_traits@D@std@@V?$allocator@D@2@@std@@@std@@@2@@std@@QAE?AV?$_List_iterator@V?$_List_val@U?$_List_simple_types@U?$pair@_JV?$basic_string@DU?$char_traits@D@std@@V?$allocator@D@2@@std@@@std@@@std@@@std@@@2@XZ 00437a20 f i log4z.obj
 0001:00036ad0       ?begin@?$list@U?$pair@_JV?$basic_string@DU?$char_traits@D@std@@V?$allocator@D@2@@std@@@std@@V?$allocator@U?$pair@_JV?$basic_string@DU?$char_traits@D@std@@V?$allocator@D@2@@std@@@std@@@2@@std@@QBE?AV?$_List_const_iterator@V?$_List_val@U?$_List_simple_types@U?$pair@_JV?$basic_string@DU?$char_traits@D@std@@V?$allocator@D@2@@std@@@std@@@std@@@std@@@2@XZ 00437ad0 f i log4z.obj
 0001:00036b80       ?capacity@?$vector@PAULogData@log4z@zsummer@@V?$allocator@PAULogData@log4z@zsummer@@@std@@@std@@QBEIXZ 00437b80 f i log4z.obj
 0001:00036bf0       ?clean@Log4zFileHandler@log4z@zsummer@@QAEXHH@Z 00437bf0 f i log4z.obj
 0001:00036c30       ?clear@?$_Tree@V?$_Tmap_traits@V?$basic_string@DU?$char_traits@D@std@@V?$allocator@D@2@@std@@HU?$less@V?$basic_string@DU?$char_traits@D@std@@V?$allocator@D@2@@std@@@2@V?$allocator@U?$pair@$$CBV?$basic_string@DU?$char_traits@D@std@@V?$allocator@D@2@@std@@H@std@@@2@$0A@@std@@@std@@QAEXXZ 00437c30 f i log4z.obj
 0001:00036d40       ?clear@?$_Tree@V?$_Tmap_traits@V?$basic_string@DU?$char_traits@D@std@@V?$allocator@D@2@@std@@ULoggerInfo@log4z@zsummer@@U?$less@V?$basic_string@DU?$char_traits@D@std@@V?$allocator@D@2@@std@@@2@V?$allocator@U?$pair@$$CBV?$basic_string@DU?$char_traits@D@std@@V?$allocator@D@2@@std@@ULoggerInfo@log4z@zsummer@@@std@@@2@$0A@@std@@@std@@QAEXXZ 00437d40 f i log4z.obj
 0001:00036e50       ?clear@?$basic_string@DU?$char_traits@D@std@@V?$allocator@D@2@@std@@QAEXXZ 00437e50 f i log4z.obj
 0001:00036ee0       ?clear@?$list@U?$pair@_JV?$basic_string@DU?$char_traits@D@std@@V?$allocator@D@2@@std@@@std@@V?$allocator@U?$pair@_JV?$basic_string@DU?$char_traits@D@std@@V?$allocator@D@2@@std@@@std@@@2@@std@@QAEXXZ 00437ee0 f i log4z.obj
 0001:00037030       ?close@Log4zFileHandler@log4z@zsummer@@QAEXXZ 00438030 f i log4z.obj
 0001:000370c0       ?closeLogger@LogerManager@log4z@zsummer@@IAE_NH@Z 004380c0 f   log4z.obj
 0001:00037190       ?compare@?$basic_string@DU?$char_traits@D@std@@V?$allocator@D@2@@std@@QBEHABV12@@Z 00438190 f i log4z.obj
 0001:00037250       ?compare@?$basic_string@DU?$char_traits@D@std@@V?$allocator@D@2@@std@@QBEHPBD@Z 00438250 f i log4z.obj
 0001:000372f0       ?compare@?$char_traits@D@std@@SAHPBD0I@Z 004382f0 f i log4z.obj
 0001:00037370       ?config@LogerManager@log4z@zsummer@@UAE_NPBD@Z 00438370 f   log4z.obj
 0001:00037600       ?configFromString@LogerManager@log4z@zsummer@@UAE_NPBD@Z 00438600 f   log4z.obj
 0001:00037690       ?configFromStringImpl@LogerManager@log4z@zsummer@@QAE_NV?$basic_string@DU?$char_traits@D@std@@V?$allocator@D@2@@std@@_N@Z 00438690 f   log4z.obj
 0001:00037cc0       ?create@SemHelper@log4z@zsummer@@QAE_NH@Z 00438cc0 f   log4z.obj
 0001:00037d60       ?createLogger@LogerManager@log4z@zsummer@@UAEHPBD@Z 00438d60 f   log4z.obj
 0001:00038330       ?deallocate@?$_Wrap_alloc@V?$allocator@PAPAULogData@log4z@zsummer@@@std@@@std@@QAEXPAPAPAULogData@log4z@zsummer@@I@Z 00439330 f i log4z.obj
 0001:00038390       ?deallocate@?$_Wrap_alloc@V?$allocator@PAULogData@log4z@zsummer@@@std@@@std@@QAEXPAPAULogData@log4z@zsummer@@I@Z 00439390 f i log4z.obj
 0001:000383f0       ?deallocate@?$_Wrap_alloc@V?$allocator@U?$_List_node@U?$pair@_JV?$basic_string@DU?$char_traits@D@std@@V?$allocator@D@2@@std@@@std@@PAX@std@@@std@@@std@@QAEXPAU?$_List_node@U?$pair@_JV?$basic_string@DU?$char_traits@D@std@@V?$allocator@D@2@@std@@@std@@PAX@2@I@Z 004393f0 f i log4z.obj
 0001:00038450       ?deallocate@?$_Wrap_alloc@V?$allocator@U?$_Tree_node@U?$pair@$$CBV?$basic_string@DU?$char_traits@D@std@@V?$allocator@D@2@@std@@H@std@@PAX@std@@@std@@@std@@QAEXPAU?$_Tree_node@U?$pair@$$CBV?$basic_string@DU?$char_traits@D@std@@V?$allocator@D@2@@std@@H@std@@PAX@2@I@Z 00439450 f i log4z.obj
 0001:000384b0       ?deallocate@?$_Wrap_alloc@V?$allocator@U?$_Tree_node@U?$pair@$$CBV?$basic_string@DU?$char_traits@D@std@@V?$allocator@D@2@@std@@ULoggerInfo@log4z@zsummer@@@std@@PAX@std@@@std@@@std@@QAEXPAU?$_Tree_node@U?$pair@$$CBV?$basic_string@DU?$char_traits@D@std@@V?$allocator@D@2@@std@@ULoggerInfo@log4z@zsummer@@@std@@PAX@2@I@Z 004394b0 f i log4z.obj
 0001:00038510       ?deallocate@?$allocator@PAPAULogData@log4z@zsummer@@@std@@QAEXPAPAPAULogData@log4z@zsummer@@I@Z 00439510 f i log4z.obj
 0001:00038570       ?deallocate@?$allocator@PAULogData@log4z@zsummer@@@std@@QAEXPAPAULogData@log4z@zsummer@@I@Z 00439570 f i log4z.obj
 0001:000385d0       ?deallocate@?$allocator@U?$_List_node@U?$pair@_JV?$basic_string@DU?$char_traits@D@std@@V?$allocator@D@2@@std@@@std@@PAX@std@@@std@@QAEXPAU?$_List_node@U?$pair@_JV?$basic_string@DU?$char_traits@D@std@@V?$allocator@D@2@@std@@@std@@PAX@2@I@Z 004395d0 f i log4z.obj
 0001:00038630       ?deallocate@?$allocator@U?$_Tree_node@U?$pair@$$CBV?$basic_string@DU?$char_traits@D@std@@V?$allocator@D@2@@std@@H@std@@PAX@std@@@std@@QAEXPAU?$_Tree_node@U?$pair@$$CBV?$basic_string@DU?$char_traits@D@std@@V?$allocator@D@2@@std@@H@std@@PAX@2@I@Z 00439630 f i log4z.obj
 0001:00038690       ?deallocate@?$allocator@U?$_Tree_node@U?$pair@$$CBV?$basic_string@DU?$char_traits@D@std@@V?$allocator@D@2@@std@@ULoggerInfo@log4z@zsummer@@@std@@PAX@std@@@std@@QAEXPAU?$_Tree_node@U?$pair@$$CBV?$basic_string@DU?$char_traits@D@std@@V?$allocator@D@2@@std@@ULoggerInfo@log4z@zsummer@@@std@@PAX@2@I@Z 00439690 f i log4z.obj
 0001:00038700       ?empty@?$basic_string@DU?$char_traits@D@std@@V?$allocator@D@2@@std@@QBE_NXZ 00439700 f i log4z.obj
 0001:00038780       ?empty@?$deque@PAULogData@log4z@zsummer@@V?$allocator@PAULogData@log4z@zsummer@@@std@@@std@@QBE_NXZ 00439780 f i log4z.obj
 0001:00038800       ?empty@?$list@U?$pair@_JV?$basic_string@DU?$char_traits@D@std@@V?$allocator@D@2@@std@@@std@@V?$allocator@U?$pair@_JV?$basic_string@DU?$char_traits@D@std@@V?$allocator@D@2@@std@@@std@@@2@@std@@QBE_NXZ 00439800 f i log4z.obj
 0001:00038880       ?empty@?$vector@PAULogData@log4z@zsummer@@V?$allocator@PAULogData@log4z@zsummer@@@std@@@std@@QBE_NXZ 00439880 f i log4z.obj
 0001:00038910       ?enableLogger@LogerManager@log4z@zsummer@@UAE_NH_N@Z 00439910 f   log4z.obj
 0001:00038a40       ?end@?$_Tree@V?$_Tmap_traits@V?$basic_string@DU?$char_traits@D@std@@V?$allocator@D@2@@std@@HU?$less@V?$basic_string@DU?$char_traits@D@std@@V?$allocator@D@2@@std@@@2@V?$allocator@U?$pair@$$CBV?$basic_string@DU?$char_traits@D@std@@V?$allocator@D@2@@std@@H@std@@@2@$0A@@std@@@std@@QAE?AV?$_Tree_iterator@V?$_Tree_val@U?$_Tree_simple_types@U?$pair@$$CBV?$basic_string@DU?$char_traits@D@std@@V?$allocator@D@2@@std@@H@std@@@std@@@std@@@2@XZ 00439a40 f i log4z.obj
 0001:00038af0       ?end@?$_Tree@V?$_Tmap_traits@V?$basic_string@DU?$char_traits@D@std@@V?$allocator@D@2@@std@@ULoggerInfo@log4z@zsummer@@U?$less@V?$basic_string@DU?$char_traits@D@std@@V?$allocator@D@2@@std@@@2@V?$allocator@U?$pair@$$CBV?$basic_string@DU?$char_traits@D@std@@V?$allocator@D@2@@std@@ULoggerInfo@log4z@zsummer@@@std@@@2@$0A@@std@@@std@@QAE?AV?$_Tree_iterator@V?$_Tree_val@U?$_Tree_simple_types@U?$pair@$$CBV?$basic_string@DU?$char_traits@D@std@@V?$allocator@D@2@@std@@ULoggerInfo@log4z@zsummer@@@std@@@std@@@std@@@2@XZ 00439af0 f i log4z.obj
 0001:00038ba0       ?end@?$basic_string@DU?$char_traits@D@std@@V?$allocator@D@2@@std@@QAE?AV?$_String_iterator@V?$_String_val@U?$_Simple_types@D@std@@@std@@@2@XZ 00439ba0 f i log4z.obj
 0001:00038c70       ?end@?$list@U?$pair@_JV?$basic_string@DU?$char_traits@D@std@@V?$allocator@D@2@@std@@@std@@V?$allocator@U?$pair@_JV?$basic_string@DU?$char_traits@D@std@@V?$allocator@D@2@@std@@@std@@@2@@std@@QAE?AV?$_List_iterator@V?$_List_val@U?$_List_simple_types@U?$pair@_JV?$basic_string@DU?$char_traits@D@std@@V?$allocator@D@2@@std@@@std@@@std@@@std@@@2@XZ 00439c70 f i log4z.obj
 0001:00038d20       ?end@?$list@U?$pair@_JV?$basic_string@DU?$char_traits@D@std@@V?$allocator@D@2@@std@@@std@@V?$allocator@U?$pair@_JV?$basic_string@DU?$char_traits@D@std@@V?$allocator@D@2@@std@@@std@@@2@@std@@QBE?AV?$_List_const_iterator@V?$_List_val@U?$_List_simple_types@U?$pair@_JV?$basic_string@DU?$char_traits@D@std@@V?$allocator@D@2@@std@@@std@@@std@@@std@@@2@XZ 00439d20 f i log4z.obj
 0001:00038dd0       ?end@?$vector@PAULogData@log4z@zsummer@@V?$allocator@PAULogData@log4z@zsummer@@@std@@@std@@QAE?AV?$_Vector_iterator@V?$_Vector_val@U?$_Simple_types@PAULogData@log4z@zsummer@@@std@@@std@@@2@XZ 00439dd0 f i log4z.obj
 0001:00038e80       ?eq@?$char_traits@D@std@@SA_NABD0@Z 00439e80 f i log4z.obj
 0001:00038ef0       ?erase@?$_Tree@V?$_Tmap_traits@V?$basic_string@DU?$char_traits@D@std@@V?$allocator@D@2@@std@@HU?$less@V?$basic_string@DU?$char_traits@D@std@@V?$allocator@D@2@@std@@@2@V?$allocator@U?$pair@$$CBV?$basic_string@DU?$char_traits@D@std@@V?$allocator@D@2@@std@@H@std@@@2@$0A@@std@@@std@@QAE?AV?$_Tree_iterator@V?$_Tree_val@U?$_Tree_simple_types@U?$pair@$$CBV?$basic_string@DU?$char_traits@D@std@@V?$allocator@D@2@@std@@H@std@@@std@@@std@@@2@V?$_Tree_const_iterator@V?$_Tree_val@U?$_Tree_simple_types@U?$pair@$$CBV?$basic_string@DU?$char_traits@D@std@@V?$allocator@D@2@@std@@H@std@@@std@@@std@@@2@0@Z 00439ef0 f i log4z.obj
 0001:00039210       ?erase@?$_Tree@V?$_Tmap_traits@V?$basic_string@DU?$char_traits@D@std@@V?$allocator@D@2@@std@@HU?$less@V?$basic_string@DU?$char_traits@D@std@@V?$allocator@D@2@@std@@@2@V?$allocator@U?$pair@$$CBV?$basic_string@DU?$char_traits@D@std@@V?$allocator@D@2@@std@@H@std@@@2@$0A@@std@@@std@@QAE?AV?$_Tree_iterator@V?$_Tree_val@U?$_Tree_simple_types@U?$pair@$$CBV?$basic_string@DU?$char_traits@D@std@@V?$allocator@D@2@@std@@H@std@@@std@@@std@@@2@V?$_Tree_const_iterator@V?$_Tree_val@U?$_Tree_simple_types@U?$pair@$$CBV?$basic_string@DU?$char_traits@D@std@@V?$allocator@D@2@@std@@H@std@@@std@@@std@@@2@@Z 0043a210 f i log4z.obj
 0001:00039ca0       ?erase@?$_Tree@V?$_Tmap_traits@V?$basic_string@DU?$char_traits@D@std@@V?$allocator@D@2@@std@@ULoggerInfo@log4z@zsummer@@U?$less@V?$basic_string@DU?$char_traits@D@std@@V?$allocator@D@2@@std@@@2@V?$allocator@U?$pair@$$CBV?$basic_string@DU?$char_traits@D@std@@V?$allocator@D@2@@std@@ULoggerInfo@log4z@zsummer@@@std@@@2@$0A@@std@@@std@@QAE?AV?$_Tree_iterator@V?$_Tree_val@U?$_Tree_simple_types@U?$pair@$$CBV?$basic_string@DU?$char_traits@D@std@@V?$allocator@D@2@@std@@ULoggerInfo@log4z@zsummer@@@std@@@std@@@std@@@2@V?$_Tree_const_iterator@V?$_Tree_val@U?$_Tree_simple_types@U?$pair@$$CBV?$basic_string@DU?$char_traits@D@std@@V?$allocator@D@2@@std@@ULoggerInfo@log4z@zsummer@@@std@@@std@@@std@@@2@0@Z 0043aca0 f i log4z.obj
 0001:00039fc0       ?erase@?$_Tree@V?$_Tmap_traits@V?$basic_string@DU?$char_traits@D@std@@V?$allocator@D@2@@std@@ULoggerInfo@log4z@zsummer@@U?$less@V?$basic_string@DU?$char_traits@D@std@@V?$allocator@D@2@@std@@@2@V?$allocator@U?$pair@$$CBV?$basic_string@DU?$char_traits@D@std@@V?$allocator@D@2@@std@@ULoggerInfo@log4z@zsummer@@@std@@@2@$0A@@std@@@std@@QAE?AV?$_Tree_iterator@V?$_Tree_val@U?$_Tree_simple_types@U?$pair@$$CBV?$basic_string@DU?$char_traits@D@std@@V?$allocator@D@2@@std@@ULoggerInfo@log4z@zsummer@@@std@@@std@@@std@@@2@V?$_Tree_const_iterator@V?$_Tree_val@U?$_Tree_simple_types@U?$pair@$$CBV?$basic_string@DU?$char_traits@D@std@@V?$allocator@D@2@@std@@ULoggerInfo@log4z@zsummer@@@std@@@std@@@std@@@2@@Z 0043afc0 f i log4z.obj
 0001:0003aa50       ?erase@?$basic_string@DU?$char_traits@D@std@@V?$allocator@D@2@@std@@QAEAAV12@I@Z 0043ba50 f i log4z.obj
 0001:0003aac0       ?erase@?$basic_string@DU?$char_traits@D@std@@V?$allocator@D@2@@std@@QAEAAV12@II@Z 0043bac0 f i log4z.obj
 0001:0003aba0       ?erase@?$list@U?$pair@_JV?$basic_string@DU?$char_traits@D@std@@V?$allocator@D@2@@std@@@std@@V?$allocator@U?$pair@_JV?$basic_string@DU?$char_traits@D@std@@V?$allocator@D@2@@std@@@std@@@2@@std@@QAE?AV?$_List_iterator@V?$_List_val@U?$_List_simple_types@U?$pair@_JV?$basic_string@DU?$char_traits@D@std@@V?$allocator@D@2@@std@@@std@@@std@@@std@@@2@V?$_List_const_iterator@V?$_List_val@U?$_List_simple_types@U?$pair@_JV?$basic_string@DU?$char_traits@D@std@@V?$allocator@D@2@@std@@@std@@@std@@@std@@@2@@Z 0043bba0 f i log4z.obj
 0001:0003ace0       ?find@?$_Tree@V?$_Tmap_traits@V?$basic_string@DU?$char_traits@D@std@@V?$allocator@D@2@@std@@HU?$less@V?$basic_string@DU?$char_traits@D@std@@V?$allocator@D@2@@std@@@2@V?$allocator@U?$pair@$$CBV?$basic_string@DU?$char_traits@D@std@@V?$allocator@D@2@@std@@H@std@@@2@$0A@@std@@@std@@QAE?AV?$_Tree_iterator@V?$_Tree_val@U?$_Tree_simple_types@U?$pair@$$CBV?$basic_string@DU?$char_traits@D@std@@V?$allocator@D@2@@std@@H@std@@@std@@@std@@@2@ABV?$basic_string@DU?$char_traits@D@std@@V?$allocator@D@2@@2@@Z 0043bce0 f i log4z.obj
 0001:0003afe0       ?find@?$_Tree@V?$_Tmap_traits@V?$basic_string@DU?$char_traits@D@std@@V?$allocator@D@2@@std@@ULoggerInfo@log4z@zsummer@@U?$less@V?$basic_string@DU?$char_traits@D@std@@V?$allocator@D@2@@std@@@2@V?$allocator@U?$pair@$$CBV?$basic_string@DU?$char_traits@D@std@@V?$allocator@D@2@@std@@ULoggerInfo@log4z@zsummer@@@std@@@2@$0A@@std@@@std@@QAE?AV?$_Tree_iterator@V?$_Tree_val@U?$_Tree_simple_types@U?$pair@$$CBV?$basic_string@DU?$char_traits@D@std@@V?$allocator@D@2@@std@@ULoggerInfo@log4z@zsummer@@@std@@@std@@@std@@@2@ABV?$basic_string@DU?$char_traits@D@std@@V?$allocator@D@2@@2@@Z 0043bfe0 f i log4z.obj
 0001:0003b2e0       ?find@?$basic_string@DU?$char_traits@D@std@@V?$allocator@D@2@@std@@QBEIDI@Z 0043c2e0 f i log4z.obj
 0001:0003b340       ?find@?$basic_string@DU?$char_traits@D@std@@V?$allocator@D@2@@std@@QBEIPBDI@Z 0043c340 f i log4z.obj
 0001:0003b3d0       ?find@?$basic_string@DU?$char_traits@D@std@@V?$allocator@D@2@@std@@QBEIPBDII@Z 0043c3d0 f i log4z.obj
 0001:0003b560       ?find@?$char_traits@D@std@@SAPBDPBDIABD@Z 0043c560 f i log4z.obj
 0001:0003b5f0       ?findLogger@LogerManager@log4z@zsummer@@UAEHPBD@Z 0043c5f0 f   log4z.obj
 0001:0003b9e0       ?flush@Log4zFileHandler@log4z@zsummer@@QAEXXZ 0043c9e0 f i log4z.obj
 0001:0003ba50       ?freeLogData@LogerManager@log4z@zsummer@@MAEXPAULogData@23@@Z 0043ca50 f   log4z.obj
 0001:0003bb80       ?front@?$deque@PAULogData@log4z@zsummer@@V?$allocator@PAULogData@log4z@zsummer@@@std@@@std@@QAEAAPAULogData@log4z@zsummer@@XZ 0043cb80 f i log4z.obj
 0001:0003bc60       ?front@?$list@U?$pair@_JV?$basic_string@DU?$char_traits@D@std@@V?$allocator@D@2@@std@@@std@@V?$allocator@U?$pair@_JV?$basic_string@DU?$char_traits@D@std@@V?$allocator@D@2@@std@@@std@@@2@@std@@QAEAAU?$pair@_JV?$basic_string@DU?$char_traits@D@std@@V?$allocator@D@2@@std@@@2@XZ 0043cc60 f i log4z.obj
 0001:0003bd40       ?getInstance@ILog4zManager@log4z@zsummer@@SAPAV123@XZ 0043cd40 f   log4z.obj
 0001:0003c2a0       ?getStatusActiveLoggers@LogerManager@log4z@zsummer@@UAEIXZ 0043d2a0 f   log4z.obj
 0001:0003c330       ?getStatusTotalPopQueue@LogerManager@log4z@zsummer@@UAE_KXZ 0043d330 f i log4z.obj
 0001:0003c380       ?getStatusTotalPushQueue@LogerManager@log4z@zsummer@@UAE_KXZ 0043d380 f i log4z.obj
 0001:0003c3d0       ?getStatusTotalWriteBytes@LogerManager@log4z@zsummer@@UAE_KXZ 0043d3d0 f i log4z.obj
 0001:0003c420       ?getStatusTotalWriteCount@LogerManager@log4z@zsummer@@UAE_KXZ 0043d420 f i log4z.obj
 0001:0003c470       ?get_allocator@?$basic_string@DU?$char_traits@D@std@@V?$allocator@D@2@@std@@QBE?AV?$allocator@D@2@XZ 0043d470 f i log4z.obj
 0001:0003c520       ?hotChange@LogerManager@log4z@zsummer@@QAE_NHW4LogDataType@23@HABV?$basic_string@DU?$char_traits@D@std@@V?$allocator@D@2@@std@@@Z 0043d520 f   log4z.obj
 0001:0003c7e0       ?isLoggerEnable@LogerManager@log4z@zsummer@@UAE_NH@Z 0043d7e0 f   log4z.obj
 0001:0003c850       ?isOpen@Log4zFileHandler@log4z@zsummer@@QAE_NXZ 0043d850 f i log4z.obj
 0001:0003c8c0       ?length@?$char_traits@D@std@@SAIPBD@Z 0043d8c0 f i log4z.obj
 0001:0003c940       ?lock@LockHelper@log4z@zsummer@@QAEXXZ 0043d940 f   log4z.obj
 0001:0003c9a0       ?lower_bound@?$_Tree@V?$_Tmap_traits@V?$basic_string@DU?$char_traits@D@std@@V?$allocator@D@2@@std@@HU?$less@V?$basic_string@DU?$char_traits@D@std@@V?$allocator@D@2@@std@@@2@V?$allocator@U?$pair@$$CBV?$basic_string@DU?$char_traits@D@std@@V?$allocator@D@2@@std@@H@std@@@2@$0A@@std@@@std@@QAE?AV?$_Tree_iterator@V?$_Tree_val@U?$_Tree_simple_types@U?$pair@$$CBV?$basic_string@DU?$char_traits@D@std@@V?$allocator@D@2@@std@@H@std@@@std@@@std@@@2@ABV?$basic_string@DU?$char_traits@D@std@@V?$allocator@D@2@@2@@Z 0043d9a0 f i log4z.obj
 0001:0003ca30       ?lower_bound@?$_Tree@V?$_Tmap_traits@V?$basic_string@DU?$char_traits@D@std@@V?$allocator@D@2@@std@@ULoggerInfo@log4z@zsummer@@U?$less@V?$basic_string@DU?$char_traits@D@std@@V?$allocator@D@2@@std@@@2@V?$allocator@U?$pair@$$CBV?$basic_string@DU?$char_traits@D@std@@V?$allocator@D@2@@std@@ULoggerInfo@log4z@zsummer@@@std@@@2@$0A@@std@@@std@@QAE?AV?$_Tree_iterator@V?$_Tree_val@U?$_Tree_simple_types@U?$pair@$$CBV?$basic_string@DU?$char_traits@D@std@@V?$allocator@D@2@@std@@ULoggerInfo@log4z@zsummer@@@std@@@std@@@std@@@2@ABV?$basic_string@DU?$char_traits@D@std@@V?$allocator@D@2@@2@@Z 0043da30 f i log4z.obj
 0001:0003cac0       ?makeLogData@LogerManager@log4z@zsummer@@MAEPAULogData@23@HH@Z 0043dac0 f   log4z.obj
 0001:0003d2b0       ?max_size@?$_Tree@V?$_Tmap_traits@V?$basic_string@DU?$char_traits@D@std@@V?$allocator@D@2@@std@@HU?$less@V?$basic_string@DU?$char_traits@D@std@@V?$allocator@D@2@@std@@@2@V?$allocator@U?$pair@$$CBV?$basic_string@DU?$char_traits@D@std@@V?$allocator@D@2@@std@@H@std@@@2@$0A@@std@@@std@@QBEIXZ 0043e2b0 f i log4z.obj
 0001:0003d320       ?max_size@?$_Tree@V?$_Tmap_traits@V?$basic_string@DU?$char_traits@D@std@@V?$allocator@D@2@@std@@ULoggerInfo@log4z@zsummer@@U?$less@V?$basic_string@DU?$char_traits@D@std@@V?$allocator@D@2@@std@@@2@V?$allocator@U?$pair@$$CBV?$basic_string@DU?$char_traits@D@std@@V?$allocator@D@2@@std@@ULoggerInfo@log4z@zsummer@@@std@@@2@$0A@@std@@@std@@QBEIXZ 0043e320 f i log4z.obj
 0001:0003d390       ?max_size@?$_Wrap_alloc@V?$allocator@D@std@@@std@@QBEIU_Nil@2@@Z 0043e390 f i log4z.obj
 0001:0003d3f0       ?max_size@?$_Wrap_alloc@V?$allocator@PAULogData@log4z@zsummer@@@std@@@std@@QBEIU_Nil@2@@Z 0043e3f0 f i log4z.obj
 0001:0003d450       ?max_size@?$_Wrap_alloc@V?$allocator@U?$_List_node@U?$pair@_JV?$basic_string@DU?$char_traits@D@std@@V?$allocator@D@2@@std@@@std@@PAX@std@@@std@@@std@@QBEIU_Nil@2@@Z 0043e450 f i log4z.obj
 0001:0003d4b0       ?max_size@?$_Wrap_alloc@V?$allocator@U?$_Tree_node@U?$pair@$$CBV?$basic_string@DU?$char_traits@D@std@@V?$allocator@D@2@@std@@H@std@@PAX@std@@@std@@@std@@QBEIU_Nil@2@@Z 0043e4b0 f i log4z.obj
 0001:0003d510       ?max_size@?$_Wrap_alloc@V?$allocator@U?$_Tree_node@U?$pair@$$CBV?$basic_string@DU?$char_traits@D@std@@V?$allocator@D@2@@std@@ULoggerInfo@log4z@zsummer@@@std@@PAX@std@@@std@@@std@@QBEIU_Nil@2@@Z 0043e510 f i log4z.obj
 0001:0003d570       ?max_size@?$allocator@D@std@@QBEIXZ 0043e570 f i log4z.obj
 0001:0003d5b0       ?max_size@?$allocator@PAULogData@log4z@zsummer@@@std@@QBEIXZ 0043e5b0 f i log4z.obj
 0001:0003d5f0       ?max_size@?$allocator@U?$_List_node@U?$pair@_JV?$basic_string@DU?$char_traits@D@std@@V?$allocator@D@2@@std@@@std@@PAX@std@@@std@@QBEIXZ 0043e5f0 f i log4z.obj
 0001:0003d630       ?max_size@?$allocator@U?$_Tree_node@U?$pair@$$CBV?$basic_string@DU?$char_traits@D@std@@V?$allocator@D@2@@std@@H@std@@PAX@std@@@std@@QBEIXZ 0043e630 f i log4z.obj
 0001:0003d670       ?max_size@?$allocator@U?$_Tree_node@U?$pair@$$CBV?$basic_string@DU?$char_traits@D@std@@V?$allocator@D@2@@std@@ULoggerInfo@log4z@zsummer@@@std@@PAX@std@@@std@@QBEIXZ 0043e670 f i log4z.obj
 0001:0003d6b0       ?max_size@?$allocator_traits@V?$allocator@D@std@@@std@@SAIABV?$allocator@D@2@@Z 0043e6b0 f i log4z.obj
 0001:0003d700       ?max_size@?$allocator_traits@V?$allocator@PAULogData@log4z@zsummer@@@std@@@std@@SAIABV?$allocator@PAULogData@log4z@zsummer@@@2@@Z 0043e700 f i log4z.obj
 0001:0003d750       ?max_size@?$allocator_traits@V?$allocator@U?$_List_node@U?$pair@_JV?$basic_string@DU?$char_traits@D@std@@V?$allocator@D@2@@std@@@std@@PAX@std@@@std@@@std@@SAIABV?$allocator@U?$_List_node@U?$pair@_JV?$basic_string@DU?$char_traits@D@std@@V?$allocator@D@2@@std@@@std@@PAX@std@@@2@@Z 0043e750 f i log4z.obj
 0001:0003d7a0       ?max_size@?$allocator_traits@V?$allocator@U?$_Tree_node@U?$pair@$$CBV?$basic_string@DU?$char_traits@D@std@@V?$allocator@D@2@@std@@H@std@@PAX@std@@@std@@@std@@SAIABV?$allocator@U?$_Tree_node@U?$pair@$$CBV?$basic_string@DU?$char_traits@D@std@@V?$allocator@D@2@@std@@H@std@@PAX@std@@@2@@Z 0043e7a0 f i log4z.obj
 0001:0003d7f0       ?max_size@?$allocator_traits@V?$allocator@U?$_Tree_node@U?$pair@$$CBV?$basic_string@DU?$char_traits@D@std@@V?$allocator@D@2@@std@@ULoggerInfo@log4z@zsummer@@@std@@PAX@std@@@std@@@std@@SAIABV?$allocator@U?$_Tree_node@U?$pair@$$CBV?$basic_string@DU?$char_traits@D@std@@V?$allocator@D@2@@std@@ULoggerInfo@log4z@zsummer@@@std@@PAX@std@@@2@@Z 0043e7f0 f i log4z.obj
 0001:0003d840       ?max_size@?$basic_string@DU?$char_traits@D@std@@V?$allocator@D@2@@std@@QBEIXZ 0043e840 f i log4z.obj
 0001:0003d8e0       ?max_size@?$deque@PAULogData@log4z@zsummer@@V?$allocator@PAULogData@log4z@zsummer@@@std@@@std@@QBEIXZ 0043e8e0 f i log4z.obj
 0001:0003d950       ?max_size@?$list@U?$pair@_JV?$basic_string@DU?$char_traits@D@std@@V?$allocator@D@2@@std@@@std@@V?$allocator@U?$pair@_JV?$basic_string@DU?$char_traits@D@std@@V?$allocator@D@2@@std@@@std@@@2@@std@@QBEIXZ 0043e950 f i log4z.obj
 0001:0003d9c0       ?max_size@?$vector@PAULogData@log4z@zsummer@@V?$allocator@PAULogData@log4z@zsummer@@@std@@@std@@QBEIXZ 0043e9c0 f i log4z.obj
 0001:0003da30       ?move@?$char_traits@D@std@@SAPADPADPBDI@Z 0043ea30 f i log4z.obj
 0001:0003dac0       ?onHotChange@LogerManager@log4z@zsummer@@IAE_NHW4LogDataType@23@HABV?$basic_string@DU?$char_traits@D@std@@V?$allocator@D@2@@std@@@Z 0043eac0 f   log4z.obj
 0001:0003dd30       ?open@Log4zFileHandler@log4z@zsummer@@QAEJPBD0@Z 0043ed30 f i log4z.obj
 0001:0003de80       ?openLogger@LogerManager@log4z@zsummer@@IAE_NPAULogData@23@@Z 0043ee80 f   log4z.obj
 0001:0003f950       ?pointer_to@?$pointer_traits@PAD@std@@SAPADAAD@Z 00440950 f i log4z.obj
 0001:0003f9a0       ?pointer_to@?$pointer_traits@PAU?$pair@$$CBV?$basic_string@DU?$char_traits@D@std@@V?$allocator@D@2@@std@@H@std@@@std@@SAPAU?$pair@$$CBV?$basic_string@DU?$char_traits@D@std@@V?$allocator@D@2@@std@@H@2@AAU32@@Z 004409a0 f i log4z.obj
 0001:0003f9f0       ?pointer_to@?$pointer_traits@PAU?$pair@$$CBV?$basic_string@DU?$char_traits@D@std@@V?$allocator@D@2@@std@@ULoggerInfo@log4z@zsummer@@@std@@@std@@SAPAU?$pair@$$CBV?$basic_string@DU?$char_traits@D@std@@V?$allocator@D@2@@std@@ULoggerInfo@log4z@zsummer@@@2@AAU32@@Z 004409f0 f i log4z.obj
 0001:0003fa40       ?popLog@LogerManager@log4z@zsummer@@IAE_NAAPAULogData@23@@Z 00440a40 f   log4z.obj
 0001:0003fbb0       ?pop_back@?$deque@PAULogData@log4z@zsummer@@V?$allocator@PAULogData@log4z@zsummer@@@std@@@std@@QAEXXZ 00440bb0 f i log4z.obj
 0001:0003fd10       ?pop_back@?$vector@PAULogData@log4z@zsummer@@V?$allocator@PAULogData@log4z@zsummer@@@std@@@std@@QAEXXZ 00440d10 f i log4z.obj
 0001:0003fe20       ?pop_front@?$deque@PAULogData@log4z@zsummer@@V?$allocator@PAULogData@log4z@zsummer@@@std@@@std@@QAEXXZ 00440e20 f i log4z.obj
 0001:0003ffa0       ?pop_front@?$list@U?$pair@_JV?$basic_string@DU?$char_traits@D@std@@V?$allocator@D@2@@std@@@std@@V?$allocator@U?$pair@_JV?$basic_string@DU?$char_traits@D@std@@V?$allocator@D@2@@std@@@std@@@2@@std@@QAEXXZ 00440fa0 f i log4z.obj
 0001:000400b0       ?post@SemHelper@log4z@zsummer@@QAE_NXZ 004410b0 f   log4z.obj
 0001:00040140       ?prePushLog@LogerManager@log4z@zsummer@@UAE_NHH@Z 00441140 f   log4z.obj
 0001:00040300       ?pushLog@LogerManager@log4z@zsummer@@UAE_NPAULogData@23@PBDH@Z 00441300 f   log4z.obj
 0001:00040880       ?push_back@?$deque@PAULogData@log4z@zsummer@@V?$allocator@PAULogData@log4z@zsummer@@@std@@@std@@QAEXABQAULogData@log4z@zsummer@@@Z 00441880 f i log4z.obj
 0001:00040a60       ?push_back@?$list@U?$pair@_JV?$basic_string@DU?$char_traits@D@std@@V?$allocator@D@2@@std@@@std@@V?$allocator@U?$pair@_JV?$basic_string@DU?$char_traits@D@std@@V?$allocator@D@2@@std@@@std@@@2@@std@@QAEX$$QAU?$pair@_JV?$basic_string@DU?$char_traits@D@std@@V?$allocator@D@2@@std@@@2@@Z 00441a60 f i log4z.obj
 0001:00040af0       ?push_back@?$vector@PAULogData@log4z@zsummer@@V?$allocator@PAULogData@log4z@zsummer@@@std@@@std@@QAEXABQAULogData@log4z@zsummer@@@Z 00441af0 f i log4z.obj
 0001:00040d00       ?readContent@Log4zFileHandler@log4z@zsummer@@QAE?BV?$basic_string@DU?$char_traits@D@std@@V?$allocator@D@2@@std@@XZ 00441d00 f i log4z.obj
 0001:00040ef0       ?removeFile@Log4zFileHandler@log4z@zsummer@@QAE_NABV?$basic_string@DU?$char_traits@D@std@@V?$allocator@D@2@@std@@@Z 00441ef0 f i log4z.obj
 0001:00040f90       ?replace@?$basic_string@DU?$char_traits@D@std@@V?$allocator@D@2@@std@@QAEAAV12@IIABV12@II@Z 00441f90 f i log4z.obj
 0001:00041360       ?replace@?$basic_string@DU?$char_traits@D@std@@V?$allocator@D@2@@std@@QAEAAV12@IIPBDI@Z 00442360 f i log4z.obj
 0001:00041590       ?replace@?$basic_string@DU?$char_traits@D@std@@V?$allocator@D@2@@std@@QAEAAV12@V?$_String_const_iterator@V?$_String_val@U?$_Simple_types@D@std@@@std@@@2@0V?$_String_iterator@V?$_String_val@U?$_Simple_types@D@std@@@std@@@2@1@Z 00442590 f i log4z.obj
 0001:00041780       ?rfind@?$basic_string@DU?$char_traits@D@std@@V?$allocator@D@2@@std@@QBEIPBDI@Z 00442780 f i log4z.obj
 0001:00041810       ?rfind@?$basic_string@DU?$char_traits@D@std@@V?$allocator@D@2@@std@@QBEIPBDII@Z 00442810 f i log4z.obj
 0001:000419d0       ?run@LogerManager@log4z@zsummer@@MAEXXZ 004429d0 f   log4z.obj
 0001:00042530       ?select_on_container_copy_construction@?$_Wrap_alloc@V?$allocator@D@std@@@std@@QBE?AU12@U_Nil@2@@Z 00443530 f i log4z.obj
 0001:000425a0       ?select_on_container_copy_construction@?$_Wrap_alloc@V?$allocator@U?$_List_node@U?$pair@_JV?$basic_string@DU?$char_traits@D@std@@V?$allocator@D@2@@std@@@std@@PAX@std@@@std@@@std@@QBE?AU12@U_Nil@2@@Z 004435a0 f i log4z.obj
 0001:00042610       ?select_on_container_copy_construction@?$allocator_traits@V?$allocator@D@std@@@std@@SA?AV?$allocator@D@2@ABV32@@Z 00443610 f i log4z.obj
 0001:00042670       ?select_on_container_copy_construction@?$allocator_traits@V?$allocator@U?$_List_node@U?$pair@_JV?$basic_string@DU?$char_traits@D@std@@V?$allocator@D@2@@std@@@std@@PAX@std@@@std@@@std@@SA?AV?$allocator@U?$_List_node@U?$pair@_JV?$basic_string@DU?$char_traits@D@std@@V?$allocator@D@2@@std@@@std@@PAX@std@@@2@ABV32@@Z 00443670 f i log4z.obj
 0001:000426d0       ?setAutoUpdate@LogerManager@log4z@zsummer@@UAE_NH@Z 004436d0 f   log4z.obj
 0001:00042720       ?setLoggerDisplay@LogerManager@log4z@zsummer@@UAE_NH_N@Z 00443720 f   log4z.obj
 0001:00042820       ?setLoggerFileLine@LogerManager@log4z@zsummer@@UAE_NH_N@Z 00443820 f   log4z.obj
 0001:00042920       ?setLoggerLevel@LogerManager@log4z@zsummer@@UAE_NHH@Z 00443920 f   log4z.obj
 0001:00042a70       ?setLoggerLimitsize@LogerManager@log4z@zsummer@@UAE_NHI@Z 00443a70 f   log4z.obj
 0001:00042b80       ?setLoggerMonthdir@LogerManager@log4z@zsummer@@UAE_NH_N@Z 00443b80 f   log4z.obj
 0001:00042c80       ?setLoggerName@LogerManager@log4z@zsummer@@UAE_NHPBD@Z 00443c80 f   log4z.obj
 0001:00042db0       ?setLoggerOutFile@LogerManager@log4z@zsummer@@UAE_NH_N@Z 00443db0 f   log4z.obj
 0001:00042eb0       ?setLoggerPath@LogerManager@log4z@zsummer@@UAE_NHPBD@Z 00443eb0 f   log4z.obj
 0001:00043050       ?setLoggerReserveTime@LogerManager@log4z@zsummer@@UAE_NH_J@Z 00444050 f   log4z.obj
 0001:00043150       ?showColorText@LogerManager@log4z@zsummer@@IAEXPBDH@Z 00444150 f   log4z.obj
 0001:00043300       ?size@?$_Tree@V?$_Tmap_traits@V?$basic_string@DU?$char_traits@D@std@@V?$allocator@D@2@@std@@HU?$less@V?$basic_string@DU?$char_traits@D@std@@V?$allocator@D@2@@std@@@2@V?$allocator@U?$pair@$$CBV?$basic_string@DU?$char_traits@D@std@@V?$allocator@D@2@@std@@H@std@@@2@$0A@@std@@@std@@QBEIXZ 00444300 f i log4z.obj
 0001:00043360       ?size@?$deque@PAULogData@log4z@zsummer@@V?$allocator@PAULogData@log4z@zsummer@@@std@@@std@@QBEIXZ 00444360 f i log4z.obj
 0001:000433c0       ?size@?$list@U?$pair@_JV?$basic_string@DU?$char_traits@D@std@@V?$allocator@D@2@@std@@@std@@V?$allocator@U?$pair@_JV?$basic_string@DU?$char_traits@D@std@@V?$allocator@D@2@@std@@@std@@@2@@std@@QBEIXZ 004443c0 f i log4z.obj
 0001:00043420       ?size@?$vector@PAULogData@log4z@zsummer@@V?$allocator@PAULogData@log4z@zsummer@@@std@@@std@@QBEIXZ 00444420 f i log4z.obj
 0001:00043710       ?start@LogerManager@log4z@zsummer@@UAE_NXZ 00444710 f   log4z.obj
 0001:000437f0       ?start@ThreadHelper@log4z@zsummer@@QAE_NXZ 004447f0 f   log4z.obj
 0001:000438b0       ?stop@LogerManager@log4z@zsummer@@UAE_NXZ 004448b0 f   log4z.obj
 0001:000439a0       ?substr@?$basic_string@DU?$char_traits@D@std@@V?$allocator@D@2@@std@@QBE?AV12@II@Z 004449a0 f i log4z.obj
 0001:00043a40       ?swap@?$deque@PAULogData@log4z@zsummer@@V?$allocator@PAULogData@log4z@zsummer@@@std@@@std@@QAEXAAV12@@Z 00444a40 f i log4z.obj
 0001:00043f40       ?unLock@LockHelper@log4z@zsummer@@QAEXXZ 00444f40 f   log4z.obj
 0001:00043fa0       ?updateConfig@LogerManager@log4z@zsummer@@UAE_NXZ 00444fa0 f   log4z.obj
 0001:000441e0       ?wait@SemHelper@log4z@zsummer@@QAE_NH@Z 004451e0 f   log4z.obj
 0001:00044270       ?wait@ThreadHelper@log4z@zsummer@@QAE_NXZ 00445270 f   log4z.obj
 0001:000442e0       ?write@Log4zFileHandler@log4z@zsummer@@QAEXPBDI@Z 004452e0 f i log4z.obj
 0001:00044380       ?writeLongLong@Log4zStream@log4z@zsummer@@QAEAAV123@_JHH@Z 00445380 f i log4z.obj
 0001:00044420       __vfprintf_l               00445420 f i log4z.obj
 0001:00044560       _printf                    00445560 f i log4z.obj
 0001:00044650       ??0CMiniDump@@QAE@XZ       00445650 f   MiniDump.obj
 0001:00044690       ??1CMiniDump@@QAE@XZ       00445690 f   MiniDump.obj
 0001:000446d0       ?ApplicationCrashHandler@CMiniDump@@CAJPAU_EXCEPTION_POINTERS@@@Z 004456d0 f   MiniDump.obj
 0001:00044950       ?CreateDumpFile@CMiniDump@@CAXPBDPAU_EXCEPTION_POINTERS@@@Z 00445950 f   MiniDump.obj
 0001:00044a80       ?EnableAutoDump@CMiniDump@@SAXE@Z 00445a80 f   MiniDump.obj
 0001:00044af0       ?OnBnClickedOk@CAddPatch@@QAEXXZ 00445af0 f   AddPatch.obj
 0001:00044dd0       ?OnBnClickedRadio1@CAddPatch@@QAEXXZ 00445dd0 f   AddPatch.obj
 0001:00044eb0       ?OnBnClickedRadio2@CAddPatch@@QAEXXZ 00445eb0 f   AddPatch.obj
 0001:00044f90       ?OnBnClickedRadio3@CAddPatch@@QAEXXZ 00445f90 f   AddPatch.obj
 0001:00045070       ??$__vcrt_va_start_verify_argument_type@QB_W@@YAXXZ 00446070 f i AddPatch.obj
 0001:000450a0       ??0?$CTraceCategoryEx@$0CAAA@$0A@@ATL@@QAE@PBD@Z 004460a0 f i AddPatch.obj
 0001:00045100       ??0CAddPatch@@QAE@PAVCWnd@@@Z 00446100 f   AddPatch.obj
 0001:00045220       ??1CAddPatch@@UAE@XZ       00446220 f   AddPatch.obj
 0001:000452b0       ??1CDialogEx@@UAE@XZ       004462b0 f i AddPatch.obj
 0001:00045330       ??_GCAddPatch@@UAEPAXI@Z   00446330 f i AddPatch.obj
 0001:00045330       ??_ECAddPatch@@UAEPAXI@Z   00446330 f i AddPatch.obj
 0001:000453c0       ?DoDataExchange@CAddPatch@@MAEXPAVCDataExchange@@@Z 004463c0 f   AddPatch.obj
 0001:00045470       ?GetMessageMap@CAddPatch@@MBEPBUAFX_MSGMAP@@XZ 00446470 f   AddPatch.obj
 0001:000454c0       ?GetRuntimeClass@CAddPatch@@UBEPAUCRuntimeClass@@XZ 004464c0 f   AddPatch.obj
 0001:00045500       ?GetThisClass@CAddPatch@@SGPAUCRuntimeClass@@XZ 00446500 f   AddPatch.obj
 0001:00045540       ?GetThisMessageMap@CAddPatch@@KGPBUAFX_MSGMAP@@XZ 00446540 f   AddPatch.obj
 0001:00045580       ?InitDisaDate@CAddPatch@@QAEHXZ 00446580 f   AddPatch.obj
 0001:00045960       ?OnInitDialog@CAddPatch@@UAEHXZ 00446960 f   AddPatch.obj
 0001:00045c20       ?RegisterCategory@CTrace@ATL@@SAXPBDI@Z 00446c20 f i AddPatch.obj
 0001:00045dc0       ?_GetBaseClass@CAddPatch@@KGPAUCRuntimeClass@@XZ 00446dc0 f   AddPatch.obj
 0001:00045e10       __vswprintf_s_l            00446e10 f i AddPatch.obj
 0001:00045ec0       _swprintf_s                00446ec0 f i AddPatch.obj
 0001:00045f40       ?OnBnClickedButton1@CAddSectionDlg@@QAEXXZ 00446f40 f   AddSectionDlg.obj
 0001:000461a0       ??0CAddSectionDlg@@QAE@PAVCWnd@@@Z 004471a0 f   AddSectionDlg.obj
 0001:00046280       ??1CAddSectionDlg@@UAE@XZ  00447280 f   AddSectionDlg.obj
 0001:00046300       ??_GCAddSectionDlg@@UAEPAXI@Z 00447300 f i AddSectionDlg.obj
 0001:00046300       ??_ECAddSectionDlg@@UAEPAXI@Z 00447300 f i AddSectionDlg.obj
 0001:00046390       ?DoDataExchange@CAddSectionDlg@@MAEXPAVCDataExchange@@@Z 00447390 f   AddSectionDlg.obj
 0001:00046420       ?GetMessageMap@CAddSectionDlg@@MBEPBUAFX_MSGMAP@@XZ 00447420 f   AddSectionDlg.obj
 0001:00046470       ?GetRuntimeClass@CAddSectionDlg@@UBEPAUCRuntimeClass@@XZ 00447470 f   AddSectionDlg.obj
 0001:000464b0       ?GetThisClass@CAddSectionDlg@@SGPAUCRuntimeClass@@XZ 004474b0 f   AddSectionDlg.obj
 0001:000464f0       ?GetThisMessageMap@CAddSectionDlg@@KGPBUAFX_MSGMAP@@XZ 004474f0 f   AddSectionDlg.obj
 0001:00046530       ?OnInitDialog@CAddSectionDlg@@UAEHXZ 00447530 f   AddSectionDlg.obj
 0001:000465a0       ?_GetBaseClass@CAddSectionDlg@@KGPAUCRuntimeClass@@XZ 004475a0 f   AddSectionDlg.obj
 0001:000465f0       ?OnBnClickedMfcbutton@DataDirectoryDlg@@QAEXI@Z 004475f0 f   DataDirectoryDlg.obj
 0001:00046cc0       ??0DataDirectoryDlg@@QAE@PAVCWnd@@@Z 00447cc0 f   DataDirectoryDlg.obj
 0001:00046d40       ??1DataDirectoryDlg@@UAE@XZ 00447d40 f   DataDirectoryDlg.obj
 0001:00046e30       ??_GDataDirectoryDlg@@UAEPAXI@Z 00447e30 f i DataDirectoryDlg.obj
 0001:00046e30       ??_EDataDirectoryDlg@@UAEPAXI@Z 00447e30 f i DataDirectoryDlg.obj
 0001:00046ec0       ?DoDataExchange@DataDirectoryDlg@@MAEXPAVCDataExchange@@@Z 00447ec0 f   DataDirectoryDlg.obj
 0001:00046f20       ?GetMessageMap@DataDirectoryDlg@@MBEPBUAFX_MSGMAP@@XZ 00447f20 f   DataDirectoryDlg.obj
 0001:00046f70       ?GetRuntimeClass@DataDirectoryDlg@@UBEPAUCRuntimeClass@@XZ 00447f70 f   DataDirectoryDlg.obj
 0001:00046fb0       ?GetThisClass@DataDirectoryDlg@@SGPAUCRuntimeClass@@XZ 00447fb0 f   DataDirectoryDlg.obj
 0001:00046ff0       ?GetThisMessageMap@DataDirectoryDlg@@KGPBUAFX_MSGMAP@@XZ 00447ff0 f   DataDirectoryDlg.obj
 0001:00047030       ?OnInitDialog@DataDirectoryDlg@@UAEHXZ 00448030 f   DataDirectoryDlg.obj
 0001:00047ea0       ?_GetBaseClass@DataDirectoryDlg@@KGPAUCRuntimeClass@@XZ 00448ea0 f   DataDirectoryDlg.obj
 0001:00047ef0       ??$_Unfancy@_W@std@@YAPA_WPA_W@Z 00448ef0 f i DialogFirst.obj
 0001:00047f30       ??0Data_t@_bstr_t@@QAE@PB_W@Z 00448f30 f i DialogFirst.obj
 0001:00047fd0       ??0DialogFirst@@QAE@PAVCWnd@@@Z 00448fd0 f   DialogFirst.obj
 0001:00048320       ??0_bstr_t@@QAE@PB_W@Z     00449320 f i DialogFirst.obj
 0001:00048430       ??1Data_t@_bstr_t@@AAE@XZ  00449430 f i DialogFirst.obj
 0001:00048480       ??1DialogFirst@@UAE@XZ     00449480 f   DialogFirst.obj
 0001:000486f0       ??1_bstr_t@@QAE@XZ         004496f0 f i DialogFirst.obj
 0001:00048740       ??2Data_t@_bstr_t@@SAPAXI@Z 00449740 f i DialogFirst.obj
 0001:00048790       ??A?$vector@U_DelayItem@@V?$allocator@U_DelayItem@@@std@@@std@@QAEAAU_DelayItem@@I@Z 00449790 f i DialogFirst.obj
 0001:000488b0       ??A?$vector@U_ImportItem@@V?$allocator@U_ImportItem@@@std@@@std@@QAEAAU_ImportItem@@I@Z 004498b0 f i DialogFirst.obj
 0001:000489d0       ??A?$vector@U_OrdinalFuncs@@V?$allocator@U_OrdinalFuncs@@@std@@@std@@QAEAAU_OrdinalFuncs@@I@Z 004499d0 f i DialogFirst.obj
 0001:00048af0       ??A?$vector@U_RelocItem@@V?$allocator@U_RelocItem@@@std@@@std@@QAEAAU_RelocItem@@I@Z 00449af0 f i DialogFirst.obj
 0001:00048c10       ??A?$vector@U_ResourceItem@@V?$allocator@U_ResourceItem@@@std@@@std@@QAEAAU_ResourceItem@@I@Z 00449c10 f i DialogFirst.obj
 0001:00048d30       ??B_bstr_t@@QBEPADXZ       00449d30 f i DialogFirst.obj
 0001:00048db0       ??_GData_t@_bstr_t@@AAEPAXI@Z 00449db0 f i DialogFirst.obj
 0001:00048e20       ??_EDialogFirst@@UAEPAXI@Z 00449e20 f i DialogFirst.obj
 0001:00048e20       ??_GDialogFirst@@UAEPAXI@Z 00449e20 f i DialogFirst.obj
 0001:00048eb0       ?DoDataExchange@DialogFirst@@MAEXPAVCDataExchange@@@Z 00449eb0 f   DialogFirst.obj
 0001:00049250       ?EnumChildProc@DialogFirst@@CGHPAUHWND__@@J@Z 0044a250 f   DialogFirst.obj
 0001:00049380       ?GetMessageMap@DialogFirst@@MBEPBUAFX_MSGMAP@@XZ 0044a380 f   DialogFirst.obj
 0001:000493d0       ?GetRuntimeClass@DialogFirst@@UBEPAUCRuntimeClass@@XZ 0044a3d0 f   DialogFirst.obj
 0001:00049410       ?GetString@Data_t@_bstr_t@@QBEPBDXZ 0044a410 f i DialogFirst.obj
 0001:00049480       ?GetThisClass@DialogFirst@@SGPAUCRuntimeClass@@XZ 0044a480 f   DialogFirst.obj
 0001:000494c0       ?GetThisMessageMap@DialogFirst@@KGPBUAFX_MSGMAP@@XZ 0044a4c0 f   DialogFirst.obj
 0001:00049500       ?Init@DialogFirst@@QAEXH@Z 0044a500 f   DialogFirst.obj
 0001:000495a0       ?OnInitDialog@DialogFirst@@UAEHXZ 0044a5a0 f   DialogFirst.obj
 0001:00049600       ?Release@Data_t@_bstr_t@@QAEKXZ 0044a600 f i DialogFirst.obj
 0001:000496b0       ?Reset@DialogFirst@@AAEXXZ 0044a6b0 f   DialogFirst.obj
 0001:00049720       ?SetDlgUI@DialogFirst@@AAEHXZ 0044a720 f   DialogFirst.obj
 0001:0004a8b0       ?SetExportCtrl@DialogFirst@@AAEHXZ 0044b8b0 f   DialogFirst.obj
 0001:0004ad60       ?SetImportCtrl@DialogFirst@@AAEHXZ 0044bd60 f   DialogFirst.obj
 0001:0004b390       ?SetRelay@DialogFirst@@AAEHXZ 0044c390 f   DialogFirst.obj
 0001:0004b9e0       ?SetReloc@DialogFirst@@AAEHXZ 0044c9e0 f   DialogFirst.obj
 0001:0004bee0       ?SetResource@DialogFirst@@AAEHXZ 0044cee0 f   DialogFirst.obj
 0001:0004c320       ?WorkThreadProc@DialogFirst@@CGIPAX@Z 0044d320 f   DialogFirst.obj
 0001:0004ca40       ?_Free@Data_t@_bstr_t@@AAEXXZ 0044da40 f i DialogFirst.obj
 0001:0004caf0       ?_Free@_bstr_t@@AAEXXZ     0044daf0 f i DialogFirst.obj
 0001:0004cb60       ?_GetBaseClass@DialogFirst@@KGPAUCRuntimeClass@@XZ 0044db60 f   DialogFirst.obj
 0001:0004cbb0       ?_Get_data@?$_String_alloc@U?$_String_base_types@_WV?$allocator@_W@std@@@std@@@std@@QBEABV?$_String_val@U?$_Simple_types@_W@std@@@2@XZ 0044dbb0 f i DialogFirst.obj
 0001:0004cc00       ?_Get_data@?$_Vector_alloc@U?$_Vec_base_types@U_DelayItem@@V?$allocator@U_DelayItem@@@std@@@std@@@std@@QAEAAV?$_Vector_val@U?$_Simple_types@U_DelayItem@@@std@@@2@XZ 0044dc00 f i DialogFirst.obj
 0001:0004cc50       ?_Get_data@?$_Vector_alloc@U?$_Vec_base_types@U_DelayItem@@V?$allocator@U_DelayItem@@@std@@@std@@@std@@QBEABV?$_Vector_val@U?$_Simple_types@U_DelayItem@@@std@@@2@XZ 0044dc50 f i DialogFirst.obj
 0001:0004cca0       ?_Get_data@?$_Vector_alloc@U?$_Vec_base_types@U_ImportItem@@V?$allocator@U_ImportItem@@@std@@@std@@@std@@QAEAAV?$_Vector_val@U?$_Simple_types@U_ImportItem@@@std@@@2@XZ 0044dca0 f i DialogFirst.obj
 0001:0004ccf0       ?_Get_data@?$_Vector_alloc@U?$_Vec_base_types@U_ImportItem@@V?$allocator@U_ImportItem@@@std@@@std@@@std@@QBEABV?$_Vector_val@U?$_Simple_types@U_ImportItem@@@std@@@2@XZ 0044dcf0 f i DialogFirst.obj
 0001:0004cd40       ?_Get_data@?$_Vector_alloc@U?$_Vec_base_types@U_OrdinalFuncs@@V?$allocator@U_OrdinalFuncs@@@std@@@std@@@std@@QAEAAV?$_Vector_val@U?$_Simple_types@U_OrdinalFuncs@@@std@@@2@XZ 0044dd40 f i DialogFirst.obj
 0001:0004cd90       ?_Get_data@?$_Vector_alloc@U?$_Vec_base_types@U_OrdinalFuncs@@V?$allocator@U_OrdinalFuncs@@@std@@@std@@@std@@QBEABV?$_Vector_val@U?$_Simple_types@U_OrdinalFuncs@@@std@@@2@XZ 0044dd90 f i DialogFirst.obj
 0001:0004cde0       ?_Get_data@?$_Vector_alloc@U?$_Vec_base_types@U_RelocItem@@V?$allocator@U_RelocItem@@@std@@@std@@@std@@QAEAAV?$_Vector_val@U?$_Simple_types@U_RelocItem@@@std@@@2@XZ 0044dde0 f i DialogFirst.obj
 0001:0004ce30       ?_Get_data@?$_Vector_alloc@U?$_Vec_base_types@U_RelocItem@@V?$allocator@U_RelocItem@@@std@@@std@@@std@@QBEABV?$_Vector_val@U?$_Simple_types@U_RelocItem@@@std@@@2@XZ 0044de30 f i DialogFirst.obj
 0001:0004ce80       ?_Get_data@?$_Vector_alloc@U?$_Vec_base_types@U_ResourceItem@@V?$allocator@U_ResourceItem@@@std@@@std@@@std@@QAEAAV?$_Vector_val@U?$_Simple_types@U_ResourceItem@@@std@@@2@XZ 0044de80 f i DialogFirst.obj
 0001:0004ced0       ?_Get_data@?$_Vector_alloc@U?$_Vec_base_types@U_ResourceItem@@V?$allocator@U_ResourceItem@@@std@@@std@@@std@@QBEABV?$_Vector_val@U?$_Simple_types@U_ResourceItem@@@std@@@2@XZ 0044ded0 f i DialogFirst.obj
 0001:0004cf20       ?_Get_second@?$_Compressed_pair@U?$_Wrap_alloc@V?$allocator@U_DelayItem@@@std@@@std@@V?$_Vector_val@U?$_Simple_types@U_DelayItem@@@std@@@2@$00@std@@QAEAAV?$_Vector_val@U?$_Simple_types@U_DelayItem@@@std@@@2@XZ 0044df20 f i DialogFirst.obj
 0001:0004cf60       ?_Get_second@?$_Compressed_pair@U?$_Wrap_alloc@V?$allocator@U_DelayItem@@@std@@@std@@V?$_Vector_val@U?$_Simple_types@U_DelayItem@@@std@@@2@$00@std@@QBEABV?$_Vector_val@U?$_Simple_types@U_DelayItem@@@std@@@2@XZ 0044df60 f i DialogFirst.obj
 0001:0004cfa0       ?_Get_second@?$_Compressed_pair@U?$_Wrap_alloc@V?$allocator@U_ImportItem@@@std@@@std@@V?$_Vector_val@U?$_Simple_types@U_ImportItem@@@std@@@2@$00@std@@QAEAAV?$_Vector_val@U?$_Simple_types@U_ImportItem@@@std@@@2@XZ 0044dfa0 f i DialogFirst.obj
 0001:0004cfe0       ?_Get_second@?$_Compressed_pair@U?$_Wrap_alloc@V?$allocator@U_ImportItem@@@std@@@std@@V?$_Vector_val@U?$_Simple_types@U_ImportItem@@@std@@@2@$00@std@@QBEABV?$_Vector_val@U?$_Simple_types@U_ImportItem@@@std@@@2@XZ 0044dfe0 f i DialogFirst.obj
 0001:0004d020       ?_Get_second@?$_Compressed_pair@U?$_Wrap_alloc@V?$allocator@U_OrdinalFuncs@@@std@@@std@@V?$_Vector_val@U?$_Simple_types@U_OrdinalFuncs@@@std@@@2@$00@std@@QAEAAV?$_Vector_val@U?$_Simple_types@U_OrdinalFuncs@@@std@@@2@XZ 0044e020 f i DialogFirst.obj
 0001:0004d060       ?_Get_second@?$_Compressed_pair@U?$_Wrap_alloc@V?$allocator@U_OrdinalFuncs@@@std@@@std@@V?$_Vector_val@U?$_Simple_types@U_OrdinalFuncs@@@std@@@2@$00@std@@QBEABV?$_Vector_val@U?$_Simple_types@U_OrdinalFuncs@@@std@@@2@XZ 0044e060 f i DialogFirst.obj
 0001:0004d0a0       ?_Get_second@?$_Compressed_pair@U?$_Wrap_alloc@V?$allocator@U_RelocItem@@@std@@@std@@V?$_Vector_val@U?$_Simple_types@U_RelocItem@@@std@@@2@$00@std@@QAEAAV?$_Vector_val@U?$_Simple_types@U_RelocItem@@@std@@@2@XZ 0044e0a0 f i DialogFirst.obj
 0001:0004d0e0       ?_Get_second@?$_Compressed_pair@U?$_Wrap_alloc@V?$allocator@U_RelocItem@@@std@@@std@@V?$_Vector_val@U?$_Simple_types@U_RelocItem@@@std@@@2@$00@std@@QBEABV?$_Vector_val@U?$_Simple_types@U_RelocItem@@@std@@@2@XZ 0044e0e0 f i DialogFirst.obj
 0001:0004d120       ?_Get_second@?$_Compressed_pair@U?$_Wrap_alloc@V?$allocator@U_ResourceItem@@@std@@@std@@V?$_Vector_val@U?$_Simple_types@U_ResourceItem@@@std@@@2@$00@std@@QAEAAV?$_Vector_val@U?$_Simple_types@U_ResourceItem@@@std@@@2@XZ 0044e120 f i DialogFirst.obj
 0001:0004d160       ?_Get_second@?$_Compressed_pair@U?$_Wrap_alloc@V?$allocator@U_ResourceItem@@@std@@@std@@V?$_Vector_val@U?$_Simple_types@U_ResourceItem@@@std@@@2@$00@std@@QBEABV?$_Vector_val@U?$_Simple_types@U_ResourceItem@@@std@@@2@XZ 0044e160 f i DialogFirst.obj
 0001:0004d1a0       ?_Get_second@?$_Compressed_pair@U?$_Wrap_alloc@V?$allocator@_W@std@@@std@@V?$_String_val@U?$_Simple_types@_W@std@@@2@$00@std@@QBEABV?$_String_val@U?$_Simple_types@_W@std@@@2@XZ 0044e1a0 f i DialogFirst.obj
 0001:0004d1e0       ?_Myfirst@?$_Vector_alloc@U?$_Vec_base_types@U_DelayItem@@V?$allocator@U_DelayItem@@@std@@@std@@@std@@QAEAAPAU_DelayItem@@XZ 0044e1e0 f i DialogFirst.obj
 0001:0004d240       ?_Myfirst@?$_Vector_alloc@U?$_Vec_base_types@U_DelayItem@@V?$allocator@U_DelayItem@@@std@@@std@@@std@@QBEABQAU_DelayItem@@XZ 0044e240 f i DialogFirst.obj
 0001:0004d2a0       ?_Myfirst@?$_Vector_alloc@U?$_Vec_base_types@U_ImportItem@@V?$allocator@U_ImportItem@@@std@@@std@@@std@@QAEAAPAU_ImportItem@@XZ 0044e2a0 f i DialogFirst.obj
 0001:0004d300       ?_Myfirst@?$_Vector_alloc@U?$_Vec_base_types@U_ImportItem@@V?$allocator@U_ImportItem@@@std@@@std@@@std@@QBEABQAU_ImportItem@@XZ 0044e300 f i DialogFirst.obj
 0001:0004d360       ?_Myfirst@?$_Vector_alloc@U?$_Vec_base_types@U_OrdinalFuncs@@V?$allocator@U_OrdinalFuncs@@@std@@@std@@@std@@QAEAAPAU_OrdinalFuncs@@XZ 0044e360 f i DialogFirst.obj
 0001:0004d3c0       ?_Myfirst@?$_Vector_alloc@U?$_Vec_base_types@U_OrdinalFuncs@@V?$allocator@U_OrdinalFuncs@@@std@@@std@@@std@@QBEABQAU_OrdinalFuncs@@XZ 0044e3c0 f i DialogFirst.obj
 0001:0004d420       ?_Myfirst@?$_Vector_alloc@U?$_Vec_base_types@U_RelocItem@@V?$allocator@U_RelocItem@@@std@@@std@@@std@@QAEAAPAU_RelocItem@@XZ 0044e420 f i DialogFirst.obj
 0001:0004d480       ?_Myfirst@?$_Vector_alloc@U?$_Vec_base_types@U_RelocItem@@V?$allocator@U_RelocItem@@@std@@@std@@@std@@QBEABQAU_RelocItem@@XZ 0044e480 f i DialogFirst.obj
 0001:0004d4e0       ?_Myfirst@?$_Vector_alloc@U?$_Vec_base_types@U_ResourceItem@@V?$allocator@U_ResourceItem@@@std@@@std@@@std@@QAEAAPAU_ResourceItem@@XZ 0044e4e0 f i DialogFirst.obj
 0001:0004d540       ?_Myfirst@?$_Vector_alloc@U?$_Vec_base_types@U_ResourceItem@@V?$allocator@U_ResourceItem@@@std@@@std@@@std@@QBEABQAU_ResourceItem@@XZ 0044e540 f i DialogFirst.obj
 0001:0004d5a0       ?_Mylast@?$_Vector_alloc@U?$_Vec_base_types@U_DelayItem@@V?$allocator@U_DelayItem@@@std@@@std@@@std@@QBEABQAU_DelayItem@@XZ 0044e5a0 f i DialogFirst.obj
 0001:0004d600       ?_Mylast@?$_Vector_alloc@U?$_Vec_base_types@U_ImportItem@@V?$allocator@U_ImportItem@@@std@@@std@@@std@@QBEABQAU_ImportItem@@XZ 0044e600 f i DialogFirst.obj
 0001:0004d660       ?_Mylast@?$_Vector_alloc@U?$_Vec_base_types@U_OrdinalFuncs@@V?$allocator@U_OrdinalFuncs@@@std@@@std@@@std@@QBEABQAU_OrdinalFuncs@@XZ 0044e660 f i DialogFirst.obj
 0001:0004d6c0       ?_Mylast@?$_Vector_alloc@U?$_Vec_base_types@U_RelocItem@@V?$allocator@U_RelocItem@@@std@@@std@@@std@@QBEABQAU_RelocItem@@XZ 0044e6c0 f i DialogFirst.obj
 0001:0004d720       ?_Mylast@?$_Vector_alloc@U?$_Vec_base_types@U_ResourceItem@@V?$allocator@U_ResourceItem@@@std@@@std@@@std@@QBEABQAU_ResourceItem@@XZ 0044e720 f i DialogFirst.obj
 0001:0004d780       ?_Myptr@?$_String_alloc@U?$_String_base_types@_WV?$allocator@_W@std@@@std@@@std@@QBEPB_WXZ 0044e780 f i DialogFirst.obj
 0001:0004d7e0       ?_Myptr@?$_String_val@U?$_Simple_types@_W@std@@@std@@QBEPB_WXZ 0044e7e0 f i DialogFirst.obj
 0001:0004d870       ?c_str@?$basic_string@_WU?$char_traits@_W@std@@V?$allocator@_W@2@@std@@QBEPB_WXZ 0044e870 f i DialogFirst.obj
 0001:0004d900       ?size@?$vector@U_DelayItem@@V?$allocator@U_DelayItem@@@std@@@std@@QBEIXZ 0044e900 f i DialogFirst.obj
 0001:0004d970       ?size@?$vector@U_ImportItem@@V?$allocator@U_ImportItem@@@std@@@std@@QBEIXZ 0044e970 f i DialogFirst.obj
 0001:0004d9e0       ?size@?$vector@U_OrdinalFuncs@@V?$allocator@U_OrdinalFuncs@@@std@@@std@@QBEIXZ 0044e9e0 f i DialogFirst.obj
 0001:0004da50       ?size@?$vector@U_RelocItem@@V?$allocator@U_RelocItem@@@std@@@std@@QBEIXZ 0044ea50 f i DialogFirst.obj
 0001:0004dac0       ?size@?$vector@U_ResourceItem@@V?$allocator@U_ResourceItem@@@std@@@std@@QBEIXZ 0044eac0 f i DialogFirst.obj
 0001:0004dd20       ??0CDisaDialog@@QAE@PAVCWnd@@@Z 0044ed20 f   DisaDialog.obj
 0001:0004de00       ??1CDisaDialog@@UAE@XZ     0044ee00 f   DisaDialog.obj
 0001:0004de80       ??_GCDisaDialog@@UAEPAXI@Z 0044ee80 f i DisaDialog.obj
 0001:0004de80       ??_ECDisaDialog@@UAEPAXI@Z 0044ee80 f i DisaDialog.obj
 0001:0004df10       ?DoDataExchange@CDisaDialog@@MAEXPAVCDataExchange@@@Z 0044ef10 f   DisaDialog.obj
 0001:0004df90       ?GetMessageMap@CDisaDialog@@MBEPBUAFX_MSGMAP@@XZ 0044ef90 f   DisaDialog.obj
 0001:0004dfe0       ?GetRuntimeClass@CDisaDialog@@UBEPAUCRuntimeClass@@XZ 0044efe0 f   DisaDialog.obj
 0001:0004e020       ?GetThisClass@CDisaDialog@@SGPAUCRuntimeClass@@XZ 0044f020 f   DisaDialog.obj
 0001:0004e060       ?GetThisMessageMap@CDisaDialog@@KGPBUAFX_MSGMAP@@XZ 0044f060 f   DisaDialog.obj
 0001:0004e0a0       ?InitDisaDate@CDisaDialog@@QAEHXZ 0044f0a0 f   DisaDialog.obj
 0001:0004e410       ?OnInitDialog@CDisaDialog@@UAEHXZ 0044f410 f   DisaDialog.obj
 0001:0004e480       ?SetDlgUI@CDisaDialog@@QAEXXZ 0044f480 f   DisaDialog.obj
 0001:0004e8b0       ?_GetBaseClass@CDisaDialog@@KGPAUCRuntimeClass@@XZ 0044f8b0 f   DisaDialog.obj
 0001:0004e900       ?OnSelchangeTab1@CEncryptDlg@@QAEXPAUtagNMHDR@@PAJ@Z 0044f900 f   EncryptDlg.obj
 0001:0004e9e0       ?OnMsgSave@CEncryptDlg@@IAEJIJ@Z 0044f9e0 f   EncryptDlg.obj
 0001:0004ea20       ??0CEncryptDlg@@QAE@PAVCWnd@@@Z 0044fa20 f   EncryptDlg.obj
 0001:0004eb20       ??1CEncryptDlg@@UAE@XZ     0044fb20 f   EncryptDlg.obj
 0001:0004ebb0       ??_GCEncryptDlg@@UAEPAXI@Z 0044fbb0 f i EncryptDlg.obj
 0001:0004ebb0       ??_ECEncryptDlg@@UAEPAXI@Z 0044fbb0 f i EncryptDlg.obj
 0001:0004ec40       ?DoDataExchange@CEncryptDlg@@MAEXPAVCDataExchange@@@Z 0044fc40 f   EncryptDlg.obj
 0001:0004ecc0       ?GetMessageMap@CEncryptDlg@@MBEPBUAFX_MSGMAP@@XZ 0044fcc0 f   EncryptDlg.obj
 0001:0004ed10       ?GetRuntimeClass@CEncryptDlg@@UBEPAUCRuntimeClass@@XZ 0044fd10 f   EncryptDlg.obj
 0001:0004ed50       ?GetThisClass@CEncryptDlg@@SGPAUCRuntimeClass@@XZ 0044fd50 f   EncryptDlg.obj
 0001:0004ed90       ?GetThisMessageMap@CEncryptDlg@@KGPBUAFX_MSGMAP@@XZ 0044fd90 f   EncryptDlg.obj
 0001:0004edd0       ?OnInitDialog@CEncryptDlg@@UAEHXZ 0044fdd0 f   EncryptDlg.obj
 0001:0004ee30       ?_GetBaseClass@CEncryptDlg@@KGPAUCRuntimeClass@@XZ 0044fe30 f   EncryptDlg.obj
 0001:0004ee80       ?_AfxInitManaged@@YAHXZ    0044fe80 f i GlobeVar.obj
 0001:0004eeb0       ??$AtlAdd@H@ATL@@YAJPAHHH@Z 0044feb0 f i GlobeVar.obj
 0001:0004ef30       ??$AtlAdd@I@ATL@@YAJPAIII@Z 0044ff30 f i GlobeVar.obj
 0001:0004efa0       ??$AtlAdd@K@ATL@@YAJPAKKK@Z 0044ffa0 f i GlobeVar.obj
 0001:0004f010       ??$AtlAlignUp@H@ATL@@YGHHK@Z 00450010 f i GlobeVar.obj
 0001:0004f060       ??$AtlMultiply@I@ATL@@YAJPAIII@Z 00450060 f i GlobeVar.obj
 0001:0004f0e0       ??$AtlMultiply@K@ATL@@YAJPAKKK@Z 004500e0 f i GlobeVar.obj
 0001:0004f160       ??0?$CHeapPtr@DVCCRTAllocator@ATL@@@ATL@@QAE@XZ 00450160 f i GlobeVar.obj
 0001:0004f1c0       ??0?$CHeapPtr@_WVCCRTAllocator@ATL@@@ATL@@QAE@XZ 004501c0 f i GlobeVar.obj
 0001:0004f220       ??0?$CHeapPtrBase@DVCCRTAllocator@ATL@@@ATL@@IAE@XZ 00450220 f i GlobeVar.obj
 0001:0004f270       ??0?$CHeapPtrBase@_WVCCRTAllocator@ATL@@@ATL@@IAE@XZ 00450270 f i GlobeVar.obj
 0001:0004f2c0       ??0?$CSimpleArray@GV?$CSimpleArrayEqualHelper@G@ATL@@@ATL@@QAE@XZ 004502c0 f i GlobeVar.obj
 0001:0004f320       ??0?$CTraceCategoryEx@$00$0A@@ATL@@QAE@PBD@Z 00450320 f i GlobeVar.obj
 0001:0004f380       ??0?$CTraceCategoryEx@$01$0A@@ATL@@QAE@PBD@Z 00450380 f i GlobeVar.obj
 0001:0004f3e0       ??0?$CTraceCategoryEx@$03$0A@@ATL@@QAE@PBD@Z 004503e0 f i GlobeVar.obj
 0001:0004f440       ??0?$CTraceCategoryEx@$07$0A@@ATL@@QAE@PBD@Z 00450440 f i GlobeVar.obj
 0001:0004f4a0       ??0?$CTraceCategoryEx@$0BA@$0A@@ATL@@QAE@PBD@Z 004504a0 f i GlobeVar.obj
 0001:0004f500       ??0?$CTraceCategoryEx@$0BAA@$0A@@ATL@@QAE@PBD@Z 00450500 f i GlobeVar.obj
 0001:0004f560       ??0?$CTraceCategoryEx@$0BAAA@$0A@@ATL@@QAE@PBD@Z 00450560 f i GlobeVar.obj
 0001:0004f5c0       ??0?$CTraceCategoryEx@$0BAAAA@$0A@@ATL@@QAE@PBD@Z 004505c0 f i GlobeVar.obj
 0001:0004f620       ??0?$CTraceCategoryEx@$0BAAAAA@$0A@@ATL@@QAE@PBD@Z 00450620 f i GlobeVar.obj
 0001:0004f680       ??0?$CTraceCategoryEx@$0CA@$0A@@ATL@@QAE@PBD@Z 00450680 f i GlobeVar.obj
 0001:0004f6e0       ??0?$CTraceCategoryEx@$0CAA@$0A@@ATL@@QAE@PBD@Z 004506e0 f i GlobeVar.obj
 0001:0004f740       ??0?$CTraceCategoryEx@$0CAAAA@$0A@@ATL@@QAE@PBD@Z 00450740 f i GlobeVar.obj
 0001:0004f7a0       ??0?$CTraceCategoryEx@$0CAAAAA@$0A@@ATL@@QAE@PBD@Z 004507a0 f i GlobeVar.obj
 0001:0004f800       ??0?$CTraceCategoryEx@$0EA@$0A@@ATL@@QAE@PBD@Z 00450800 f i GlobeVar.obj
 0001:0004f860       ??0?$CTraceCategoryEx@$0EAA@$0A@@ATL@@QAE@PBD@Z 00450860 f i GlobeVar.obj
 0001:0004f8c0       ??0?$CTraceCategoryEx@$0EAAA@$0A@@ATL@@QAE@PBD@Z 004508c0 f i GlobeVar.obj
 0001:0004f920       ??0?$CTraceCategoryEx@$0EAAAA@$0A@@ATL@@QAE@PBD@Z 00450920 f i GlobeVar.obj
 0001:0004f980       ??0?$CTraceCategoryEx@$0EAAAAA@$0A@@ATL@@QAE@PBD@Z 00450980 f i GlobeVar.obj
 0001:0004f9e0       ??0?$CTraceCategoryEx@$0IA@$0A@@ATL@@QAE@PBD@Z 004509e0 f i GlobeVar.obj
 0001:0004fa40       ??0?$CTraceCategoryEx@$0IAA@$0A@@ATL@@QAE@PBD@Z 00450a40 f i GlobeVar.obj
 0001:0004faa0       ??0?$CTraceCategoryEx@$0IAAA@$0A@@ATL@@QAE@PBD@Z 00450aa0 f i GlobeVar.obj
 0001:0004fb00       ??0?$CTraceCategoryEx@$0IAAAA@$0A@@ATL@@QAE@PBD@Z 00450b00 f i GlobeVar.obj
 0001:0004fb60       ??0CAtlComModule@ATL@@QAE@XZ 00450b60 f i GlobeVar.obj
 0001:0004fc90       ??0CAtlStringMgr@ATL@@QAE@PAUIAtlMemMgr@1@@Z 00450c90 f i GlobeVar.obj
 0001:0004fd20       ??0CAtlWinModule@ATL@@QAE@XZ 00450d20 f i GlobeVar.obj
 0001:0004fdf0       ??0CComCriticalSection@ATL@@QAE@XZ 00450df0 f i GlobeVar.obj
 0001:0004fe50       ??0CDCCache@CImage@ATL@@QAE@XZ 00450e50 f i GlobeVar.obj
 0001:0004fec0       ??0CInitGDIPlus@CImage@ATL@@QAE@XZ 00450ec0 f i GlobeVar.obj
 0001:0004ff70       ??0CNilStringData@ATL@@QAE@XZ 00450f70 f i GlobeVar.obj
 0001:00050010       ??0CPreserveLastError@ATL@@QAE@XZ 00451010 f i GlobeVar.obj
 0001:00050080       ??0CTraceFileAndLineInfo@ATL@@QAE@PBDH@Z 00451080 f i GlobeVar.obj
 0001:000500d0       ??0CWin32Heap@ATL@@QAE@PAX@Z 004510d0 f i GlobeVar.obj
 0001:00050180       ??0_ATL_COM_MODULE70@ATL@@QAE@XZ 00451180 f i GlobeVar.obj
 0001:000501e0       ??0_ATL_WIN_MODULE70@ATL@@QAE@XZ 004511e0 f i GlobeVar.obj
 0001:00050290       ??1?$CHeapPtr@DVCCRTAllocator@ATL@@@ATL@@QAE@XZ 00451290 f i GlobeVar.obj
 0001:000502e0       ??1?$CHeapPtr@_WVCCRTAllocator@ATL@@@ATL@@QAE@XZ 004512e0 f i GlobeVar.obj
 0001:00050330       ??1?$CHeapPtrBase@DVCCRTAllocator@ATL@@@ATL@@QAE@XZ 00451330 f i GlobeVar.obj
 0001:00050380       ??1?$CHeapPtrBase@_WVCCRTAllocator@ATL@@@ATL@@QAE@XZ 00451380 f i GlobeVar.obj
 0001:000503d0       ??1?$CSimpleArray@GV?$CSimpleArrayEqualHelper@G@ATL@@@ATL@@QAE@XZ 004513d0 f i GlobeVar.obj
 0001:00050460       ??1CAtlComModule@ATL@@QAE@XZ 00451460 f i GlobeVar.obj
 0001:000504f0       ??1CAtlStringMgr@ATL@@UAE@XZ 004514f0 f i GlobeVar.obj
 0001:00050540       ??1CAtlWinModule@ATL@@QAE@XZ 00451540 f i GlobeVar.obj
 0001:000505d0       ??1CComCriticalSection@ATL@@QAE@XZ 004515d0 f i GlobeVar.obj
 0001:00050610       ??1CDCCache@CImage@ATL@@QAE@XZ 00451610 f i GlobeVar.obj
 0001:000506b0       ??1CInitGDIPlus@CImage@ATL@@QAE@XZ 004516b0 f i GlobeVar.obj
 0001:00050720       ??1CPreserveLastError@ATL@@QAE@XZ 00451720 f i GlobeVar.obj
 0001:00050780       ??1CWin32Heap@ATL@@UAE@XZ  00451780 f i GlobeVar.obj
 0001:00050850       ??1_ATL_COM_MODULE70@ATL@@QAE@XZ 00451850 f i GlobeVar.obj
 0001:000508b0       ??1_ATL_WIN_MODULE70@ATL@@QAE@XZ 004518b0 f i GlobeVar.obj
 0001:00050910       ??A?$CSimpleArray@GV?$CSimpleArrayEqualHelper@G@ATL@@@ATL@@QAEAAGH@Z 00451910 f i GlobeVar.obj
 0001:000509e0       ??B?$CHeapPtrBase@DVCCRTAllocator@ATL@@@ATL@@QBEPADXZ 004519e0 f i GlobeVar.obj
 0001:00050a20       ??B?$CHeapPtrBase@_WVCCRTAllocator@ATL@@@ATL@@QBEPA_WXZ 00451a20 f i GlobeVar.obj
 0001:00050a60       ??B?$CTraceCategoryEx@$01$0A@@ATL@@QAEIXZ 00451a60 f i GlobeVar.obj
 0001:00050aa0       ??B?$CTraceCategoryEx@$0CA@$0A@@ATL@@QAEIXZ 00451aa0 f i GlobeVar.obj
 0001:00050ae0       ??RCTraceFileAndLineInfo@ATL@@QBAXHIPBDZZ 00451ae0 f i GlobeVar.obj
 0001:00050c00       ??_ECAtlStringMgr@ATL@@UAEPAXI@Z 00451c00 f i GlobeVar.obj
 0001:00050c00       ??_GCAtlStringMgr@ATL@@UAEPAXI@Z 00451c00 f i GlobeVar.obj
 0001:00050c70       ??_ECWin32Heap@ATL@@UAEPAXI@Z 00451c70 f i GlobeVar.obj
 0001:00050c70       ??_GCWin32Heap@ATL@@UAEPAXI@Z 00451c70 f i GlobeVar.obj
 0001:00050ce0       ??_H@YGXPAXIIP6EPAX0@Z@Z   00451ce0 f i GlobeVar.obj
 0001:00050d90       ?AddRef@CStringData@ATL@@QAEXXZ 00451d90 f i GlobeVar.obj
 0001:00050e30       ?Allocate@?$CHeapPtr@DVCCRTAllocator@ATL@@@ATL@@QAE_NI@Z 00451e30 f i GlobeVar.obj
 0001:00050ef0       ?Allocate@?$CHeapPtr@_WVCCRTAllocator@ATL@@@ATL@@QAE_NI@Z 00451ef0 f i GlobeVar.obj
 0001:00050fb0       ?Allocate@CAtlStringMgr@ATL@@UAEPAUCStringData@2@HH@Z 00451fb0 f i GlobeVar.obj
 0001:00051240       ?Allocate@CCRTAllocator@ATL@@SAPAXI@Z 00452240 f i GlobeVar.obj
 0001:000512a0       ?Allocate@CWin32Heap@ATL@@UAEPAXI@Z 004522a0 f i GlobeVar.obj
 0001:00051310       ?AllocateBytes@?$CHeapPtrBase@DVCCRTAllocator@ATL@@@ATL@@QAE_NI@Z 00452310 f i GlobeVar.obj
 0001:000513d0       ?AllocateBytes@?$CHeapPtrBase@_WVCCRTAllocator@ATL@@@ATL@@QAE_NI@Z 004523d0 f i GlobeVar.obj
 0001:00051490       ?AtlWinModuleInit@ATL@@YGJPAU_ATL_WIN_MODULE70@1@@Z 00452490 f i GlobeVar.obj
 0001:000515b0       ?AtlWinModuleTerm@ATL@@YGJPAU_ATL_WIN_MODULE70@1@PAUHINSTANCE__@@@Z 004525b0 f i GlobeVar.obj
 0001:000516b0       ?CImageStaticInitialize@CImage@ATL@@CA_NXZ 004526b0 f i GlobeVar.obj
 0001:00051700       ?Clone@CAtlStringMgr@ATL@@UAEPAUIAtlStringMgr@2@XZ 00452700 f i GlobeVar.obj
 0001:00051740       ?Create16EditWindow@@YAXPAEIII@Z 00452740 f   GlobeVar.obj
 0001:00051850       ?Free@?$CHeapPtrBase@DVCCRTAllocator@ATL@@@ATL@@QAEXXZ 00452850 f i GlobeVar.obj
 0001:000518c0       ?Free@?$CHeapPtrBase@_WVCCRTAllocator@ATL@@@ATL@@QAEXXZ 004528c0 f i GlobeVar.obj
 0001:00051930       ?Free@CAtlStringMgr@ATL@@UAEXPAUCStringData@2@@Z 00452930 f i GlobeVar.obj
 0001:00051a30       ?Free@CCRTAllocator@ATL@@SAXPAX@Z 00452a30 f i GlobeVar.obj
 0001:00051a90       ?Free@CWin32Heap@ATL@@UAEXPAX@Z 00452a90 f i GlobeVar.obj
 0001:00051b50       ?GetCDCCacheInstance@CImage@ATL@@CAPAVCDCCache@12@XZ 00452b50 f i GlobeVar.obj
 0001:00051c00       ?GetCategoryName@CTrace@ATL@@CAPA_WI@Z 00452c00 f i GlobeVar.obj
 0001:00051c80       ?GetInitGDIPlusInstance@CImage@ATL@@CAPAVCInitGDIPlus@12@XZ 00452c80 f i GlobeVar.obj
 0001:00051d30       ?GetInstance@CAtlStringMgr@ATL@@SAPAUIAtlStringMgr@2@XZ 00452d30 f i GlobeVar.obj
 0001:00051e70       ?GetModuleInstance@CAtlBaseModule@ATL@@QAEPAUHINSTANCE__@@XZ 00452e70 f i GlobeVar.obj
 0001:00051eb0       ?GetNilString@CAtlStringMgr@ATL@@UAEPAUCStringData@2@XZ 00452eb0 f i GlobeVar.obj
 0001:00051f10       ?GetSize@?$CSimpleArray@GV?$CSimpleArrayEqualHelper@G@ATL@@@ATL@@QBEHXZ 00452f10 f i GlobeVar.obj
 0001:00051f50       ?GetSize@CWin32Heap@ATL@@UAEIPAX@Z 00452f50 f i GlobeVar.obj
 0001:00051fc0       ?Init@CComCriticalSection@ATL@@QAEJXZ 00452fc0 f i GlobeVar.obj
 0001:00052050       ?Reallocate@CAtlStringMgr@ATL@@UAEPAUCStringData@2@PAU32@HH@Z 00453050 f i GlobeVar.obj
 0001:00052300       ?Reallocate@CWin32Heap@ATL@@UAEPAXPAXI@Z 00453300 f i GlobeVar.obj
 0001:000523d0       ?ReleaseGDIPlus@CInitGDIPlus@CImage@ATL@@QAEXXZ 004533d0 f i GlobeVar.obj
 0001:00052470       ?RemoveAll@?$CSimpleArray@GV?$CSimpleArrayEqualHelper@G@ATL@@@ATL@@QAEXXZ 00453470 f i GlobeVar.obj
 0001:00052530       ?SetManager@CNilStringData@ATL@@QAEXPAUIAtlStringMgr@2@@Z 00453530 f i GlobeVar.obj
 0001:000525d0       ?StaticInitialize@CAtlStringMgr@ATL@@CA_NXZ 004535d0 f i GlobeVar.obj
 0001:00052620       ?Term@CAtlComModule@ATL@@QAEXXZ 00453620 f i GlobeVar.obj
 0001:00052720       ?Term@CAtlWinModule@ATL@@QAEXXZ 00453720 f i GlobeVar.obj
 0001:00052780       ?Term@CComCriticalSection@ATL@@QAEJXZ 00453780 f i GlobeVar.obj
 0001:000527e0       ?TraceV@CTrace@ATL@@CAXPBDHIIPB_W@Z 004537e0 f i GlobeVar.obj
 0001:00052b40       ?TraceV@CTrace@ATL@@SAXPBDHII0PAD@Z 00453b40 f i GlobeVar.obj
 0001:00052df0       ?_AtlInitializeCriticalSectionEx@ATL@@YAHPAU_RTL_CRITICAL_SECTION@@KK@Z 00453df0 f i GlobeVar.obj
 0001:00052e50       ?_AtlRaiseException@ATL@@YAXKK@Z 00453e50 f i GlobeVar.obj
 0001:00052eb0       _HRESULT_FROM_WIN32        00453eb0 f i GlobeVar.obj
 0001:00052f20       __vscprintf                00453f20 f i GlobeVar.obj
 0001:00052f80       __vscprintf_l              00453f80 f i GlobeVar.obj
 0001:00053030       __vsnprintf_s              00454030 f i GlobeVar.obj
 0001:000530a0       __vsnprintf_s_l            004540a0 f i GlobeVar.obj
 0001:00053150       ??0MFCEdit@@QAE@XZ         00454150 f   MFCEdit.obj
 0001:000531b0       ??1MFCEdit@@UAE@XZ         004541b0 f   MFCEdit.obj
 0001:00053210       ??_GMFCEdit@@UAEPAXI@Z     00454210 f i MFCEdit.obj
 0001:00053210       ??_EMFCEdit@@UAEPAXI@Z     00454210 f i MFCEdit.obj
 0001:000532a0       ?GetMessageMap@MFCEdit@@MBEPBUAFX_MSGMAP@@XZ 004542a0 f   MFCEdit.obj
 0001:000532f0       ?GetRuntimeClass@MFCEdit@@UBEPAUCRuntimeClass@@XZ 004542f0 f   MFCEdit.obj
 0001:00053330       ?GetThisClass@MFCEdit@@SGPAUCRuntimeClass@@XZ 00454330 f   MFCEdit.obj
 0001:00053370       ?GetThisMessageMap@MFCEdit@@KGPBUAFX_MSGMAP@@XZ 00454370 f   MFCEdit.obj
 0001:000533b0       ?PreSubclassWindow@MFCEdit@@UAEXXZ 004543b0 f   MFCEdit.obj
 0001:00053450       ?_GetBaseClass@MFCEdit@@KGPAUCRuntimeClass@@XZ 00454450 f   MFCEdit.obj
 0001:000534a0       ?OnMouseMove@MFCStatic@@QAEXIVCPoint@@@Z 004544a0 f   MFCStatic.obj
 0001:00053510       ?OnMouseLeave@MFCStatic@@QAEXXZ 00454510 f   MFCStatic.obj
 0001:00053590       ??0MFCStatic@@QAE@XZ       00454590 f   MFCStatic.obj
 0001:000535f0       ??1MFCStatic@@UAE@XZ       004545f0 f   MFCStatic.obj
 0001:00053650       ??_EMFCStatic@@UAEPAXI@Z   00454650 f i MFCStatic.obj
 0001:00053650       ??_GMFCStatic@@UAEPAXI@Z   00454650 f i MFCStatic.obj
 0001:000536e0       ?GetMessageMap@MFCStatic@@MBEPBUAFX_MSGMAP@@XZ 004546e0 f   MFCStatic.obj
 0001:00053730       ?GetRuntimeClass@MFCStatic@@UBEPAUCRuntimeClass@@XZ 00454730 f   MFCStatic.obj
 0001:00053770       ?GetThisClass@MFCStatic@@SGPAUCRuntimeClass@@XZ 00454770 f   MFCStatic.obj
 0001:000537b0       ?GetThisMessageMap@MFCStatic@@KGPBUAFX_MSGMAP@@XZ 004547b0 f   MFCStatic.obj
 0001:000537f0       ?PreSubclassWindow@MFCStatic@@UAEXXZ 004547f0 f   MFCStatic.obj
 0001:00053890       ?_GetBaseClass@MFCStatic@@KGPAUCRuntimeClass@@XZ 00454890 f   MFCStatic.obj
 0001:000538e0       ??0CRect@@QAE@XZ           004548e0 f i MFCStatus.obj
 0001:00053950       ??0MFCStatus@@QAE@XZ       00454950 f   MFCStatus.obj
 0001:00053a10       ??1MFCStatus@@UAE@XZ       00454a10 f   MFCStatus.obj
 0001:00053a80       ??_EMFCStatus@@UAEPAXI@Z   00454a80 f i MFCStatus.obj
 0001:00053a80       ??_GMFCStatus@@UAEPAXI@Z   00454a80 f i MFCStatus.obj
 0001:00053b10       ?GetMessageMap@MFCStatus@@MBEPBUAFX_MSGMAP@@XZ 00454b10 f   MFCStatus.obj
 0001:00053b60       ?GetRuntimeClass@MFCStatus@@UBEPAUCRuntimeClass@@XZ 00454b60 f   MFCStatus.obj
 0001:00053ba0       ?GetThisClass@MFCStatus@@SGPAUCRuntimeClass@@XZ 00454ba0 f   MFCStatus.obj
 0001:00053be0       ?GetThisMessageMap@MFCStatus@@KGPBUAFX_MSGMAP@@XZ 00454be0 f   MFCStatus.obj
 0001:00053c20       ?SetUI@MFCStatus@@QAEXXZ   00454c20 f   MFCStatus.obj
 0001:00053e00       ?_GetBaseClass@MFCStatus@@KGPAUCRuntimeClass@@XZ 00454e00 f   MFCStatus.obj
 0001:00053e50       ?OnLvnColumnclick@MyListCtrl@@QAEXPAUtagNMHDR@@PAJ@Z 00454e50 f   MyListCtrl.obj
 0001:00053fb0       ?OnNMClick@MyListCtrl@@QAEXPAUtagNMHDR@@PAJ@Z 00454fb0 f   MyListCtrl.obj
 0001:00054000       ?OnLvnItemchanged@MyListCtrl@@QAEXPAUtagNMHDR@@PAJ@Z 00455000 f   MyListCtrl.obj
 0001:000553d0       ??0MyListCtrl@@QAE@XZ      004563d0 f   MyListCtrl.obj
 0001:00055430       ??1MyListCtrl@@UAE@XZ      00456430 f   MyListCtrl.obj
 0001:00055490       ??A?$vector@U_ElementItem@@V?$allocator@U_ElementItem@@@std@@@std@@QAEAAU_ElementItem@@I@Z 00456490 f i MyListCtrl.obj
 0001:000555b0       ??A?$vector@U_EntryDataItem@@V?$allocator@U_EntryDataItem@@@std@@@std@@QAEAAU_EntryDataItem@@I@Z 004565b0 f i MyListCtrl.obj
 0001:000556d0       ??A?$vector@U_ThunkItem@@V?$allocator@U_ThunkItem@@@std@@@std@@QAEAAU_ThunkItem@@I@Z 004566d0 f i MyListCtrl.obj
 0001:000557f0       ??_GMyListCtrl@@UAEPAXI@Z  004567f0 f i MyListCtrl.obj
 0001:000557f0       ??_EMyListCtrl@@UAEPAXI@Z  004567f0 f i MyListCtrl.obj
 0001:00055880       ?Clear@MyListCtrl@@QAEXXZ  00456880 f   MyListCtrl.obj
 0001:00055930       ?GetHeaderCtrl@CMFCListCtrl@@UAEAAVCMFCHeaderCtrl@@XZ 00456930 f i MyListCtrl.obj
 0001:00055970       ?GetMessageMap@MyListCtrl@@MBEPBUAFX_MSGMAP@@XZ 00456970 f   MyListCtrl.obj
 0001:000559c0       ?GetRuntimeClass@MyListCtrl@@UBEPAUCRuntimeClass@@XZ 004569c0 f   MyListCtrl.obj
 0001:00055a00       ?GetThisClass@MyListCtrl@@SGPAUCRuntimeClass@@XZ 00456a00 f   MyListCtrl.obj
 0001:00055a40       ?GetThisMessageMap@MyListCtrl@@KGPBUAFX_MSGMAP@@XZ 00456a40 f   MyListCtrl.obj
 0001:00055a80       ?ListCompare@MyListCtrl@@SGHJJJ@Z 00456a80 f   MyListCtrl.obj
 0001:00055f90       ?OnGetCellBkColor@CMFCListCtrl@@UAEKHH@Z 00456f90 f i MyListCtrl.obj
 0001:00055ff0       ?OnGetCellFont@CMFCListCtrl@@UAEPAUHFONT__@@HHK@Z 00456ff0 f i MyListCtrl.obj
 0001:00056030       ?OnGetCellTextColor@CMFCListCtrl@@UAEKHH@Z 00457030 f i MyListCtrl.obj
 0001:00056090       ?PreSubclassWindow@MyListCtrl@@MAEXXZ 00457090 f   MyListCtrl.obj
 0001:00056150       ?SetHeaders@MyListCtrl@@QAEXQAY0IA@DH@Z 00457150 f   MyListCtrl.obj
 0001:000562a0       ?SetStyle@MyListCtrl@@QAEXK@Z 004572a0 f   MyListCtrl.obj
 0001:00056340       ?Width@CRect@@QBEHXZ       00457340 f i MyListCtrl.obj
 0001:00056390       ?_GetBaseClass@MyListCtrl@@KGPAUCRuntimeClass@@XZ 00457390 f   MyListCtrl.obj
 0001:000563e0       ?_Get_data@?$_Vector_alloc@U?$_Vec_base_types@U_ElementItem@@V?$allocator@U_ElementItem@@@std@@@std@@@std@@QAEAAV?$_Vector_val@U?$_Simple_types@U_ElementItem@@@std@@@2@XZ 004573e0 f i MyListCtrl.obj
 0001:00056430       ?_Get_data@?$_Vector_alloc@U?$_Vec_base_types@U_ElementItem@@V?$allocator@U_ElementItem@@@std@@@std@@@std@@QBEABV?$_Vector_val@U?$_Simple_types@U_ElementItem@@@std@@@2@XZ 00457430 f i MyListCtrl.obj
 0001:00056480       ?_Get_data@?$_Vector_alloc@U?$_Vec_base_types@U_EntryDataItem@@V?$allocator@U_EntryDataItem@@@std@@@std@@@std@@QAEAAV?$_Vector_val@U?$_Simple_types@U_EntryDataItem@@@std@@@2@XZ 00457480 f i MyListCtrl.obj
 0001:000564d0       ?_Get_data@?$_Vector_alloc@U?$_Vec_base_types@U_EntryDataItem@@V?$allocator@U_EntryDataItem@@@std@@@std@@@std@@QBEABV?$_Vector_val@U?$_Simple_types@U_EntryDataItem@@@std@@@2@XZ 004574d0 f i MyListCtrl.obj
 0001:00056520       ?_Get_data@?$_Vector_alloc@U?$_Vec_base_types@U_ThunkItem@@V?$allocator@U_ThunkItem@@@std@@@std@@@std@@QAEAAV?$_Vector_val@U?$_Simple_types@U_ThunkItem@@@std@@@2@XZ 00457520 f i MyListCtrl.obj
 0001:00056570       ?_Get_data@?$_Vector_alloc@U?$_Vec_base_types@U_ThunkItem@@V?$allocator@U_ThunkItem@@@std@@@std@@@std@@QBEABV?$_Vector_val@U?$_Simple_types@U_ThunkItem@@@std@@@2@XZ 00457570 f i MyListCtrl.obj
 0001:000565c0       ?_Get_second@?$_Compressed_pair@U?$_Wrap_alloc@V?$allocator@U_ElementItem@@@std@@@std@@V?$_Vector_val@U?$_Simple_types@U_ElementItem@@@std@@@2@$00@std@@QAEAAV?$_Vector_val@U?$_Simple_types@U_ElementItem@@@std@@@2@XZ 004575c0 f i MyListCtrl.obj
 0001:00056600       ?_Get_second@?$_Compressed_pair@U?$_Wrap_alloc@V?$allocator@U_ElementItem@@@std@@@std@@V?$_Vector_val@U?$_Simple_types@U_ElementItem@@@std@@@2@$00@std@@QBEABV?$_Vector_val@U?$_Simple_types@U_ElementItem@@@std@@@2@XZ 00457600 f i MyListCtrl.obj
 0001:00056640       ?_Get_second@?$_Compressed_pair@U?$_Wrap_alloc@V?$allocator@U_EntryDataItem@@@std@@@std@@V?$_Vector_val@U?$_Simple_types@U_EntryDataItem@@@std@@@2@$00@std@@QAEAAV?$_Vector_val@U?$_Simple_types@U_EntryDataItem@@@std@@@2@XZ 00457640 f i MyListCtrl.obj
 0001:00056680       ?_Get_second@?$_Compressed_pair@U?$_Wrap_alloc@V?$allocator@U_EntryDataItem@@@std@@@std@@V?$_Vector_val@U?$_Simple_types@U_EntryDataItem@@@std@@@2@$00@std@@QBEABV?$_Vector_val@U?$_Simple_types@U_EntryDataItem@@@std@@@2@XZ 00457680 f i MyListCtrl.obj
 0001:000566c0       ?_Get_second@?$_Compressed_pair@U?$_Wrap_alloc@V?$allocator@U_ThunkItem@@@std@@@std@@V?$_Vector_val@U?$_Simple_types@U_ThunkItem@@@std@@@2@$00@std@@QAEAAV?$_Vector_val@U?$_Simple_types@U_ThunkItem@@@std@@@2@XZ 004576c0 f i MyListCtrl.obj
 0001:00056700       ?_Get_second@?$_Compressed_pair@U?$_Wrap_alloc@V?$allocator@U_ThunkItem@@@std@@@std@@V?$_Vector_val@U?$_Simple_types@U_ThunkItem@@@std@@@2@$00@std@@QBEABV?$_Vector_val@U?$_Simple_types@U_ThunkItem@@@std@@@2@XZ 00457700 f i MyListCtrl.obj
 0001:00056740       ?_Myfirst@?$_Vector_alloc@U?$_Vec_base_types@U_ElementItem@@V?$allocator@U_ElementItem@@@std@@@std@@@std@@QAEAAPAU_ElementItem@@XZ 00457740 f i MyListCtrl.obj
 0001:000567a0       ?_Myfirst@?$_Vector_alloc@U?$_Vec_base_types@U_ElementItem@@V?$allocator@U_ElementItem@@@std@@@std@@@std@@QBEABQAU_ElementItem@@XZ 004577a0 f i MyListCtrl.obj
 0001:00056800       ?_Myfirst@?$_Vector_alloc@U?$_Vec_base_types@U_EntryDataItem@@V?$allocator@U_EntryDataItem@@@std@@@std@@@std@@QAEAAPAU_EntryDataItem@@XZ 00457800 f i MyListCtrl.obj
 0001:00056860       ?_Myfirst@?$_Vector_alloc@U?$_Vec_base_types@U_EntryDataItem@@V?$allocator@U_EntryDataItem@@@std@@@std@@@std@@QBEABQAU_EntryDataItem@@XZ 00457860 f i MyListCtrl.obj
 0001:000568c0       ?_Myfirst@?$_Vector_alloc@U?$_Vec_base_types@U_ThunkItem@@V?$allocator@U_ThunkItem@@@std@@@std@@@std@@QAEAAPAU_ThunkItem@@XZ 004578c0 f i MyListCtrl.obj
 0001:00056920       ?_Myfirst@?$_Vector_alloc@U?$_Vec_base_types@U_ThunkItem@@V?$allocator@U_ThunkItem@@@std@@@std@@@std@@QBEABQAU_ThunkItem@@XZ 00457920 f i MyListCtrl.obj
 0001:00056980       ?_Mylast@?$_Vector_alloc@U?$_Vec_base_types@U_ElementItem@@V?$allocator@U_ElementItem@@@std@@@std@@@std@@QBEABQAU_ElementItem@@XZ 00457980 f i MyListCtrl.obj
 0001:000569e0       ?_Mylast@?$_Vector_alloc@U?$_Vec_base_types@U_EntryDataItem@@V?$allocator@U_EntryDataItem@@@std@@@std@@@std@@QBEABQAU_EntryDataItem@@XZ 004579e0 f i MyListCtrl.obj
 0001:00056a40       ?_Mylast@?$_Vector_alloc@U?$_Vec_base_types@U_ThunkItem@@V?$allocator@U_ThunkItem@@@std@@@std@@@std@@QBEABQAU_ThunkItem@@XZ 00457a40 f i MyListCtrl.obj
 0001:00056aa0       ?size@?$vector@U_ElementItem@@V?$allocator@U_ElementItem@@@std@@@std@@QBEIXZ 00457aa0 f i MyListCtrl.obj
 0001:00056b10       ?size@?$vector@U_EntryDataItem@@V?$allocator@U_EntryDataItem@@@std@@@std@@QBEIXZ 00457b10 f i MyListCtrl.obj
 0001:00056b80       ?size@?$vector@U_ThunkItem@@V?$allocator@U_ThunkItem@@@std@@@std@@QBEIXZ 00457b80 f i MyListCtrl.obj
 0001:00056bf0       ??0CPETOOLSApp@@QAE@XZ     00457bf0 f   PETOOLS.obj
 0001:00056c60       ??1CPETOOLSApp@@UAE@XZ     00457c60 f i PETOOLS.obj
 0001:00056cb0       ??_ECPETOOLSApp@@UAEPAXI@Z 00457cb0 f i PETOOLS.obj
 0001:00056cb0       ??_GCPETOOLSApp@@UAEPAXI@Z 00457cb0 f i PETOOLS.obj
 0001:00056d40       ?GetApplicationRecoveryParameter@CWinApp@@UAEPAXXZ 00457d40 f i PETOOLS.obj
 0001:00056d80       ?GetApplicationRecoveryPingInterval@CWinApp@@UAEKXZ 00457d80 f i PETOOLS.obj
 0001:00056dc0       ?GetApplicationRestartFlags@CWinApp@@UAEKXZ 00457dc0 f i PETOOLS.obj
 0001:00056e00       ?GetMessageMap@CPETOOLSApp@@MBEPBUAFX_MSGMAP@@XZ 00457e00 f   PETOOLS.obj
 0001:00056e50       ?GetThisMessageMap@CPETOOLSApp@@KGPBUAFX_MSGMAP@@XZ 00457e50 f   PETOOLS.obj
 0001:00056e90       ?InitInstance@CPETOOLSApp@@UAEHXZ 00457e90 f   PETOOLS.obj
 0001:00057130       ?ReopenPreviousFilesAtRestart@CWinApp@@UBEHXZ 00458130 f i PETOOLS.obj
 0001:00057180       ?RestoreAutosavedFilesAtRestart@CWinApp@@UBEHXZ 00458180 f i PETOOLS.obj
 0001:000571d0       ?SupportsApplicationRecovery@CWinApp@@UBEHXZ 004581d0 f i PETOOLS.obj
 0001:00057220       ?SupportsAutosaveAtInterval@CWinApp@@UBEHXZ 00458220 f i PETOOLS.obj
 0001:00057270       ?SupportsAutosaveAtRestart@CWinApp@@UBEHXZ 00458270 f i PETOOLS.obj
 0001:000572c0       ?SupportsRestartManager@CWinApp@@UBEHXZ 004582c0 f i PETOOLS.obj
 0001:00057310       ?OnPaint@CPETOOLSDlg@@IAEXXZ 00458310 f   PETOOLSDlg.obj
 0001:00057510       ?OnQueryDragIcon@CPETOOLSDlg@@IAEPAUHICON__@@XZ 00458510 f   PETOOLSDlg.obj
 0001:00057550       ?OnBnClickedMfcbutton1@CPETOOLSDlg@@QAEXXZ 00458550 f   PETOOLSDlg.obj
 0001:00057a80       ?OnBnClickedMfcbutton3@CPETOOLSDlg@@QAEXXZ 00458a80 f   PETOOLSDlg.obj
 0001:00057ce0       ?OnBnClickedMfcbutton2@CPETOOLSDlg@@QAEXXZ 00458ce0 f   PETOOLSDlg.obj
 0001:00057e70       ?OnOpen@CPETOOLSDlg@@QAEXXZ 00458e70 f   PETOOLSDlg.obj
 0001:00058040       ?OnReset@CPETOOLSDlg@@QAEXXZ 00459040 f   PETOOLSDlg.obj
 0001:000581e0       ?OnClsRelocData@CPETOOLSDlg@@QAEXXZ 004591e0 f   PETOOLSDlg.obj
 0001:000583f0       ?OnTest@CPETOOLSDlg@@QAEXXZ 004593f0 f   PETOOLSDlg.obj
 0001:00058550       ?OnUpdateUi@CPETOOLSDlg@@IAEJIJ@Z 00459550 f   PETOOLSDlg.obj
 0001:000586e0       ?OnSaveFile@CPETOOLSDlg@@QAEXXZ 004596e0 f   PETOOLSDlg.obj
 0001:00058a80       ?OnAddPatch@CPETOOLSDlg@@QAEXXZ 00459a80 f   PETOOLSDlg.obj
 0001:00058bd0       ?OnAddSection@CPETOOLSDlg@@QAEXXZ 00459bd0 f   PETOOLSDlg.obj
 0001:00058d10       ?OnEncrypt@CPETOOLSDlg@@QAEXXZ 00459d10 f   PETOOLSDlg.obj
 0001:00058f20       ?OnHexEditView@CPETOOLSDlg@@QAEXXZ 00459f20 f   PETOOLSDlg.obj
 0001:00058f80       ?DoDataExchange@CPETOOLSDlg@@MAEXPAVCDataExchange@@@Z 00459f80 f   PETOOLSDlg.obj
 0001:00059a10       ??0CRect@@QAE@HHHH@Z       0045aa10 f i PETOOLSDlg.obj
 0001:0005a310       ??_GCPETOOLSDlg@@UAEPAXI@Z 0045b310 f i PETOOLSDlg.obj
 0001:0005a310       ??_ECPETOOLSDlg@@UAEPAXI@Z 0045b310 f i PETOOLSDlg.obj
 0001:0005a380       ?SetDlgUI@CPETOOLSDlg@@QAEHXZ 0045b380 f   PETOOLSDlg.obj
 0001:0005b0d0       ?GetMessageMap@CPETOOLSDlg@@MBEPBUAFX_MSGMAP@@XZ 0045c0d0 f   PETOOLSDlg.obj
 0001:0005b110       ?GetThisMessageMap@CPETOOLSDlg@@KGPBUAFX_MSGMAP@@XZ 0045c110 f   PETOOLSDlg.obj
 0001:0005b160       ?Height@CRect@@QBEHXZ      0045c160 f i PETOOLSDlg.obj
 0001:0005b430       ?Reset@CPETOOLSDlg@@QAEXXZ 0045c430 f   PETOOLSDlg.obj
 0001:0005b790       ?SetControlUI@CPETOOLSDlg@@QAEXQADPAVCWnd@@PADH@Z 0045c790 f   PETOOLSDlg.obj
 0001:0005b920       ?SetControlUI@CPETOOLSDlg@@QAEXQADPAVMFCEdit@@PADHH@Z 0045c920 f   PETOOLSDlg.obj
 0001:0005bbc0       ?SetControlUI@CPETOOLSDlg@@QAEXQADPAVMFCStatic@@PADH@Z 0045cbc0 f   PETOOLSDlg.obj
 0001:0005c9e0       ?SetCtrlContent@CPETOOLSDlg@@QAEHXZ 0045d9e0 f   PETOOLSDlg.obj
 0001:0005dbd0       ?SetDumpFunc@CPETOOLSDlg@@QAEHXZ 0045ebd0 f   PETOOLSDlg.obj
 0001:0005ddc0       ?OnBnClickedButton1@CPosCalcDlg@@QAEXXZ 0045edc0 f   PosCalcDlg.obj
 0001:0005de70       ?OnBnClickedButton2@CPosCalcDlg@@QAEXXZ 0045ee70 f   PosCalcDlg.obj
 0001:0005df20       ?OnBnClickedButton3@CPosCalcDlg@@QAEXXZ 0045ef20 f   PosCalcDlg.obj
 0001:0005dfd0       ?OnBnClickedButton4@CPosCalcDlg@@QAEXXZ 0045efd0 f   PosCalcDlg.obj
 0001:0005e620       ?OnBnClickedButton5@CPosCalcDlg@@QAEXXZ 0045f620 f   PosCalcDlg.obj
 0001:0005e720       ??0CPosCalcDlg@@QAE@PAVCWnd@@@Z 0045f720 f   PosCalcDlg.obj
 0001:0005e850       ??1CPosCalcDlg@@UAE@XZ     0045f850 f   PosCalcDlg.obj
 0001:0005e910       ??HATL@@YA?AV?$CStringT@DV?$StrTraitMFC_DLL@DV?$ChTraitsCRT@D@ATL@@@@@0@PBDABV10@@Z 0045f910 f i PosCalcDlg.obj
 0001:0005eac0       ??_GCPosCalcDlg@@UAEPAXI@Z 0045fac0 f i PosCalcDlg.obj
 0001:0005eac0       ??_ECPosCalcDlg@@UAEPAXI@Z 0045fac0 f i PosCalcDlg.obj
 0001:0005eb50       ?DoDataExchange@CPosCalcDlg@@MAEXPAVCDataExchange@@@Z 0045fb50 f   PosCalcDlg.obj
 0001:0005ec00       ?GetMessageMap@CPosCalcDlg@@MBEPBUAFX_MSGMAP@@XZ 0045fc00 f   PosCalcDlg.obj
 0001:0005ec50       ?GetRuntimeClass@CPosCalcDlg@@UBEPAUCRuntimeClass@@XZ 0045fc50 f   PosCalcDlg.obj
 0001:0005ec90       ?GetThisClass@CPosCalcDlg@@SGPAUCRuntimeClass@@XZ 0045fc90 f   PosCalcDlg.obj
 0001:0005ecd0       ?GetThisMessageMap@CPosCalcDlg@@KGPBUAFX_MSGMAP@@XZ 0045fcd0 f   PosCalcDlg.obj
 0001:0005ed10       ?OnInitDialog@CPosCalcDlg@@UAEHXZ 0045fd10 f   PosCalcDlg.obj
 0001:0005edc0       ?_GetBaseClass@CPosCalcDlg@@KGPAUCRuntimeClass@@XZ 0045fdc0 f   PosCalcDlg.obj
 0001:0005ee10       ?OnSetValue@CProBarThread@@QAEXIJ@Z 0045fe10 f   ProBarThread.obj
 0001:0005ee50       ??0CProBarThread@@QAE@XZ   0045fe50 f   ProBarThread.obj
 0001:0005eeb0       ??1CProBarThread@@UAE@XZ   0045feb0 f   ProBarThread.obj
 0001:0005ef10       ??_GCProBarThread@@UAEPAXI@Z 0045ff10 f i ProBarThread.obj
 0001:0005ef10       ??_ECProBarThread@@UAEPAXI@Z 0045ff10 f i ProBarThread.obj
 0001:0005efa0       ?Create@CProBarThread@@QAEXXZ 0045ffa0 f   ProBarThread.obj
 0001:0005f1d0       ?CreateObject@CProBarThread@@SGPAVCObject@@XZ 004601d0 f   ProBarThread.obj
 0001:0005f2b0       ?ExitInstance@CProBarThread@@UAEHXZ 004602b0 f   ProBarThread.obj
 0001:0005f320       ?GetMessageMap@CProBarThread@@MBEPBUAFX_MSGMAP@@XZ 00460320 f   ProBarThread.obj
 0001:0005f370       ?GetRuntimeClass@CProBarThread@@UBEPAUCRuntimeClass@@XZ 00460370 f   ProBarThread.obj
 0001:0005f3b0       ?GetThisClass@CProBarThread@@SGPAUCRuntimeClass@@XZ 004603b0 f   ProBarThread.obj
 0001:0005f3f0       ?GetThisMessageMap@CProBarThread@@KGPBUAFX_MSGMAP@@XZ 004603f0 f   ProBarThread.obj
 0001:0005f430       ?InitInstance@CProBarThread@@UAEHXZ 00460430 f   ProBarThread.obj
 0001:0005f470       ?SetProValue@CProBarThread@@QAEXH@Z 00460470 f   ProBarThread.obj
 0001:0005f520       ?ThreadProc1@@YAXPAX@Z     00460520 f   ProBarThread.obj
 0001:0005f720       ?ThreadProc@@YAXPAX@Z      00460720 f   ProBarThread.obj
 0001:0005f750       ?_GetBaseClass@CProBarThread@@KGPAUCRuntimeClass@@XZ 00460750 f   ProBarThread.obj
 0001:0005f7a0       ??0CProgressDialog@@QAE@PAVCWnd@@@Z 004607a0 f   ProgressDialog.obj
 0001:0005f860       ??1CProgressDialog@@UAE@XZ 00460860 f   ProgressDialog.obj
 0001:0005f8d0       ??_ECProgressDialog@@UAEPAXI@Z 004608d0 f i ProgressDialog.obj
 0001:0005f8d0       ??_GCProgressDialog@@UAEPAXI@Z 004608d0 f i ProgressDialog.obj
 0001:0005f960       ?DoDataExchange@CProgressDialog@@MAEXPAVCDataExchange@@@Z 00460960 f   ProgressDialog.obj
 0001:0005f9e0       ?GetMessageMap@CProgressDialog@@MBEPBUAFX_MSGMAP@@XZ 004609e0 f   ProgressDialog.obj
 0001:0005fa30       ?GetRuntimeClass@CProgressDialog@@UBEPAUCRuntimeClass@@XZ 00460a30 f   ProgressDialog.obj
 0001:0005fa70       ?GetThisClass@CProgressDialog@@SGPAUCRuntimeClass@@XZ 00460a70 f   ProgressDialog.obj
 0001:0005fab0       ?GetThisMessageMap@CProgressDialog@@KGPBUAFX_MSGMAP@@XZ 00460ab0 f   ProgressDialog.obj
 0001:0005faf0       ?_GetBaseClass@CProgressDialog@@KGPAUCRuntimeClass@@XZ 00460af0 f   ProgressDialog.obj
 0001:0005fb40       ??0SectionsDlg@@QAE@PAVCWnd@@@Z 00460b40 f   SectionsDlg.obj
 0001:0005fc10       ??1SectionsDlg@@UAE@XZ     00460c10 f   SectionsDlg.obj
 0001:0005fc80       ??A?$vector@U_IMAGE_SECTION_HEADER@@V?$allocator@U_IMAGE_SECTION_HEADER@@@std@@@std@@QAEAAU_IMAGE_SECTION_HEADER@@I@Z 00460c80 f i SectionsDlg.obj
 0001:0005fda0       ??_ESectionsDlg@@UAEPAXI@Z 00460da0 f i SectionsDlg.obj
 0001:0005fda0       ??_GSectionsDlg@@UAEPAXI@Z 00460da0 f i SectionsDlg.obj
 0001:0005fe30       ?DoDataExchange@SectionsDlg@@MAEXPAVCDataExchange@@@Z 00460e30 f   SectionsDlg.obj
 0001:0005feb0       ?GetMessageMap@SectionsDlg@@MBEPBUAFX_MSGMAP@@XZ 00460eb0 f   SectionsDlg.obj
 0001:0005ff00       ?GetRuntimeClass@SectionsDlg@@UBEPAUCRuntimeClass@@XZ 00460f00 f   SectionsDlg.obj
 0001:0005ff40       ?GetThisClass@SectionsDlg@@SGPAUCRuntimeClass@@XZ 00460f40 f   SectionsDlg.obj
 0001:0005ff80       ?GetThisMessageMap@SectionsDlg@@KGPBUAFX_MSGMAP@@XZ 00460f80 f   SectionsDlg.obj
 0001:0005ffc0       ?OnInitDialog@SectionsDlg@@UAEHXZ 00460fc0 f   SectionsDlg.obj
 0001:000605b0       ?_GetBaseClass@SectionsDlg@@KGPAUCRuntimeClass@@XZ 004615b0 f   SectionsDlg.obj
 0001:00060600       ?_Get_data@?$_Vector_alloc@U?$_Vec_base_types@U_IMAGE_SECTION_HEADER@@V?$allocator@U_IMAGE_SECTION_HEADER@@@std@@@std@@@std@@QAEAAV?$_Vector_val@U?$_Simple_types@U_IMAGE_SECTION_HEADER@@@std@@@2@XZ 00461600 f i SectionsDlg.obj
 0001:00060650       ?_Get_data@?$_Vector_alloc@U?$_Vec_base_types@U_IMAGE_SECTION_HEADER@@V?$allocator@U_IMAGE_SECTION_HEADER@@@std@@@std@@@std@@QBEABV?$_Vector_val@U?$_Simple_types@U_IMAGE_SECTION_HEADER@@@std@@@2@XZ 00461650 f i SectionsDlg.obj
 0001:000606a0       ?_Get_second@?$_Compressed_pair@U?$_Wrap_alloc@V?$allocator@U_IMAGE_SECTION_HEADER@@@std@@@std@@V?$_Vector_val@U?$_Simple_types@U_IMAGE_SECTION_HEADER@@@std@@@2@$00@std@@QAEAAV?$_Vector_val@U?$_Simple_types@U_IMAGE_SECTION_HEADER@@@std@@@2@XZ 004616a0 f i SectionsDlg.obj
 0001:000606e0       ?_Get_second@?$_Compressed_pair@U?$_Wrap_alloc@V?$allocator@U_IMAGE_SECTION_HEADER@@@std@@@std@@V?$_Vector_val@U?$_Simple_types@U_IMAGE_SECTION_HEADER@@@std@@@2@$00@std@@QBEABV?$_Vector_val@U?$_Simple_types@U_IMAGE_SECTION_HEADER@@@std@@@2@XZ 004616e0 f i SectionsDlg.obj
 0001:00060720       ?_Myfirst@?$_Vector_alloc@U?$_Vec_base_types@U_IMAGE_SECTION_HEADER@@V?$allocator@U_IMAGE_SECTION_HEADER@@@std@@@std@@@std@@QAEAAPAU_IMAGE_SECTION_HEADER@@XZ 00461720 f i SectionsDlg.obj
 0001:00060780       ?_Myfirst@?$_Vector_alloc@U?$_Vec_base_types@U_IMAGE_SECTION_HEADER@@V?$allocator@U_IMAGE_SECTION_HEADER@@@std@@@std@@@std@@QBEABQAU_IMAGE_SECTION_HEADER@@XZ 00461780 f i SectionsDlg.obj
 0001:000607e0       ?_Mylast@?$_Vector_alloc@U?$_Vec_base_types@U_IMAGE_SECTION_HEADER@@V?$allocator@U_IMAGE_SECTION_HEADER@@@std@@@std@@@std@@QBEABQAU_IMAGE_SECTION_HEADER@@XZ 004617e0 f i SectionsDlg.obj
 0001:00060840       ?size@?$vector@U_IMAGE_SECTION_HEADER@@V?$allocator@U_IMAGE_SECTION_HEADER@@@std@@@std@@QBEIXZ 00461840 f i SectionsDlg.obj
 0001:000608b0       ?OnSize@CTabPage1@@QAEXIHH@Z 004618b0 f   TabPage1.obj
 0001:00060930       ?OnBnClickedButton1@CTabPage1@@QAEXXZ 00461930 f   TabPage1.obj
 0001:00060970       ??0CTabPage1@@QAE@PAVCWnd@@@Z 00461970 f   TabPage1.obj
 0001:00060a80       ??1CTabPage1@@UAE@XZ       00461a80 f   TabPage1.obj
 0001:00060b10       ??BCRect@@QAEPAUtagRECT@@XZ 00461b10 f i TabPage1.obj
 0001:00060b50       ??_ECTabPage1@@UAEPAXI@Z   00461b50 f i TabPage1.obj
 0001:00060b50       ??_GCTabPage1@@UAEPAXI@Z   00461b50 f i TabPage1.obj
 0001:00060be0       ?DoDataExchange@CTabPage1@@MAEXPAVCDataExchange@@@Z 00461be0 f   TabPage1.obj
 0001:00060c90       ?GetMessageMap@CTabPage1@@MBEPBUAFX_MSGMAP@@XZ 00461c90 f   TabPage1.obj
 0001:00060ce0       ?GetRuntimeClass@CTabPage1@@UBEPAUCRuntimeClass@@XZ 00461ce0 f   TabPage1.obj
 0001:00060d20       ?GetThisClass@CTabPage1@@SGPAUCRuntimeClass@@XZ 00461d20 f   TabPage1.obj
 0001:00060d60       ?GetThisMessageMap@CTabPage1@@KGPBUAFX_MSGMAP@@XZ 00461d60 f   TabPage1.obj
 0001:00060da0       ?InitDisaDate@CTabPage1@@QAEHXZ 00461da0 f   TabPage1.obj
 0001:00060de0       ?OnInitDialog@CTabPage1@@UAEHXZ 00461de0 f   TabPage1.obj
 0001:00061080       ?ReSize@CTabPage1@@QAEXPAVCWnd@@HH@Z 00462080 f   TabPage1.obj
 0001:00061210       ?_GetBaseClass@CTabPage1@@KGPAUCRuntimeClass@@XZ 00462210 f   TabPage1.obj
 0001:00061260       ?OnBnClickedButton1@CTabPage2@@QAEXXZ 00462260 f   TabPage2.obj
 0001:000612a0       ??0CTabPage2@@QAE@PAVCWnd@@@Z 004622a0 f   TabPage2.obj
 0001:00061390       ??1CTabPage2@@UAE@XZ       00462390 f   TabPage2.obj
 0001:00061420       ??_ECTabPage2@@UAEPAXI@Z   00462420 f i TabPage2.obj
 0001:00061420       ??_GCTabPage2@@UAEPAXI@Z   00462420 f i TabPage2.obj
 0001:000614b0       ?DoDataExchange@CTabPage2@@MAEXPAVCDataExchange@@@Z 004624b0 f   TabPage2.obj
 0001:00061560       ?GetMessageMap@CTabPage2@@MBEPBUAFX_MSGMAP@@XZ 00462560 f   TabPage2.obj
 0001:000615b0       ?GetRuntimeClass@CTabPage2@@UBEPAUCRuntimeClass@@XZ 004625b0 f   TabPage2.obj
 0001:000615f0       ?GetThisClass@CTabPage2@@SGPAUCRuntimeClass@@XZ 004625f0 f   TabPage2.obj
 0001:00061630       ?GetThisMessageMap@CTabPage2@@KGPBUAFX_MSGMAP@@XZ 00462630 f   TabPage2.obj
 0001:00061670       ?OnInitDialog@CTabPage2@@UAEHXZ 00462670 f   TabPage2.obj
 0001:00061a00       ?_GetBaseClass@CTabPage2@@KGPAUCRuntimeClass@@XZ 00462a00 f   TabPage2.obj
 0001:00061a50       ?find_last_of@?$basic_string@DU?$char_traits@D@std@@V?$allocator@D@2@@std@@QBEIDI@Z 00462a50 f i TabPage2.obj
 0001:00061ab0       @_RTC_AllocaHelper@12      00462ab0 f   MSVCRTD:_stack_.obj
 0001:00061af0       @_RTC_CheckStackVars2@12   00462af0 f   MSVCRTD:_stack_.obj
 0001:00061c00       @_RTC_CheckStackVars@8     00462c00 f   MSVCRTD:_stack_.obj
 0001:00061c70       __RTC_CheckEsp             00462c70 f   MSVCRTD:_stack_.obj
 0001:00061cb0       @__security_check_cookie@4 00462cb0 f   MSVCRTD:_secchk_.obj
 0001:00061cd0       __CRT_RTC_INIT             00462cd0 f   MSVCRTD:_init_.obj
 0001:00061ce0       __CRT_RTC_INITW            00462ce0 f   MSVCRTD:_init_.obj
 0001:00061cf0       __RTC_InitBase             00462cf0 f   MSVCRTD:_init_.obj
 0001:00061d30       __RTC_Shutdown             00462d30 f   MSVCRTD:_init_.obj
 0001:00061d50       ___raise_securityfailure   00462d50 f   MSVCRTD:gs_report.obj
 0001:00061d90       ___report_gsfailure        00462d90 f   MSVCRTD:gs_report.obj
 0001:00061ee0       ___report_rangecheckfailure 00462ee0 f   MSVCRTD:gs_report.obj
 0001:00061ef0       ___report_securityfailure  00462ef0 f   MSVCRTD:gs_report.obj
 0001:00062000       ___report_securityfailureEx 00463000 f   MSVCRTD:gs_report.obj
 0001:00062170       ??3@YAXPAX@Z               00463170 f   MSVCRTD:delete_scalar.obj
 0001:00062190       __allmul                   00463190 f   MSVCRTD:llmul.obj
 0001:000621e0       __aulldiv                  004631e0 f   MSVCRTD:ulldiv.obj
 0001:00062270       __aullrem                  00463270 f   MSVCRTD:ullrem.obj
 0001:00062310       ??_L@YGXPAXIHP6EX0@Z1@Z    00463310 f   MSVCRTD:ehvecctr.obj
 0001:00062340       ??_L@YGXPAXIIP6EX0@Z1@Z    00463340 f   MSVCRTD:ehvecctr.obj
 0001:00062430       ??_M@YGXPAXIHP6EX0@Z@Z     00463430 f   MSVCRTD:ehvecdtr.obj
 0001:00062460       ??_M@YGXPAXIIP6EX0@Z@Z     00463460 f   MSVCRTD:ehvecdtr.obj
 0001:00062590       ?__ArrayUnwind@@YGXPAXIIP6EX0@Z@Z 00463590 f   MSVCRTD:ehvecdtr.obj
 0001:00062660       ??2@YAPAXI@Z               00463660 f   MSVCRTD:new_scalar.obj
 0001:000626c0       ??3@YAXPAXI@Z              004636c0 f   MSVCRTD:delete_scalar_size.obj
 0001:000626e0       ??$__crt_fast_decode_pointer@PAP6AXXZ@@YAPAP6AXXZQAP6AXXZ@Z 004636e0 f i MSVCRTD:utility.obj
 0001:00062710       ??$__crt_fast_encode_pointer@PAP6AXXZ@@YAPAP6AXXZQAP6AXXZ@Z 00463710 f i MSVCRTD:utility.obj
 0001:00062750       ?__crt_rotate_pointer_value@@YAIIH@Z 00463750 f i MSVCRTD:utility.obj
 0001:00062760       ?configure_argv@__scrt_narrow_argv_policy@@SAHXZ 00463760 f i MSVCRTD:utility.obj
 0001:000628c0       _NtCurrentTeb              004638c0 f i MSVCRTD:utility.obj
 0001:000628d0       ___scrt_acquire_startup_lock 004638d0 f   MSVCRTD:utility.obj
 0001:00062930       ___scrt_dllmain_after_initialize_c 00463930 f   MSVCRTD:utility.obj
 0001:00062970       ___scrt_dllmain_before_initialize_c 00463970 f   MSVCRTD:utility.obj
 0001:000629a0       ___scrt_dllmain_crt_thread_attach 004639a0 f   MSVCRTD:utility.obj
 0001:000629e0       ___scrt_dllmain_crt_thread_detach 004639e0 f   MSVCRTD:utility.obj
 0001:00062a00       ___scrt_dllmain_exception_filter 00463a00 f   MSVCRTD:utility.obj
 0001:00062a60       ___scrt_dllmain_uninitialize_c 00463a60 f   MSVCRTD:utility.obj
 0001:00062aa0       ___scrt_dllmain_uninitialize_critical 00463aa0 f   MSVCRTD:utility.obj
 0001:00062ac0       ___scrt_initialize_crt     00463ac0 f   MSVCRTD:utility.obj
 0001:00062b20       ___scrt_initialize_onexit_tables 00463b20 f   MSVCRTD:utility.obj
 0001:00062c20       ___scrt_is_nonwritable_in_current_image 00463c20 f   MSVCRTD:utility.obj
 0001:00062da0       ___scrt_release_startup_lock 00463da0 f   MSVCRTD:utility.obj
 0001:00062dd0       ___scrt_uninitialize_crt   00463dd0 f   MSVCRTD:utility.obj
 0001:00062e20       __onexit                   00463e20 f   MSVCRTD:utility.obj
 0001:00062eb0       _at_quick_exit             00463eb0 f   MSVCRTD:utility.obj
 0001:00062f10       _atexit                    00463f10 f   MSVCRTD:utility.obj
 0001:00063090       ??$__crt_fast_decode_pointer@P6GHPAU_RTL_CONDITION_VARIABLE@@PAU_RTL_CRITICAL_SECTION@@K@Z@@YAP6GHPAU_RTL_CONDITION_VARIABLE@@PAU_RTL_CRITICAL_SECTION@@K@ZQ6GH01K@Z@Z 00464090 f i MSVCRTD:thread_safe_statics.obj
 0001:000630c0       ??$__crt_fast_decode_pointer@P6GXPAU_RTL_CONDITION_VARIABLE@@@Z@@YAP6GXPAU_RTL_CONDITION_VARIABLE@@@ZQ6GX0@Z@Z 004640c0 f i MSVCRTD:thread_safe_statics.obj
 0001:000630f0       ??$__crt_fast_encode_pointer@P6GHPAU_RTL_CONDITION_VARIABLE@@PAU_RTL_CRITICAL_SECTION@@K@Z@@YAP6GHPAU_RTL_CONDITION_VARIABLE@@PAU_RTL_CRITICAL_SECTION@@K@ZQ6GH01K@Z@Z 004640f0 f i MSVCRTD:thread_safe_statics.obj
 0001:00063130       ??$__crt_fast_encode_pointer@P6GXPAU_RTL_CONDITION_VARIABLE@@@Z@@YAP6GXPAU_RTL_CONDITION_VARIABLE@@@ZQ6GX0@Z@Z 00464130 f i MSVCRTD:thread_safe_statics.obj
 0001:000631a0       __Init_thread_abort        004641a0 f   MSVCRTD:thread_safe_statics.obj
 0001:000631d0       __Init_thread_footer       004641d0 f   MSVCRTD:thread_safe_statics.obj
 0001:00063230       __Init_thread_header       00464230 f   MSVCRTD:thread_safe_statics.obj
 0001:000632c0       __Init_thread_lock         004642c0 f   MSVCRTD:thread_safe_statics.obj
 0001:000632e0       __Init_thread_notify       004642e0 f   MSVCRTD:thread_safe_statics.obj
 0001:00063350       __Init_thread_unlock       00464350 f   MSVCRTD:thread_safe_statics.obj
 0001:00063370       __Init_thread_wait         00464370 f   MSVCRTD:thread_safe_statics.obj
 0001:00063460       __alldiv                   00464460 f   MSVCRTD:lldiv.obj
 0001:00063540       __allrem                   00464540 f   MSVCRTD:llrem.obj
 0001:00063620       __allshl                   00464620 f   MSVCRTD:llshl.obj
 0001:00063650       ??1type_info@@UAE@XZ       00464650 f   MSVCRTD:std_type_info_static.obj
 0001:00063670       ??_Gtype_info@@UAEPAXI@Z   00464670 f i MSVCRTD:std_type_info_static.obj
 0001:00063670       ??_Etype_info@@UAEPAXI@Z   00464670 f i MSVCRTD:std_type_info_static.obj
 0001:000636b0       ??_V@YAXPAX@Z              004646b0 f   MSVCRTD:delete_array.obj
 0001:000636d0       __alloca_probe             004646d0 f   MSVCRTD:chkstk.obj
 0001:000636d0       __chkstk                   004646d0 f   MSVCRTD:chkstk.obj
 0001:00063ae0       ?get_app_type@__scrt_winmain_policy@@SA?AW4_crt_app_type@@XZ 00464ae0 f i MSVCRTD:exe_winmain.obj
 0001:00063b30       _WinMainCRTStartup         00464b30 f   MSVCRTD:exe_winmain.obj
 0001:00063ce0       ?_RTC_AllocaFailure@@YAXPAXPAU_RTC_ALLOCA_NODE@@H@Z 00464ce0 f   MSVCRTD:_error_.obj
 0001:00063e50       ?_RTC_Failure@@YAXPAXH@Z   00464e50 f   MSVCRTD:_error_.obj
 0001:00063ec0       ?_RTC_StackFailure@@YAXPAXPBD@Z 00464ec0 f   MSVCRTD:_error_.obj
 0001:00064340       __RTC_UninitUse            00465340 f   MSVCRTD:_error_.obj
 0001:00064470       _sprintf_s                 00465470 f i MSVCRTD:_error_.obj
 0001:000644a0       ?_RTC_GetErrorFunc@@YAP6AHHPBDH00ZZPBX@Z 004654a0 f   MSVCRTD:_userapi_.obj
 0001:000644b0       ?_RTC_GetErrorFuncW@@YAP6AHHPB_WH00ZZPBX@Z 004654b0 f   MSVCRTD:_userapi_.obj
 0001:000644c0       __RTC_GetErrDesc           004654c0 f   MSVCRTD:_userapi_.obj
 0001:000644e0       __RTC_NumErrors            004654e0 f   MSVCRTD:_userapi_.obj
 0001:000644f0       __RTC_SetErrorFunc         004654f0 f   MSVCRTD:_userapi_.obj
 0001:00064520       __RTC_SetErrorFuncW        00465520 f   MSVCRTD:_userapi_.obj
 0001:00064550       __RTC_SetErrorType         00465550 f   MSVCRTD:_userapi_.obj
 0001:00064580       @_guard_check_icall@4      00465580 f i MSVCRTD:checkcfg.obj
 0001:000645a0       __except_handler4          004655a0 f   MSVCRTD:_chandler4gs_.obj
 0001:000645d0       ??0bad_alloc@std@@AAE@QBD@Z 004655d0 f i MSVCRTD:throw_bad_alloc.obj
 0001:00064600       ??0bad_alloc@std@@QAE@ABV01@@Z 00465600 f i MSVCRTD:throw_bad_alloc.obj
 0001:00064630       ??0bad_alloc@std@@QAE@XZ   00465630 f i MSVCRTD:throw_bad_alloc.obj
 0001:00064660       ??0bad_array_new_length@std@@QAE@ABV01@@Z 00465660 f i MSVCRTD:throw_bad_alloc.obj
 0001:00064690       ??0bad_array_new_length@std@@QAE@XZ 00465690 f i MSVCRTD:throw_bad_alloc.obj
 0001:000646c0       ??0exception@std@@QAE@ABV01@@Z 004656c0 f i MSVCRTD:throw_bad_alloc.obj
 0001:00064710       ??0exception@std@@QAE@QBDH@Z 00465710 f i MSVCRTD:throw_bad_alloc.obj
 0001:00064750       ??1bad_alloc@std@@UAE@XZ   00465750 f i MSVCRTD:throw_bad_alloc.obj
 0001:00064770       ??1bad_array_new_length@std@@UAE@XZ 00465770 f i MSVCRTD:throw_bad_alloc.obj
 0001:00064790       ??1exception@std@@UAE@XZ   00465790 f i MSVCRTD:throw_bad_alloc.obj
 0001:000647c0       ??_Ebad_alloc@std@@UAEPAXI@Z 004657c0 f i MSVCRTD:throw_bad_alloc.obj
 0001:000647c0       ??_Gbad_alloc@std@@UAEPAXI@Z 004657c0 f i MSVCRTD:throw_bad_alloc.obj
 0001:00064800       ??_Gbad_array_new_length@std@@UAEPAXI@Z 00465800 f i MSVCRTD:throw_bad_alloc.obj
 0001:00064800       ??_Ebad_array_new_length@std@@UAEPAXI@Z 00465800 f i MSVCRTD:throw_bad_alloc.obj
 0001:00064840       ??_Gexception@std@@UAEPAXI@Z 00465840 f i MSVCRTD:throw_bad_alloc.obj
 0001:00064840       ??_Eexception@std@@UAEPAXI@Z 00465840 f i MSVCRTD:throw_bad_alloc.obj
 0001:00064880       ?__scrt_throw_std_bad_alloc@@YAXXZ 00465880 f   MSVCRTD:throw_bad_alloc.obj
 0001:000648b0       ?__scrt_throw_std_bad_array_new_length@@YAXXZ 004658b0 f   MSVCRTD:throw_bad_alloc.obj
 0001:000648e0       ?what@exception@std@@UBEPBDXZ 004658e0 f i MSVCRTD:throw_bad_alloc.obj
 0001:00064920       ___isa_available_init      00465920 f   MSVCRTD:_cpu_disp_.obj
 0001:00064cb0       __get_startup_argv_mode    00465cb0 f   MSVCRTD:argv_mode.obj
 0001:00064cc0       ___scrt_is_ucrt_dll_in_use 00465cc0 f   MSVCRTD:ucrt_detection.obj
 0001:00064cf0       ___scrt_fastfail           00465cf0 f   MSVCRTD:utility_desktop.obj
 0001:00064e80       ___scrt_get_show_window_mode 00465e80 f   MSVCRTD:utility_desktop.obj
 0001:00064ed0       ___scrt_initialize_winrt   00465ed0 f   MSVCRTD:utility_desktop.obj
 0001:00064ee0       ___scrt_is_managed_app     00465ee0 f   MSVCRTD:utility_desktop.obj
 0001:00064f90       ___scrt_set_unhandled_exception_filter 00465f90 f   MSVCRTD:utility_desktop.obj
 0001:00064fb0       ___scrt_unhandled_exception_filter@4 00465fb0 f   MSVCRTD:utility_desktop.obj
 0001:00065030       __crt_debugger_hook        00466030 f   MSVCRTD:utility_desktop.obj
 0001:00065050       ___security_init_cookie    00466050 f   MSVCRTD:gs_support.obj
 0001:00065170       __matherr                  00466170 f   MSVCRTD:matherr.obj
 0001:00065180       __get_startup_commit_mode  00466180 f   MSVCRTD:commit_mode.obj
 0001:00065190       __get_startup_file_mode    00466190 f   MSVCRTD:file_mode.obj
 0001:000651a0       __get_startup_new_mode     004661a0 f   MSVCRTD:new_mode.obj
 0001:000651b0       __get_startup_thread_locale_mode 004661b0 f   MSVCRTD:thread_locale.obj
 0001:000651c0       ?__scrt_initialize_type_info@@YAXXZ 004661c0 f   MSVCRTD:tncleanup.obj
 0001:000651e0       ?__scrt_uninitialize_type_info@@YAXXZ 004661e0 f   MSVCRTD:tncleanup.obj
 0001:00065200       __should_initialize_environment 00466200 f   MSVCRTD:env_mode.obj
 0001:00065210       __initialize_default_precision 00466210 f   MSVCRTD:default_precision.obj
 0001:00065240       __initialize_invalid_parameter_handler 00466240 f   MSVCRTD:invalid_parameter_handler.obj
 0001:00065250       __initialize_denormal_control 00466250 f   MSVCRTD:denormal_control.obj
 0001:00065260       ___local_stdio_scanf_options 00466260 f i MSVCRTD:default_local_stdio_options.obj
 0001:00065270       ___scrt_initialize_default_local_stdio_options 00466270 f   MSVCRTD:default_local_stdio_options.obj
 0001:000652c0       ___scrt_is_user_matherr_present 004662c0 f   MSVCRTD:matherr_detection.obj
 0001:000652f0       ___scrt_get_dyn_tls_init_callback 004662f0 f   MSVCRTD:dyn_tls_init.obj
 0001:00065300       ___scrt_get_dyn_tls_dtor_callback 00466300 f   MSVCRTD:dyn_tls_dtor.obj
 0001:00065310       __RTC_Initialize           00466310 f   MSVCRTD:_initsect_.obj
 0001:00065350       __RTC_Terminate            00466350 f   MSVCRTD:_initsect_.obj
 0001:00065950       ?_RTC_GetSrcLine@@YAHPAEPA_WKPAH1K@Z 00466950 f   MSVCRTD:_pdblkup_.obj
 0001:00065d80       @_guard_check_icall_nop@4  00466d80 f i MSVCRTD:guard_support.obj
 0001:00065d90       __guard_icall_checks_enforced 00466d90 f i MSVCRTD:guard_support.obj
 0001:00065dc0       ??0_Lockit@std@@QAE@H@Z    00466dc0 f   msvcprtd:MSVCP140D.dll
 0001:00065dc6       ??1_Lockit@std@@QAE@XZ     00466dc6 f   msvcprtd:MSVCP140D.dll
 0001:00065dcc       ?_Debug_message@std@@YAXPB_W0I@Z 00466dcc f   msvcprtd:MSVCP140D.dll
 0001:00065dd2       ?_Xbad_alloc@std@@YAXXZ    00466dd2 f   msvcprtd:MSVCP140D.dll
 0001:00065dd8       ?_Xlength_error@std@@YAXPBD@Z 00466dd8 f   msvcprtd:MSVCP140D.dll
 0001:00065dde       ?_Xout_of_range@std@@YAXPBD@Z 00466dde f   msvcprtd:MSVCP140D.dll
 0001:00065de4       _PathIsDirectoryA@4        00466de4 f   shlwapi:SHLWAPI.dll
 0001:00065dea       _StrToIntA@4               00466dea f   shlwapi:SHLWAPI.dll
 0001:00065df0       _StrToInt64ExA@12          00466df0 f   shlwapi:SHLWAPI.dll
 0001:00065df6       _GetDlgCtrlID@4            00466df6 f   User32:USER32.dll
 0001:00065dfc       _GetSystemMetrics@4        00466dfc f   User32:USER32.dll
 0001:00065e02       _EnumChildWindows@12       00466e02 f   User32:USER32.dll
 0001:00065e08       _UnregisterClassA@8        00466e08 f   User32:USER32.dll
 0001:00065e0e       _MessageBoxA@16            00466e0e f   User32:USER32.dll
 0001:00065e14       _GetWindowLongA@8          00466e14 f   User32:USER32.dll
 0001:00065e1a       _SetWindowLongA@12         00466e1a f   User32:USER32.dll
 0001:00065e20       _MiniDumpWriteDump@28      00466e20 f   dbghelp:dbghelp.dll
 0001:00065e26       ?GetThisMessageMap@CDialogEx@@KGPBUAFX_MSGMAP@@XZ 00466e26 f   mfc140d:mfc140d.dll
 0001:00065e2c       ??3CObject@@SGXPAX@Z       00466e2c f   mfc140d:mfc140d.dll
 0001:00065e32       ?Serialize@CObject@@UAEXAAVCArchive@@@Z 00466e32 f   mfc140d:mfc140d.dll
 0001:00065e38       ??B?$CSimpleStringT@D$00@ATL@@QBEPBDXZ 00466e38 f   mfc140d:mfc140d.dll
 0001:00065e3e       ?Append@?$CSimpleStringT@D$00@ATL@@QAEXPBD@Z 00466e3e f   mfc140d:mfc140d.dll
 0001:00065e44       ?Empty@?$CSimpleStringT@D$00@ATL@@QAEXXZ 00466e44 f   mfc140d:mfc140d.dll
 0001:00065e4a       ?GetBuffer@?$CSimpleStringT@D$00@ATL@@QAEPADH@Z 00466e4a f   mfc140d:mfc140d.dll
 0001:00065e50       ?GetLength@?$CSimpleStringT@D$00@ATL@@QBEHXZ 00466e50 f   mfc140d:mfc140d.dll
 0001:00065e56       ??0?$CStringT@DV?$StrTraitMFC_DLL@DV?$ChTraitsCRT@D@ATL@@@@@ATL@@QAE@XZ 00466e56 f   mfc140d:mfc140d.dll
 0001:00065e5c       ??1?$CStringT@DV?$StrTraitMFC_DLL@DV?$ChTraitsCRT@D@ATL@@@@@ATL@@QAE@XZ 00466e5c f   mfc140d:mfc140d.dll
 0001:00065e62       ?Format@?$CStringT@DV?$StrTraitMFC_DLL@DV?$ChTraitsCRT@D@ATL@@@@@ATL@@QAAXPBDZZ 00466e62 f   mfc140d:mfc140d.dll
 0001:00065e68       ??1CBrush@@UAE@XZ          00466e68 f   mfc140d:mfc140d.dll
 0001:00065e6e       ?DDX_Control@@YGXPAVCDataExchange@@HAAVCWnd@@@Z 00466e6e f   mfc140d:mfc140d.dll
 0001:00065e74       ?IsInvokeAllowed@CCmdTarget@@UAEHJ@Z 00466e74 f   mfc140d:mfc140d.dll
 0001:00065e7a       ?GetDispatchIID@CCmdTarget@@UAEHPAU_GUID@@@Z 00466e7a f   mfc140d:mfc140d.dll
 0001:00065e80       ?GetTypeInfoCount@CCmdTarget@@UAEIXZ 00466e80 f   mfc140d:mfc140d.dll
 0001:00065e86       ?GetTypeLibCache@CCmdTarget@@UAEPAVCTypeLibCache@@XZ 00466e86 f   mfc140d:mfc140d.dll
 0001:00065e8c       ?GetTypeLib@CCmdTarget@@UAEJKPAPAUITypeLib@@@Z 00466e8c f   mfc140d:mfc140d.dll
 0001:00065e92       ?GetCommandMap@CCmdTarget@@MBEPBUAFX_OLECMDMAP@@XZ 00466e92 f   mfc140d:mfc140d.dll
 0001:00065e98       ?GetDispatchMap@CCmdTarget@@MBEPBUAFX_DISPMAP@@XZ 00466e98 f   mfc140d:mfc140d.dll
 0001:00065e9e       ?GetConnectionMap@CCmdTarget@@MBEPBUAFX_CONNECTIONMAP@@XZ 00466e9e f   mfc140d:mfc140d.dll
 0001:00065ea4       ?GetEventSinkMap@CCmdTarget@@MBEPBUAFX_EVENTSINKMAP@@XZ 00466ea4 f   mfc140d:mfc140d.dll
 0001:00065eaa       ?OnCreateAggregates@CCmdTarget@@UAEHXZ 00466eaa f   mfc140d:mfc140d.dll
 0001:00065eb0       ?GetInterfaceHook@CCmdTarget@@UAEPAUIUnknown@@PBX@Z 00466eb0 f   mfc140d:mfc140d.dll
 0001:00065eb6       ?GetExtraConnectionPoints@CCmdTarget@@MAEHPAVCPtrArray@@@Z 00466eb6 f   mfc140d:mfc140d.dll
 0001:00065ebc       ?GetConnectionHook@CCmdTarget@@MAEPAUIConnectionPoint@@ABU_GUID@@@Z 00466ebc f   mfc140d:mfc140d.dll
 0001:00065ec2       ?PreSubclassWindow@CWnd@@UAEXXZ 00466ec2 f   mfc140d:mfc140d.dll
 0001:00065ec8       ?Create@CWnd@@UAEHPBD0KABUtagRECT@@PAV1@IPAUCCreateContext@@@Z 00466ec8 f   mfc140d:mfc140d.dll
 0001:00065ece       ?CreateEx@CWnd@@UAEHKPBD0KHHHHPAUHWND__@@PAUHMENU__@@PAX@Z 00466ece f   mfc140d:mfc140d.dll
 0001:00065ed4       ?CreateEx@CWnd@@UAEHKPBD0KABUtagRECT@@PAV1@IPAX@Z 00466ed4 f   mfc140d:mfc140d.dll
 0001:00065eda       ?DestroyWindow@CWnd@@UAEHXZ 00466eda f   mfc140d:mfc140d.dll
 0001:00065ee0       ?PreCreateWindow@CWnd@@UAEHAAUtagCREATESTRUCTA@@@Z 00466ee0 f   mfc140d:mfc140d.dll
 0001:00065ee6       ?CalcWindowRect@CWnd@@UAEXPAUtagRECT@@I@Z 00466ee6 f   mfc140d:mfc140d.dll
 0001:00065eec       ?GetDlgItem@CWnd@@QBEPAV1@H@Z 00466eec f   mfc140d:mfc140d.dll
 0001:00065ef2       ?GetWindowTextA@CWnd@@QBEXAAV?$CStringT@DV?$StrTraitMFC_DLL@DV?$ChTraitsCRT@D@ATL@@@@@ATL@@@Z 00466ef2 f   mfc140d:mfc140d.dll
 0001:00065ef8       ?GetMenu@CWnd@@UBEPAVCMenu@@XZ 00466ef8 f   mfc140d:mfc140d.dll
 0001:00065efe       ?SetMenu@CWnd@@UAEHPAVCMenu@@@Z 00466efe f   mfc140d:mfc140d.dll
 0001:00065f04       ?OnToolHitTest@CWnd@@UBEHVCPoint@@PAUtagTOOLINFOA@@@Z 00466f04 f   mfc140d:mfc140d.dll
 0001:00065f0a       ?GetScrollBarCtrl@CWnd@@UBEPAVCScrollBar@@H@Z 00466f0a f   mfc140d:mfc140d.dll
 0001:00065f10       ?WinHelpA@CWnd@@UAEXKI@Z   00466f10 f   mfc140d:mfc140d.dll
 0001:00065f16       ?HtmlHelpA@CWnd@@UAEXKI@Z  00466f16 f   mfc140d:mfc140d.dll
 0001:00065f1c       ?WinHelpInternal@CWnd@@UAEXKI@Z 00466f1c f   mfc140d:mfc140d.dll
 0001:00065f22       ?ContinueModal@CWnd@@UAEHXZ 00466f22 f   mfc140d:mfc140d.dll
 0001:00065f28       ?EndModalLoop@CWnd@@UAEXH@Z 00466f28 f   mfc140d:mfc140d.dll
 0001:00065f2e       ?OnDrawIconicThumbnailOrLivePreview@CWnd@@UAEXAAVCDC@@VCRect@@VCSize@@HAAH@Z 00466f2e f   mfc140d:mfc140d.dll
 0001:00065f34       ?GetInterfaceMap@CWnd@@MBEPBUAFX_INTERFACEMAP@@XZ 00466f34 f   mfc140d:mfc140d.dll
 0001:00065f3a       ?EnsureStdObj@CWnd@@UAEJXZ 00466f3a f   mfc140d:mfc140d.dll
 0001:00065f40       ?get_accParent@CWnd@@UAEJPAPAUIDispatch@@@Z 00466f40 f   mfc140d:mfc140d.dll
 0001:00065f46       ?get_accChildCount@CWnd@@UAEJPAJ@Z 00466f46 f   mfc140d:mfc140d.dll
 0001:00065f4c       ?get_accChild@CWnd@@UAEJUtagVARIANT@@PAPAUIDispatch@@@Z 00466f4c f   mfc140d:mfc140d.dll
 0001:00065f52       ?get_accName@CWnd@@UAEJUtagVARIANT@@PAPA_W@Z 00466f52 f   mfc140d:mfc140d.dll
 0001:00065f58       ?get_accValue@CWnd@@UAEJUtagVARIANT@@PAPA_W@Z 00466f58 f   mfc140d:mfc140d.dll
 0001:00065f5e       ?get_accDescription@CWnd@@UAEJUtagVARIANT@@PAPA_W@Z 00466f5e f   mfc140d:mfc140d.dll
 0001:00065f64       ?get_accRole@CWnd@@UAEJUtagVARIANT@@PAU2@@Z 00466f64 f   mfc140d:mfc140d.dll
 0001:00065f6a       ?get_accState@CWnd@@UAEJUtagVARIANT@@PAU2@@Z 00466f6a f   mfc140d:mfc140d.dll
 0001:00065f70       ?get_accHelp@CWnd@@UAEJUtagVARIANT@@PAPA_W@Z 00466f70 f   mfc140d:mfc140d.dll
 0001:00065f76       ?get_accHelpTopic@CWnd@@UAEJPAPA_WUtagVARIANT@@PAJ@Z 00466f76 f   mfc140d:mfc140d.dll
 0001:00065f7c       ?get_accKeyboardShortcut@CWnd@@UAEJUtagVARIANT@@PAPA_W@Z 00466f7c f   mfc140d:mfc140d.dll
 0001:00065f82       ?get_accFocus@CWnd@@UAEJPAUtagVARIANT@@@Z 00466f82 f   mfc140d:mfc140d.dll
 0001:00065f88       ?get_accSelection@CWnd@@UAEJPAUtagVARIANT@@@Z 00466f88 f   mfc140d:mfc140d.dll
 0001:00065f8e       ?get_accDefaultAction@CWnd@@UAEJUtagVARIANT@@PAPA_W@Z 00466f8e f   mfc140d:mfc140d.dll
 0001:00065f94       ?accSelect@CWnd@@UAEJJUtagVARIANT@@@Z 00466f94 f   mfc140d:mfc140d.dll
 0001:00065f9a       ?accLocation@CWnd@@UAEJPAJ000UtagVARIANT@@@Z 00466f9a f   mfc140d:mfc140d.dll
 0001:00065fa0       ?accNavigate@CWnd@@UAEJJUtagVARIANT@@PAU2@@Z 00466fa0 f   mfc140d:mfc140d.dll
 0001:00065fa6       ?accHitTest@CWnd@@UAEJJJPAUtagVARIANT@@@Z 00466fa6 f   mfc140d:mfc140d.dll
 0001:00065fac       ?accDoDefaultAction@CWnd@@UAEJUtagVARIANT@@@Z 00466fac f   mfc140d:mfc140d.dll
 0001:00065fb2       ?put_accName@CWnd@@UAEJUtagVARIANT@@PA_W@Z 00466fb2 f   mfc140d:mfc140d.dll
 0001:00065fb8       ?put_accValue@CWnd@@UAEJUtagVARIANT@@PA_W@Z 00466fb8 f   mfc140d:mfc140d.dll
 0001:00065fbe       ?SetProxy@CWnd@@UAEJPAUIAccessibleProxy@@@Z 00466fbe f   mfc140d:mfc140d.dll
 0001:00065fc4       ?CreateAccessibleProxy@CWnd@@UAEJIJPAJ@Z 00466fc4 f   mfc140d:mfc140d.dll
 0001:00065fca       ?OnNotify@CWnd@@MAEHIJPAJ@Z 00466fca f   mfc140d:mfc140d.dll
 0001:00065fd0       ?GetSuperWndProcAddr@CWnd@@MAEPAP6GJPAUHWND__@@IIJ@ZXZ 00466fd0 f   mfc140d:mfc140d.dll
 0001:00065fd6       ?DoDataExchange@CWnd@@MAEXPAVCDataExchange@@@Z 00466fd6 f   mfc140d:mfc140d.dll
 0001:00065fdc       ?BeginModalState@CWnd@@UAEXXZ 00466fdc f   mfc140d:mfc140d.dll
 0001:00065fe2       ?EndModalState@CWnd@@UAEXXZ 00466fe2 f   mfc140d:mfc140d.dll
 0001:00065fe8       ?OnAmbientProperty@CWnd@@UAEHPAVCOleControlSite@@JPAUtagVARIANT@@@Z 00466fe8 f   mfc140d:mfc140d.dll
 0001:00065fee       ?WindowProc@CWnd@@MAEJIIJ@Z 00466fee f   mfc140d:mfc140d.dll
 0001:00065ff4       ?OnWndMsg@CWnd@@MAEHIIJPAJ@Z 00466ff4 f   mfc140d:mfc140d.dll
 0001:00065ffa       ?DefWindowProcA@CWnd@@MAEJIIJ@Z 00466ffa f   mfc140d:mfc140d.dll
 0001:00066000       ?PostNcDestroy@CWnd@@MAEXXZ 00467000 f   mfc140d:mfc140d.dll
 0001:00066006       ?OnChildNotify@CWnd@@MAEHIIJPAJ@Z 00467006 f   mfc140d:mfc140d.dll
 0001:0006600c       ?OnTouchInputs@CWnd@@MAEHIPAUtagTOUCHINPUT@@@Z 0046700c f   mfc140d:mfc140d.dll
 0001:00066012       ?OnTouchInput@CWnd@@MAEHVCPoint@@HHPAUtagTOUCHINPUT@@@Z 00467012 f   mfc140d:mfc140d.dll
 0001:00066018       ?GetGestureStatus@CWnd@@MAEKVCPoint@@@Z 00467018 f   mfc140d:mfc140d.dll
 0001:0006601e       ?OnGestureZoom@CWnd@@MAEHVCPoint@@J@Z 0046701e f   mfc140d:mfc140d.dll
 0001:00066024       ?OnGesturePan@CWnd@@MAEHVCPoint@@0@Z 00467024 f   mfc140d:mfc140d.dll
 0001:0006602a       ?OnGestureRotate@CWnd@@MAEHVCPoint@@N@Z 0046702a f   mfc140d:mfc140d.dll
 0001:00066030       ?OnGestureTwoFingerTap@CWnd@@MAEHVCPoint@@@Z 00467030 f   mfc140d:mfc140d.dll
 0001:00066036       ?OnGesturePressAndTap@CWnd@@MAEHVCPoint@@J@Z 00467036 f   mfc140d:mfc140d.dll
 0001:0006603c       ?ResizeDynamicLayout@CWnd@@MAEXXZ 0046703c f   mfc140d:mfc140d.dll
 0001:00066042       ?IsFrameWnd@CWnd@@UBEHXZ   00467042 f   mfc140d:mfc140d.dll
 0001:00066048       ?OnFinalRelease@CWnd@@UAEXXZ 00467048 f   mfc140d:mfc140d.dll
 0001:0006604e       ?CreateControlContainer@CWnd@@MAEHPAPAVCOleControlContainer@@@Z 0046704e f   mfc140d:mfc140d.dll
 0001:00066054       ?CreateControlSite@CWnd@@MAEHPAVCOleControlContainer@@PAPAVCOleControlSite@@IABU_GUID@@@Z 00467054 f   mfc140d:mfc140d.dll
 0001:0006605a       ?Create@CDialog@@UAEHPBDPAVCWnd@@@Z 0046705a f   mfc140d:mfc140d.dll
 0001:00066060       ?Create@CDialog@@UAEHIPAVCWnd@@@Z 00467060 f   mfc140d:mfc140d.dll
 0001:00066066       ?CreateIndirect@CDialog@@UAEHPBUDLGTEMPLATE@@PAVCWnd@@PAX@Z 00467066 f   mfc140d:mfc140d.dll
 0001:0006606c       ?CreateIndirect@CDialog@@UAEHPAXPAVCWnd@@@Z 0046706c f   mfc140d:mfc140d.dll
 0001:00066072       ?DoModal@CDialog@@UAEHXZ   00467072 f   mfc140d:mfc140d.dll
 0001:00066078       ?OnInitDialog@CDialog@@UAEHXZ 00467078 f   mfc140d:mfc140d.dll
 0001:0006607e       ?OnSetFont@CDialog@@UAEXPAVCFont@@@Z 0046707e f   mfc140d:mfc140d.dll
 0001:00066084       ?OnOK@CDialog@@MAEXXZ      00467084 f   mfc140d:mfc140d.dll
 0001:0006608a       ?OnCancel@CDialog@@MAEXXZ  0046708a f   mfc140d:mfc140d.dll
 0001:00066090       ??1CDialog@@UAE@XZ         00467090 f   mfc140d:mfc140d.dll
 0001:00066096       ?AssertValid@CDialog@@UBEXXZ 00467096 f   mfc140d:mfc140d.dll
 0001:0006609c       ?Dump@CDialog@@UBEXAAVCDumpContext@@@Z 0046709c f   mfc140d:mfc140d.dll
 0001:000660a2       ?OnCmdMsg@CDialog@@UAEHIHPAXPAUAFX_CMDHANDLERINFO@@@Z 004670a2 f   mfc140d:mfc140d.dll
 0001:000660a8       ?CheckAutoCenter@CDialog@@UAEHXZ 004670a8 f   mfc140d:mfc140d.dll
 0001:000660ae       ?SetOccDialogInfo@CDialog@@MAEHPAU_AFX_OCC_DIALOG_INFO@@@Z 004670ae f   mfc140d:mfc140d.dll
 0001:000660b4       ?GetOccDialogInfo@CDialog@@MAEPAU_AFX_OCC_DIALOG_INFO@@XZ 004670b4 f   mfc140d:mfc140d.dll
 0001:000660ba       ?PreInitDialog@CDialog@@MAEXXZ 004670ba f   mfc140d:mfc140d.dll
 0001:000660c0       ?SetCheck@CButton@@QAEXH@Z 004670c0 f   mfc140d:mfc140d.dll
 0001:000660c6       ??0CEdit@@QAE@XZ           004670c6 f   mfc140d:mfc140d.dll
 0001:000660cc       ?SetLimitText@CEdit@@QAEXI@Z 004670cc f   mfc140d:mfc140d.dll
 0001:000660d2       ??1CEdit@@UAE@XZ           004670d2 f   mfc140d:mfc140d.dll
 0001:000660d8       ?AfxGetMainWnd@@YGPAVCWnd@@XZ 004670d8 f   mfc140d:mfc140d.dll
 0001:000660de       ?AfxMessageBox@@YGHPBDII@Z 004670de f   mfc140d:mfc140d.dll
 0001:000660e4       ?GetColumn@CListCtrl@@QBEHHPAUtagLVCOLUMNA@@@Z 004670e4 f   mfc140d:mfc140d.dll
 0001:000660ea       ?SetColumn@CListCtrl@@QAEHHPBUtagLVCOLUMNA@@@Z 004670ea f   mfc140d:mfc140d.dll
 0001:000660f0       ?SetColumnWidth@CListCtrl@@QAEHHH@Z 004670f0 f   mfc140d:mfc140d.dll
 0001:000660f6       ?SetItemText@CListCtrl@@QAEHHHPBD@Z 004670f6 f   mfc140d:mfc140d.dll
 0001:000660fc       ?InsertItem@CListCtrl@@QAEHHPBD@Z 004670fc f   mfc140d:mfc140d.dll
 0001:00066102       ?DeleteAllItems@CListCtrl@@QAEHXZ 00467102 f   mfc140d:mfc140d.dll
 0001:00066108       ??1CDialogImpl@@MAE@XZ     00467108 f   mfc140d:mfc140d.dll
 0001:0006610e       ?GetThisClass@CDialogEx@@SGPAUCRuntimeClass@@XZ 0046710e f   mfc140d:mfc140d.dll
 0001:00066114       ??0CDialogEx@@QAE@IPAVCWnd@@@Z 00467114 f   mfc140d:mfc140d.dll
 0001:0006611a       ?PreTranslateMessage@CDialogEx@@UAEHPAUtagMSG@@@Z 0046711a f   mfc140d:mfc140d.dll
 0001:00066120       ?OnCommand@CDialogEx@@MAEHIJ@Z 00467120 f   mfc140d:mfc140d.dll
 0001:00066126       ??4?$CStringT@DV?$StrTraitMFC_DLL@DV?$ChTraitsCRT@D@ATL@@@@@ATL@@QAEAAV01@PBD@Z 00467126 f   mfc140d:mfc140d.dll
 0001:0006612c       ??2CObject@@SGPAXI@Z       0046712c f   mfc140d:mfc140d.dll
 0001:00066132       ?SetWindowTextA@CWnd@@QAEXPBD@Z 00467132 f   mfc140d:mfc140d.dll
 0001:00066138       ?ShowWindow@CWnd@@QAEHH@Z  00467138 f   mfc140d:mfc140d.dll
 0001:0006613e       ?OnShowWindow@CWnd@@IAEXHI@Z 0046713e f   mfc140d:mfc140d.dll
 0001:00066144       ?MoveWindow@CWnd@@QAEXHHHHH@Z 00467144 f   mfc140d:mfc140d.dll
 0001:0006614a       ?CloseWindow@CWnd@@QAEXXZ  0046714a f   mfc140d:mfc140d.dll
 0001:00066150       ??0CTabCtrl@@QAE@XZ        00467150 f   mfc140d:mfc140d.dll
 0001:00066156       ?GetCurSel@CTabCtrl@@QBEHXZ 00467156 f   mfc140d:mfc140d.dll
 0001:0006615c       ??1CTabCtrl@@UAE@XZ        0046715c f   mfc140d:mfc140d.dll
 0001:00066162       ?GetThisMessageMap@CMFCEditBrowseCtrl@@KGPBUAFX_MSGMAP@@XZ 00467162 f   mfc140d:mfc140d.dll
 0001:00066168       ?OnCmdMsg@CCmdTarget@@UAEHIHPAXPAUAFX_CMDHANDLERINFO@@@Z 00467168 f   mfc140d:mfc140d.dll
 0001:0006616e       ?OnCommand@CWnd@@MAEHIJ@Z  0046716e f   mfc140d:mfc140d.dll
 0001:00066174       ?CheckAutoCenter@CWnd@@UAEHXZ 00467174 f   mfc140d:mfc140d.dll
 0001:0006617a       ?AssertValid@CWnd@@UBEXXZ  0046717a f   mfc140d:mfc140d.dll
 0001:00066180       ?Dump@CWnd@@UBEXAAVCDumpContext@@@Z 00467180 f   mfc140d:mfc140d.dll
 0001:00066186       ?SetOccDialogInfo@CWnd@@MAEHPAU_AFX_OCC_DIALOG_INFO@@@Z 00467186 f   mfc140d:mfc140d.dll
 0001:0006618c       ?GetOccDialogInfo@CWnd@@MAEPAU_AFX_OCC_DIALOG_INFO@@XZ 0046718c f   mfc140d:mfc140d.dll
 0001:00066192       ?GetThisClass@CEdit@@SGPAUCRuntimeClass@@XZ 00467192 f   mfc140d:mfc140d.dll
 0001:00066198       ??0CMFCEditBrowseCtrl@@QAE@XZ 00467198 f   mfc140d:mfc140d.dll
 0001:0006619e       ?PreTranslateMessage@CMFCEditBrowseCtrl@@UAEHPAUtagMSG@@@Z 0046719e f   mfc140d:mfc140d.dll
 0001:000661a4       ?OnBrowse@CMFCEditBrowseCtrl@@UAEXXZ 004671a4 f   mfc140d:mfc140d.dll
 0001:000661aa       ?OnDrawBrowseButton@CMFCEditBrowseCtrl@@UAEXPAVCDC@@VCRect@@HH@Z 004671aa f   mfc140d:mfc140d.dll
 0001:000661b0       ?OnChangeLayout@CMFCEditBrowseCtrl@@UAEXXZ 004671b0 f   mfc140d:mfc140d.dll
 0001:000661b6       ?OnAfterUpdate@CMFCEditBrowseCtrl@@UAEXXZ 004671b6 f   mfc140d:mfc140d.dll
 0001:000661bc       ?OnIllegalFileName@CMFCEditBrowseCtrl@@UAEHAAV?$CStringT@DV?$StrTraitMFC_DLL@DV?$ChTraitsCRT@D@ATL@@@@@ATL@@@Z 004671bc f   mfc140d:mfc140d.dll
 0001:000661c2       ??1CMFCEditBrowseCtrl@@UAE@XZ 004671c2 f   mfc140d:mfc140d.dll
 0001:000661c8       ?GetThisMessageMap@CWnd@@KGPBUAFX_MSGMAP@@XZ 004671c8 f   mfc140d:mfc140d.dll
 0001:000661ce       ?OnMouseLeave@CWnd@@IAEXXZ 004671ce f   mfc140d:mfc140d.dll
 0001:000661d4       ?OnMouseMove@CWnd@@IAEXIVCPoint@@@Z 004671d4 f   mfc140d:mfc140d.dll
 0001:000661da       ?PreTranslateMessage@CWnd@@UAEHPAUtagMSG@@@Z 004671da f   mfc140d:mfc140d.dll
 0001:000661e0       ?GetThisClass@CStatic@@SGPAUCRuntimeClass@@XZ 004671e0 f   mfc140d:mfc140d.dll
 0001:000661e6       ??0CStatic@@QAE@XZ         004671e6 f   mfc140d:mfc140d.dll
 0001:000661ec       ?Create@CStatic@@UAEHPBDKABUtagRECT@@PAVCWnd@@I@Z 004671ec f   mfc140d:mfc140d.dll
 0001:000661f2       ?DrawItem@CStatic@@UAEXPAUtagDRAWITEMSTRUCT@@@Z 004671f2 f   mfc140d:mfc140d.dll
 0001:000661f8       ??1CStatic@@UAE@XZ         004671f8 f   mfc140d:mfc140d.dll
 0001:000661fe       ?OnChildNotify@CStatic@@MAEHIIJPAJ@Z 004671fe f   mfc140d:mfc140d.dll
 0001:00066204       ?SetText@CStatusBarCtrl@@QAEHPBDHH@Z 00467204 f   mfc140d:mfc140d.dll
 0001:0006620a       ?EnableAutomation@CCmdTarget@@QAEXXZ 0046720a f   mfc140d:mfc140d.dll
 0001:00066210       ?GetWindowRect@CWnd@@QBEXPAUtagRECT@@@Z 00467210 f   mfc140d:mfc140d.dll
 0001:00066216       ?GetClientRect@CWnd@@QBEXPAUtagRECT@@@Z 00467216 f   mfc140d:mfc140d.dll
 0001:0006621c       ?GetThisClass@CStatusBarCtrl@@SGPAUCRuntimeClass@@XZ 0046721c f   mfc140d:mfc140d.dll
 0001:00066222       ??0CStatusBarCtrl@@QAE@XZ  00467222 f   mfc140d:mfc140d.dll
 0001:00066228       ?SetParts@CStatusBarCtrl@@QAEHHPAH@Z 00467228 f   mfc140d:mfc140d.dll
 0001:0006622e       ?DrawItem@CStatusBarCtrl@@UAEXPAUtagDRAWITEMSTRUCT@@@Z 0046722e f   mfc140d:mfc140d.dll
 0001:00066234       ??1CStatusBarCtrl@@UAE@XZ  00467234 f   mfc140d:mfc140d.dll
 0001:0006623a       ?OnChildNotify@CStatusBarCtrl@@MAEHIIJPAJ@Z 0046723a f   mfc140d:mfc140d.dll
 0001:00066240       ??0CProgressCtrl@@QAE@XZ   00467240 f   mfc140d:mfc140d.dll
 0001:00066246       ?SetRange32@CProgressCtrl@@QAEXHH@Z 00467246 f   mfc140d:mfc140d.dll
 0001:0006624c       ?SetPos@CProgressCtrl@@QAEHH@Z 0046724c f   mfc140d:mfc140d.dll
 0001:00066252       ??1CProgressCtrl@@UAE@XZ   00467252 f   mfc140d:mfc140d.dll
 0001:00066258       ?GetThisMessageMap@CMFCListCtrl@@KGPBUAFX_MSGMAP@@XZ 00467258 f   mfc140d:mfc140d.dll
 0001:0006625e       ??4?$CStringT@DV?$StrTraitMFC_DLL@DV?$ChTraitsCRT@D@ATL@@@@@ATL@@QAEAAV01@ABV01@@Z 0046725e f   mfc140d:mfc140d.dll
 0001:00066264       ?CompareNoCase@?$CStringT@DV?$StrTraitMFC_DLL@DV?$ChTraitsCRT@D@ATL@@@@@ATL@@QBEHPBD@Z 00467264 f   mfc140d:mfc140d.dll
 0001:0006626a       ?GetDlgCtrlID@CWnd@@QBEHXZ 0046726a f   mfc140d:mfc140d.dll
 0001:00066270       ?GetParent@CWnd@@QBEPAV1@XZ 00467270 f   mfc140d:mfc140d.dll
 0001:00066276       ?GetBkColor@CListCtrl@@QBEKXZ 00467276 f   mfc140d:mfc140d.dll
 0001:0006627c       ?GetItemCount@CListCtrl@@QBEHXZ 0046727c f   mfc140d:mfc140d.dll
 0001:00066282       ?GetTextColor@CListCtrl@@QBEKXZ 00467282 f   mfc140d:mfc140d.dll
 0001:00066288       ?GetItemText@CListCtrl@@QBE?AV?$CStringT@DV?$StrTraitMFC_DLL@DV?$ChTraitsCRT@D@ATL@@@@@ATL@@HH@Z 00467288 f   mfc140d:mfc140d.dll
 0001:0006628e       ?SetItemData@CListCtrl@@QAEHHK@Z 0046728e f   mfc140d:mfc140d.dll
 0001:00066294       ?SetExtendedStyle@CListCtrl@@QAEKK@Z 00467294 f   mfc140d:mfc140d.dll
 0001:0006629a       ?FindItem@CListCtrl@@QBEHPAUtagLVFINDINFOA@@H@Z 0046729a f   mfc140d:mfc140d.dll
 0001:000662a0       ?InsertColumn@CListCtrl@@QAEHHPBUtagLVCOLUMNA@@@Z 004672a0 f   mfc140d:mfc140d.dll
 0001:000662a6       ?DeleteColumn@CListCtrl@@QAEHH@Z 004672a6 f   mfc140d:mfc140d.dll
 0001:000662ac       ?SortItems@CListCtrl@@QAEHP6GHJJJ@ZK@Z 004672ac f   mfc140d:mfc140d.dll
 0001:000662b2       ?DrawItem@CListCtrl@@UAEXPAUtagDRAWITEMSTRUCT@@@Z 004672b2 f   mfc140d:mfc140d.dll
 0001:000662b8       ?OnChildNotify@CListCtrl@@MAEHIIJPAJ@Z 004672b8 f   mfc140d:mfc140d.dll
 0001:000662be       ?GetItemCount@CHeaderCtrl@@QBEHXZ 004672be f   mfc140d:mfc140d.dll
 0001:000662c4       ?GetThisClass@CMFCListCtrl@@SGPAUCRuntimeClass@@XZ 004672c4 f   mfc140d:mfc140d.dll
 0001:000662ca       ??0CMFCListCtrl@@QAE@XZ    004672ca f   mfc140d:mfc140d.dll
 0001:000662d0       ?Sort@CMFCListCtrl@@UAEXHHH@Z 004672d0 f   mfc140d:mfc140d.dll
 0001:000662d6       ?OnCompareItems@CMFCListCtrl@@UAEHJJH@Z 004672d6 f   mfc140d:mfc140d.dll
 0001:000662dc       ?PreSubclassWindow@CMFCListCtrl@@MAEXXZ 004672dc f   mfc140d:mfc140d.dll
 0001:000662e2       ??1CMFCListCtrl@@UAE@XZ    004672e2 f   mfc140d:mfc140d.dll
 0001:000662e8       ?InitHeader@CMFCListCtrl@@MAEXXZ 004672e8 f   mfc140d:mfc140d.dll
 0001:000662ee       ?OnHelp@CWinApp@@IAEXXZ    004672ee f   mfc140d:mfc140d.dll
 0001:000662f4       ?GetThisMessageMap@CWinApp@@KGPBUAFX_MSGMAP@@XZ 004672f4 f   mfc140d:mfc140d.dll
 0001:000662fa       ?OnFinalRelease@CCmdTarget@@UAEXXZ 004672fa f   mfc140d:mfc140d.dll
 0001:00066300       ?GetInterfaceMap@CCmdTarget@@MBEPBUAFX_INTERFACEMAP@@XZ 00467300 f   mfc140d:mfc140d.dll
 0001:00066306       ?PreTranslateMessage@CWinThread@@UAEHPAUtagMSG@@@Z 00467306 f   mfc140d:mfc140d.dll
 0001:0006630c       ?PumpMessage@CWinThread@@UAEHXZ 0046730c f   mfc140d:mfc140d.dll
 0001:00066312       ?IsIdleMessage@CWinThread@@UAEHPAUtagMSG@@@Z 00467312 f   mfc140d:mfc140d.dll
 0001:00066318       ?ProcessMessageFilter@CWinThread@@UAEHHPAUtagMSG@@@Z 00467318 f   mfc140d:mfc140d.dll
 0001:0006631e       ?GetMainWnd@CWinThread@@UAEPAVCWnd@@XZ 0046731e f   mfc140d:mfc140d.dll
 0001:00066324       ?Delete@CWinThread@@UAEXXZ 00467324 f   mfc140d:mfc140d.dll
 0001:0006632a       ?GetRuntimeClass@CWinApp@@UBEPAUCRuntimeClass@@XZ 0046732a f   mfc140d:mfc140d.dll
 0001:00066330       ??0CWinApp@@QAE@PBD@Z      00467330 f   mfc140d:mfc140d.dll
 0001:00066336       ?SetRegistryKey@CWinApp@@IAEXPBD@Z 00467336 f   mfc140d:mfc140d.dll
 0001:0006633c       ?GetProfileIntA@CWinApp@@UAEIPBD0H@Z 0046733c f   mfc140d:mfc140d.dll
 0001:00066342       ?WriteProfileInt@CWinApp@@UAEHPBD0H@Z 00467342 f   mfc140d:mfc140d.dll
 0001:00066348       ?GetProfileStringA@CWinApp@@UAE?AV?$CStringT@DV?$StrTraitMFC_DLL@DV?$ChTraitsCRT@D@ATL@@@@@ATL@@PBD00@Z 00467348 f   mfc140d:mfc140d.dll
 0001:0006634e       ?WriteProfileStringA@CWinApp@@UAEHPBD00@Z 0046734e f   mfc140d:mfc140d.dll
 0001:00066354       ?GetProfileBinary@CWinApp@@UAEHPBD0PAPAEPAI@Z 00467354 f   mfc140d:mfc140d.dll
 0001:0006635a       ?WriteProfileBinary@CWinApp@@UAEHPBD0PAEI@Z 0046735a f   mfc140d:mfc140d.dll
 0001:00066360       ?InitLibId@CWinApp@@UAEXXZ 00467360 f   mfc140d:mfc140d.dll
 0001:00066366       ?Register@CWinApp@@UAEHXZ  00467366 f   mfc140d:mfc140d.dll
 0001:0006636c       ?Unregister@CWinApp@@UAEHXZ 0046736c f   mfc140d:mfc140d.dll
 0001:00066372       ?OpenDocumentFile@CWinApp@@UAEPAVCDocument@@PBD@Z 00467372 f   mfc140d:mfc140d.dll
 0001:00066378       ?OpenDocumentFile@CWinApp@@UAEPAVCDocument@@PBDH@Z 00467378 f   mfc140d:mfc140d.dll
 0001:0006637e       ?AddToRecentFileList@CWinApp@@UAEXPBD@Z 0046737e f   mfc140d:mfc140d.dll
 0001:00066384       ?InitApplication@CWinApp@@UAEHXZ 00467384 f   mfc140d:mfc140d.dll
 0001:0006638a       ?SaveAllModified@CWinApp@@UAEHXZ 0046738a f   mfc140d:mfc140d.dll
 0001:00066390       ?DoMessageBox@CWinApp@@UAEHPBDII@Z 00467390 f   mfc140d:mfc140d.dll
 0001:00066396       ?DoWaitCursor@CWinApp@@UAEXH@Z 00467396 f   mfc140d:mfc140d.dll
 0001:0006639c       ?OnDDECommand@CWinApp@@UAEHPAD@Z 0046739c f   mfc140d:mfc140d.dll
 0001:000663a2       ?WinHelpA@CWinApp@@UAEXKI@Z 004673a2 f   mfc140d:mfc140d.dll
 0001:000663a8       ?HtmlHelpA@CWinApp@@UAEXKI@Z 004673a8 f   mfc140d:mfc140d.dll
 0001:000663ae       ?WinHelpInternal@CWinApp@@UAEXKI@Z 004673ae f   mfc140d:mfc140d.dll
 0001:000663b4       ?RegisterWithRestartManager@CWinApp@@UAEJHABV?$CStringT@DV?$StrTraitMFC_DLL@DV?$ChTraitsCRT@D@ATL@@@@@ATL@@@Z 004673b4 f   mfc140d:mfc140d.dll
 0001:000663ba       ?RegisterWithRestartManager@CWinApp@@UAEJPB_WKP6GKPAX@Z1KK@Z 004673ba f   mfc140d:mfc140d.dll
 0001:000663c0       ?ApplicationRecoveryCallback@CWinApp@@UAEKPAX@Z 004673c0 f   mfc140d:mfc140d.dll
 0001:000663c6       ?GetDataRecoveryHandler@CWinApp@@UAEPAVCDataRecoveryHandler@@XZ 004673c6 f   mfc140d:mfc140d.dll
 0001:000663cc       ?IsTaskbarInteractionEnabled@CWinApp@@UAEHXZ 004673cc f   mfc140d:mfc140d.dll
 0001:000663d2       ?InitInstance@CWinApp@@UAEHXZ 004673d2 f   mfc140d:mfc140d.dll
 0001:000663d8       ?ExitInstance@CWinApp@@UAEHXZ 004673d8 f   mfc140d:mfc140d.dll
 0001:000663de       ?RestartInstance@CWinApp@@UAEHXZ 004673de f   mfc140d:mfc140d.dll
 0001:000663e4       ?Run@CWinApp@@UAEHXZ       004673e4 f   mfc140d:mfc140d.dll
 0001:000663ea       ?OnIdle@CWinApp@@UAEHJ@Z   004673ea f   mfc140d:mfc140d.dll
 0001:000663f0       ?ProcessWndProcException@CWinApp@@UAEJPAVCException@@PBUtagMSG@@@Z 004673f0 f   mfc140d:mfc140d.dll
 0001:000663f6       ?LoadAppLangResourceDLL@CWinApp@@UAEPAUHINSTANCE__@@XZ 004673f6 f   mfc140d:mfc140d.dll
 0001:000663fc       ??1CWinApp@@UAE@XZ         004673fc f   mfc140d:mfc140d.dll
 0001:00066402       ?AssertValid@CWinApp@@UBEXXZ 00467402 f   mfc140d:mfc140d.dll
 0001:00066408       ?Dump@CWinApp@@UBEXAAVCDumpContext@@@Z 00467408 f   mfc140d:mfc140d.dll
 0001:0006640e       ?LoadSysPolicies@CWinApp@@UAEHXZ 0046740e f   mfc140d:mfc140d.dll
 0001:00066414       ?AfxMessageBox@@YGHIII@Z   00467414 f   mfc140d:mfc140d.dll
 0001:0006641a       ?AfxEnableControlContainer@@YAXPAVCOccManager@@@Z 0046741a f   mfc140d:mfc140d.dll
 0001:00066420       ??0CShellManager@@QAE@XZ   00467420 f   mfc140d:mfc140d.dll
 0001:00066426       ??0CFile@@QAE@PBDI@Z       00467426 f   mfc140d:mfc140d.dll
 0001:0006642c       ?SetLength@CFile@@UAEX_K@Z 0046742c f   mfc140d:mfc140d.dll
 0001:00066432       ?Write@CFile@@UAEXPBXI@Z   00467432 f   mfc140d:mfc140d.dll
 0001:00066438       ?Close@CFile@@UAEXXZ       00467438 f   mfc140d:mfc140d.dll
 0001:0006643e       ??1CFile@@UAE@XZ           0046743e f   mfc140d:mfc140d.dll
 0001:00066444       ?GetSafeHdc@CDC@@QBEPAUHDC__@@XZ 00467444 f   mfc140d:mfc140d.dll
 0001:0006644a       ?DrawIcon@CDC@@QAEHHHPAUHICON__@@@Z 0046744a f   mfc140d:mfc140d.dll
 0001:00066450       ??0CPaintDC@@QAE@PAVCWnd@@@Z 00467450 f   mfc140d:mfc140d.dll
 0001:00066456       ??1CPaintDC@@UAE@XZ        00467456 f   mfc140d:mfc140d.dll
 0001:0006645c       ?SendMessageA@CWnd@@QBEJIIJ@Z 0046745c f   mfc140d:mfc140d.dll
 0001:00066462       ?IsIconic@CWnd@@QBEHXZ     00467462 f   mfc140d:mfc140d.dll
 0001:00066468       ?EnableWindow@CWnd@@QAEHH@Z 00467468 f   mfc140d:mfc140d.dll
 0001:0006646e       ?MessageBoxA@CWnd@@QAEHPBD0I@Z 0046746e f   mfc140d:mfc140d.dll
 0001:00066474       ?SetIcon@CWnd@@QAEPAUHICON__@@PAU2@H@Z 00467474 f   mfc140d:mfc140d.dll
 0001:0006647a       ?OnPaint@CDialog@@IAEXXZ   0046747a f   mfc140d:mfc140d.dll
 0001:00066480       ?ResetContent@CComboBox@@QAEXXZ 00467480 f   mfc140d:mfc140d.dll
 0001:00066486       ?AfxGetApp@@YGPAVCWinApp@@XZ 00467486 f   mfc140d:mfc140d.dll
 0001:0006648c       ?LoadIconA@CWinApp@@QBEPAUHICON__@@I@Z 0046748c f   mfc140d:mfc140d.dll
 0001:00066492       ??0CFileDialog@@QAE@HPBD0K0PAVCWnd@@KH@Z 00467492 f   mfc140d:mfc140d.dll
 0001:00066498       ??1CFileDialog@@UAE@XZ     00467498 f   mfc140d:mfc140d.dll
 0001:0006649e       ?DoModal@CFileDialog@@UAEHXZ 0046749e f   mfc140d:mfc140d.dll
 0001:000664a4       ?GetPathName@CFileDialog@@QBE?AV?$CStringT@DV?$StrTraitMFC_DLL@DV?$ChTraitsCRT@D@ATL@@@@@ATL@@XZ 004674a4 f   mfc140d:mfc140d.dll
 0001:000664aa       ?Create@CStatusBarCtrl@@QAEHKABUtagRECT@@PAVCWnd@@I@Z 004674aa f   mfc140d:mfc140d.dll
 0001:000664b0       ?GetThisClass@CComboBoxEx@@SGPAUCRuntimeClass@@XZ 004674b0 f   mfc140d:mfc140d.dll
 0001:000664b6       ??0CMFCButton@@QAE@XZ      004674b6 f   mfc140d:mfc140d.dll
 0001:000664bc       ??1CMFCButton@@UAE@XZ      004674bc f   mfc140d:mfc140d.dll
 0001:000664c2       ?GetRuntimeClass@CDialogEx@@UBEPAUCRuntimeClass@@XZ 004674c2 f   mfc140d:mfc140d.dll
 0001:000664c8       ?StringLength@?$CSimpleStringT@D$00@ATL@@SAHPBD@Z 004674c8 f   mfc140d:mfc140d.dll
 0001:000664ce       ?Concatenate@?$CSimpleStringT@D$00@ATL@@KAXAAV12@PBDH1H@Z 004674ce f   mfc140d:mfc140d.dll
 0001:000664d4       ??0?$CStringT@DV?$StrTraitMFC_DLL@DV?$ChTraitsCRT@D@ATL@@@@@ATL@@QAE@PAUIAtlStringMgr@1@@Z 004674d4 f   mfc140d:mfc140d.dll
 0001:000664da       ??0?$CStringT@DV?$StrTraitMFC_DLL@DV?$ChTraitsCRT@D@ATL@@@@@ATL@@QAE@ABV01@@Z 004674da f   mfc140d:mfc140d.dll
 0001:000664e0       ??0?$CStringT@DV?$StrTraitMFC_DLL@DV?$ChTraitsCRT@D@ATL@@@@@ATL@@QAE@PBD@Z 004674e0 f   mfc140d:mfc140d.dll
 0001:000664e6       ?GetManager@?$CStringT@DV?$StrTraitMFC_DLL@DV?$ChTraitsCRT@D@ATL@@@@@ATL@@QBEPAUIAtlStringMgr@2@XZ 004674e6 f   mfc140d:mfc140d.dll
 0001:000664ec       ?DDX_Text@@YGXPAVCDataExchange@@HAAV?$CStringT@DV?$StrTraitMFC_DLL@DV?$ChTraitsCRT@D@ATL@@@@@ATL@@@Z 004674ec f   mfc140d:mfc140d.dll
 0001:000664f2       ?IsWindowEnabled@CWnd@@QBEHXZ 004674f2 f   mfc140d:mfc140d.dll
 0001:000664f8       ?UpdateData@CWnd@@QAEHH@Z  004674f8 f   mfc140d:mfc140d.dll
 0001:000664fe       ?GetThisMessageMap@CCmdTarget@@KGPBUAFX_MSGMAP@@XZ 004674fe f   mfc140d:mfc140d.dll
 0001:00066504       ?GetThisClass@CWinThread@@SGPAUCRuntimeClass@@XZ 00467504 f   mfc140d:mfc140d.dll
 0001:0006650a       ??0CWinThread@@QAE@XZ      0046750a f   mfc140d:mfc140d.dll
 0001:00066510       ?CreateThread@CWinThread@@QAEHKIPAU_SECURITY_ATTRIBUTES@@@Z 00467510 f   mfc140d:mfc140d.dll
 0001:00066516       ?Run@CWinThread@@UAEHXZ    00467516 f   mfc140d:mfc140d.dll
 0001:0006651c       ?OnIdle@CWinThread@@UAEHJ@Z 0046751c f   mfc140d:mfc140d.dll
 0001:00066522       ?ExitInstance@CWinThread@@UAEHXZ 00467522 f   mfc140d:mfc140d.dll
 0001:00066528       ?ProcessWndProcException@CWinThread@@UAEJPAVCException@@PBUtagMSG@@@Z 00467528 f   mfc140d:mfc140d.dll
 0001:0006652e       ??1CWinThread@@UAE@XZ      0046752e f   mfc140d:mfc140d.dll
 0001:00066534       ?AssertValid@CWinThread@@UBEXXZ 00467534 f   mfc140d:mfc140d.dll
 0001:0006653a       ?Dump@CWinThread@@UBEXAAVCDumpContext@@@Z 0046753a f   mfc140d:mfc140d.dll
 0001:00066540       ?MoveWindow@CWnd@@QAEXPBUtagRECT@@H@Z 00467540 f   mfc140d:mfc140d.dll
 0001:00066546       ?ScreenToClient@CWnd@@QBEXPAUtagRECT@@@Z 00467546 f   mfc140d:mfc140d.dll
 0001:0006654c       ?OnSize@CWnd@@IAEXIHH@Z    0046754c f   mfc140d:mfc140d.dll
 0001:00066560       ??1CComBSTR@ATL@@QAE@XZ    00467560 f i mfcs140d:nolib.obj
 0001:000665a0       ??1stringdispid@CComTypeInfoHolder@ATL@@QAE@XZ 004675a0 f i mfcs140d:nolib.obj
 0001:000665d0       ??_Estringdispid@CComTypeInfoHolder@ATL@@QAEPAXI@Z 004675d0 f i mfcs140d:nolib.obj
 0001:000666b0       _IsolationAwareActivateActCtx@8 004676b0 f i mfcs140d:nolib.obj
 0001:00066760       _IsolationAwareCreateActCtxW@4 00467760 f i mfcs140d:nolib.obj
 0001:00066810       _IsolationAwareDeactivateActCtx@8 00467810 f i mfcs140d:nolib.obj
 0001:000668c0       _IsolationAwareFindActCtxSectionStringW@20 004678c0 f i mfcs140d:nolib.obj
 0001:00066980       _IsolationAwarePrivatenPgViNgRzlnPgpgk@4 00467980 f i mfcs140d:nolib.obj
 0001:00066a90       _IsolationAwarePrivatezltRgCebPnQQeRff@12 00467a90 f i mfcs140d:nolib.obj
 0001:00066b50       _IsolationAwarePrivatezltRgzbQhYRuNaQYRJ@4 00467b50 f i mfcs140d:nolib.obj
 0001:00066b80       _IsolationAwarePrivatezltRgzbQhYRuNaQYRn@4 00467b80 f i mfcs140d:nolib.obj
 0001:00066bb0       _IsolationAwareQueryActCtxW@28 00467bb0 f i mfcs140d:nolib.obj
 0001:00066c80       _IsolationAwareUnregisterClassA@8 00467c80 f i mfcs140d:nolib.obj
 0001:00066e80       _WinbaseIsolationAwarePrivatetRgCebPnQQeRff_xReaRYQP_QYY@4 00467e80 f i mfcs140d:nolib.obj
 0001:00066eb0       _WinbaseIsolationAwarePrivatetRgzlnPgpgk@0 00467eb0 f i mfcs140d:nolib.obj
 0001:000672f0       ?AfxSocketInit@@YGHPAUWSAData@@@Z 004682f0 f   mfcs140d:sockexp.obj
 0001:00067320       ?AfxAssertFailedLine@@YGHPBDH@Z 00468320 f i mfcs140d:appmodul.obj
 0001:00067400       ?AfxInitialize@@YGHHK@Z    00468400 f   mfcs140d:appmodul.obj
 0001:00067490       _WinMain@16                00468490 f   mfcs140d:appmodul.obj
 0001:000674bc       _GetModuleFileNameA@12     004684bc f   kernel32:KERNEL32.dll
 0001:000674c2       _GetPrivateProfileIntA@16  004684c2 f   kernel32:KERNEL32.dll
 0001:000674c8       _GetPrivateProfileStringA@24 004684c8 f   kernel32:KERNEL32.dll
 0001:000674ce       _GetStdHandle@4            004684ce f   kernel32:KERNEL32.dll
 0001:000674d4       _CreateDirectoryA@8        004684d4 f   kernel32:KERNEL32.dll
 0001:000674da       _OutputDebugStringA@4      004684da f   kernel32:KERNEL32.dll
 0001:000674e0       _CloseHandle@4             004684e0 f   kernel32:KERNEL32.dll
 0001:000674e6       _InitializeCriticalSection@4 004684e6 f   kernel32:KERNEL32.dll
 0001:000674ec       _EnterCriticalSection@4    004684ec f   kernel32:KERNEL32.dll
 0001:000674f2       _LeaveCriticalSection@4    004684f2 f   kernel32:KERNEL32.dll
 0001:000674f8       _DeleteCriticalSection@4   004684f8 f   kernel32:KERNEL32.dll
 0001:000674fe       _ReleaseSemaphore@12       004684fe f   kernel32:KERNEL32.dll
 0001:00067504       _WaitForSingleObject@8     00468504 f   kernel32:KERNEL32.dll
 0001:0006750a       _Sleep@4                   0046850a f   kernel32:KERNEL32.dll
 0001:00067510       _GetCurrentProcessId@0     00468510 f   kernel32:KERNEL32.dll
 0001:00067516       _GetCurrentThreadId@0      00468516 f   kernel32:KERNEL32.dll
 0001:0006751c       _GetSystemTimeAsFileTime@4 0046851c f   kernel32:KERNEL32.dll
 0001:00067522       _CreateSemaphoreA@16       00468522 f   kernel32:KERNEL32.dll
 0001:00067528       _GetConsoleScreenBufferInfo@8 00468528 f   kernel32:KERNEL32.dll
 0001:0006752e       _SetConsoleTextAttribute@8 0046852e f   kernel32:KERNEL32.dll
 0001:00067534       _GetCurrentDirectoryA@8    00468534 f   kernel32:KERNEL32.dll
 0001:0006753a       _CreateFileA@28            0046853a f   kernel32:KERNEL32.dll
 0001:00067540       _SetUnhandledExceptionFilter@4 00468540 f   kernel32:KERNEL32.dll
 0001:00067546       _GetCurrentProcess@0       00468546 f   kernel32:KERNEL32.dll
 0001:0006754c       _GetLocalTime@4            0046854c f   kernel32:KERNEL32.dll
 0001:00067552       _FatalAppExitA@8           00468552 f   kernel32:KERNEL32.dll
 0001:00067558       _DecodePointer@4           00468558 f   kernel32:KERNEL32.dll
 0001:0006755e       _RaiseException@16         0046855e f   kernel32:KERNEL32.dll
 0001:00067564       _GetLastError@0            00468564 f   kernel32:KERNEL32.dll
 0001:0006756a       _SetLastError@4            0046856a f   kernel32:KERNEL32.dll
 0001:00067570       _HeapDestroy@4             00468570 f   kernel32:KERNEL32.dll
 0001:00067576       _HeapAlloc@12              00468576 f   kernel32:KERNEL32.dll
 0001:0006757c       _HeapReAlloc@16            0046857c f   kernel32:KERNEL32.dll
 0001:00067582       _HeapFree@12               00468582 f   kernel32:KERNEL32.dll
 0001:00067588       _HeapSize@12               00468588 f   kernel32:KERNEL32.dll
 0001:0006758e       _GetProcessHeap@0          0046858e f   kernel32:KERNEL32.dll
 0001:00067594       _InitializeCriticalSectionEx@12 00468594 f   kernel32:KERNEL32.dll
 0001:0006759a       _MultiByteToWideChar@24    0046859a f   kernel32:KERNEL32.dll
 0001:000675a0       _UnhandledExceptionFilter@4 004685a0 f   kernel32:KERNEL32.dll
 0001:000675a6       _TerminateProcess@8        004685a6 f   kernel32:KERNEL32.dll
 0001:000675ac       _IsProcessorFeaturePresent@4 004685ac f   kernel32:KERNEL32.dll
 0001:000675b2       _SetEvent@4                004685b2 f   kernel32:KERNEL32.dll
 0001:000675b8       _ResetEvent@4              004685b8 f   kernel32:KERNEL32.dll
 0001:000675be       _WaitForSingleObjectEx@12  004685be f   kernel32:KERNEL32.dll
 0001:000675c4       _CreateEventW@16           004685c4 f   kernel32:KERNEL32.dll
 0001:000675ca       _GetModuleHandleW@4        004685ca f   kernel32:KERNEL32.dll
 0001:000675d0       _GetProcAddress@8          004685d0 f   kernel32:KERNEL32.dll
 0001:000675d6       _IsDebuggerPresent@0       004685d6 f   kernel32:KERNEL32.dll
 0001:000675dc       _WideCharToMultiByte@32    004685dc f   kernel32:KERNEL32.dll
 0001:000675e2       _GetStartupInfoW@4         004685e2 f   kernel32:KERNEL32.dll
 0001:000675e8       _QueryPerformanceCounter@4 004685e8 f   kernel32:KERNEL32.dll
 0001:000675ee       _InitializeSListHead@4     004685ee f   kernel32:KERNEL32.dll
 0001:000675f4       _VirtualQuery@12           004685f4 f   kernel32:KERNEL32.dll
 0001:000675fa       _FreeLibrary@4             004685fa f   kernel32:KERNEL32.dll
 0001:00067600       _InitializeCriticalSectionAndSpinCount@8 00468600 f   kernel32:KERNEL32.dll
 0001:00067606       _GetModuleFileNameW@12     00468606 f   kernel32:KERNEL32.dll
 0001:0006760c       _GetModuleHandleA@4        0046860c f   kernel32:KERNEL32.dll
 0001:00067612       _LoadLibraryW@4            00468612 f   kernel32:KERNEL32.dll
 0001:00067618       _DeleteDC@4                00468618 f   gdi32:GDI32.dll
 0001:0006761e       _InitCommonControlsEx@4    0046861e f   comctl32:COMCTL32.dll
 0001:00067624       ??$?2PAUHINSTANCE__@@@Wrapper@?$CSimpleArray@PAUHINSTANCE__@@V?$CSimpleArrayEqualHelper@PAUHINSTANCE__@@@ATL@@@ATL@@SAPAXIPAPAUHINSTANCE__@@@Z 00468624 f i atls:atlbase.obj
 0001:0006762e       ??0?$CComCritSecLock@VCComCriticalSection@ATL@@@ATL@@QAE@AAVCComCriticalSection@1@_N@Z 0046862e f i atls:atlbase.obj
 0001:0006765e       ??0?$CSimpleArray@PAUHINSTANCE__@@V?$CSimpleArrayEqualHelper@PAUHINSTANCE__@@@ATL@@@ATL@@QAE@XZ 0046865e f i atls:atlbase.obj
 0001:0006766e       ??0CAtlBaseModule@ATL@@QAE@XZ 0046866e f   atls:atlbase.obj
 0001:000676d5       ??0Wrapper@?$CSimpleArray@PAUHINSTANCE__@@V?$CSimpleArrayEqualHelper@PAUHINSTANCE__@@@ATL@@@ATL@@QAE@ABQAUHINSTANCE__@@@Z 004686d5 f i atls:atlbase.obj
 0001:000676e9       ??0_ATL_BASE_MODULE70@ATL@@QAE@XZ 004686e9 f i atls:atlbase.obj
 0001:00067714       ??1?$CComCritSecLock@VCComCriticalSection@ATL@@@ATL@@QAE@XZ 00468714 f i atls:atlbase.obj
 0001:00067730       ??1?$CSimpleArray@PAUHINSTANCE__@@V?$CSimpleArrayEqualHelper@PAUHINSTANCE__@@@ATL@@@ATL@@QAE@XZ 00468730 f i atls:atlbase.obj
 0001:00067735       ??1CAtlBaseModule@ATL@@QAE@XZ 00468735 f   atls:atlbase.obj
 0001:00067750       ??1_ATL_BASE_MODULE70@ATL@@QAE@XZ 00468750 f i atls:atlbase.obj
 0001:0006775a       ??A?$CSimpleArray@PAUHINSTANCE__@@V?$CSimpleArrayEqualHelper@PAUHINSTANCE__@@@ATL@@@ATL@@QAEAAPAUHINSTANCE__@@H@Z 0046875a f i atls:atlbase.obj
 0001:0006778e       ?Add@?$CSimpleArray@PAUHINSTANCE__@@V?$CSimpleArrayEqualHelper@PAUHINSTANCE__@@@ATL@@@ATL@@QAEHABQAUHINSTANCE__@@@Z 0046878e f i atls:atlbase.obj
 0001:00067824       ?AddResourceInstance@CAtlBaseModule@ATL@@QAE_NPAUHINSTANCE__@@@Z 00468824 f   atls:atlbase.obj
 0001:00067863       ?AtlCrtErrorCheck@ATL@@YAHH@Z 00468863 f i atls:atlbase.obj
 0001:000678ac       ?AtlThrowImpl@ATL@@YGXJ@Z  004688ac f i atls:atlbase.obj
 0001:000678db       ?GetHInstanceAt@CAtlBaseModule@ATL@@QAEPAUHINSTANCE__@@H@Z 004688db f   atls:atlbase.obj
 0001:00067931       ?GetSize@?$CSimpleArray@PAUHINSTANCE__@@V?$CSimpleArrayEqualHelper@PAUHINSTANCE__@@@ATL@@@ATL@@QBEHXZ 00468931 f i atls:atlbase.obj
 0001:00067935       ?InternalSetAtIndex@?$CSimpleArray@PAUHINSTANCE__@@V?$CSimpleArrayEqualHelper@PAUHINSTANCE__@@@ATL@@@ATL@@QAEXHABQAUHINSTANCE__@@@Z 00468935 f i atls:atlbase.obj
 0001:00067955       ?Lock@?$CComCritSecLock@VCComCriticalSection@ATL@@@ATL@@QAEJXZ 00468955 f i atls:atlbase.obj
 0001:0006796c       ?Lock@CComCriticalSection@ATL@@QAEJXZ 0046896c f i atls:atlbase.obj
 0001:00067978       ?RemoveAll@?$CSimpleArray@PAUHINSTANCE__@@V?$CSimpleArrayEqualHelper@PAUHINSTANCE__@@@ATL@@@ATL@@QAEXXZ 00468978 f i atls:atlbase.obj
 0001:0006799c       ?RemoveAt@?$CSimpleArray@PAUHINSTANCE__@@V?$CSimpleArrayEqualHelper@PAUHINSTANCE__@@@ATL@@@ATL@@QAEHH@Z 0046899c f i atls:atlbase.obj
 0001:000679f6       ?RemoveResourceInstance@CAtlBaseModule@ATL@@QAE_NPAUHINSTANCE__@@@Z 004689f6 f   atls:atlbase.obj
 0001:00067a6c       ?Unlock@?$CComCritSecLock@VCComCriticalSection@ATL@@@ATL@@QAEXXZ 00468a6c f i atls:atlbase.obj
 0001:00067a81       ?Unlock@CComCriticalSection@ATL@@QAEJXZ 00468a81 f i atls:atlbase.obj
 0001:00067a8d       ?memmove_s@Checked@ATL@@YAXPAXIPBXI@Z 00468a8d f i atls:atlbase.obj
 0001:00067b51       ??0?$CTraceCategoryEx@$00$0A@@ATL@@QAE@PB_W@Z 00468b51 f i atls:stdafx.obj
 0001:00067b56       ??0?$CTraceCategoryEx@$01$0A@@ATL@@QAE@PB_W@Z 00468b56 f i atls:stdafx.obj
 0001:00067b5b       ??0?$CTraceCategoryEx@$03$0A@@ATL@@QAE@PB_W@Z 00468b5b f i atls:stdafx.obj
 0001:00067b60       ??0?$CTraceCategoryEx@$07$0A@@ATL@@QAE@PB_W@Z 00468b60 f i atls:stdafx.obj
 0001:00067b65       ??0?$CTraceCategoryEx@$0BA@$0A@@ATL@@QAE@PB_W@Z 00468b65 f i atls:stdafx.obj
 0001:00067b6a       ??0?$CTraceCategoryEx@$0BAA@$0A@@ATL@@QAE@PB_W@Z 00468b6a f i atls:stdafx.obj
 0001:00067b6f       ??0?$CTraceCategoryEx@$0BAAA@$0A@@ATL@@QAE@PB_W@Z 00468b6f f i atls:stdafx.obj
 0001:00067b74       ??0?$CTraceCategoryEx@$0BAAAA@$0A@@ATL@@QAE@PB_W@Z 00468b74 f i atls:stdafx.obj
 0001:00067b79       ??0?$CTraceCategoryEx@$0BAAAAA@$0A@@ATL@@QAE@PB_W@Z 00468b79 f i atls:stdafx.obj
 0001:00067b7e       ??0?$CTraceCategoryEx@$0CA@$0A@@ATL@@QAE@PB_W@Z 00468b7e f i atls:stdafx.obj
 0001:00067b83       ??0?$CTraceCategoryEx@$0CAA@$0A@@ATL@@QAE@PB_W@Z 00468b83 f i atls:stdafx.obj
 0001:00067b88       ??0?$CTraceCategoryEx@$0CAAA@$0A@@ATL@@QAE@PB_W@Z 00468b88 f i atls:stdafx.obj
 0001:00067b8d       ??0?$CTraceCategoryEx@$0CAAAA@$0A@@ATL@@QAE@PB_W@Z 00468b8d f i atls:stdafx.obj
 0001:00067b92       ??0?$CTraceCategoryEx@$0CAAAAA@$0A@@ATL@@QAE@PB_W@Z 00468b92 f i atls:stdafx.obj
 0001:00067b97       ??0?$CTraceCategoryEx@$0EA@$0A@@ATL@@QAE@PB_W@Z 00468b97 f i atls:stdafx.obj
 0001:00067b9c       ??0?$CTraceCategoryEx@$0EAA@$0A@@ATL@@QAE@PB_W@Z 00468b9c f i atls:stdafx.obj
 0001:00067ba1       ??0?$CTraceCategoryEx@$0EAAA@$0A@@ATL@@QAE@PB_W@Z 00468ba1 f i atls:stdafx.obj
 0001:00067ba6       ??0?$CTraceCategoryEx@$0EAAAA@$0A@@ATL@@QAE@PB_W@Z 00468ba6 f i atls:stdafx.obj
 0001:00067bab       ??0?$CTraceCategoryEx@$0EAAAAA@$0A@@ATL@@QAE@PB_W@Z 00468bab f i atls:stdafx.obj
 0001:00067bb0       ??0?$CTraceCategoryEx@$0IA@$0A@@ATL@@QAE@PB_W@Z 00468bb0 f i atls:stdafx.obj
 0001:00067bb5       ??0?$CTraceCategoryEx@$0IAA@$0A@@ATL@@QAE@PB_W@Z 00468bb5 f i atls:stdafx.obj
 0001:00067bba       ??0?$CTraceCategoryEx@$0IAAA@$0A@@ATL@@QAE@PB_W@Z 00468bba f i atls:stdafx.obj
 0001:00067bbf       ??0?$CTraceCategoryEx@$0IAAAA@$0A@@ATL@@QAE@PB_W@Z 00468bbf f i atls:stdafx.obj
 0001:00067bc4       ??_I@YGXPAXIIP6EX0@Z@Z     00468bc4 f i atls:stdafx.obj
 0001:00067bf8       _SysAllocString@4          00468bf8 f   oleaut32:OLEAUT32.dll
 0001:00067bfe       _SysFreeString@4           00468bfe f   oleaut32:OLEAUT32.dll
 0001:00067c04       _GdiplusShutdown@4         00468c04 f   gdiplus:gdiplus.dll
 0001:00067c10       ??$__vcrt_va_start_verify_argument_type@G@@YGXXZ 00468c10 f i comsuppwd:comsupp.obj
 0001:00067c20       ??$__vcrt_va_start_verify_argument_type@PB_W@@YGXXZ 00468c20 f i comsuppwd:comsupp.obj
 0001:00067c30       ?_com_dispatch_method@@YAJPAUIDispatch@@JGGPAXPB_WZZ 00468c30 f   comsuppwd:comsupp.obj
 0001:00067d30       ?_com_dispatch_propget@@YGJPAUIDispatch@@JGPAX@Z 00468d30 f   comsuppwd:comsupp.obj
 0001:00067d70       ?_com_dispatch_propput@@YAJPAUIDispatch@@JGZZ 00468d70 f   comsuppwd:comsupp.obj
 0001:00067ef0       ?_com_issue_error@@YGXJ@Z  00468ef0 f   comsuppwd:comsupp.obj
 0001:00067f40       ?_com_issue_errorex@@YGXJPAUIUnknown@@ABU_GUID@@@Z 00468f40 f   comsuppwd:comsupp.obj
 0001:000680f0       ?_set_com_error_handler@@YGXP6GXJPAUIErrorInfo@@@Z@Z 004690f0 f   comsuppwd:comsupp.obj
 0001:00068110       ??0_variant_t@@QAE@JG@Z    00469110 f i comsuppwd:comutil.obj
 0001:00068200       ??1_variant_t@@QAE@XZ      00469200 f i comsuppwd:comutil.obj
 0001:00068240       ?ConvertBSTRToString@_com_util@@YGPADPA_W@Z 00469240 f   comsuppwd:comutil.obj
 0001:00068430       ?ConvertStringToBSTR@_com_util@@YGPA_WPBD@Z 00469430 f   comsuppwd:comutil.obj
 0001:00068730       ?HRESULT_FROM_WIN32@@YGJK@Z 00469730 f i comsuppwd:comutil.obj
 0001:00068780       ??0_com_error@@QAE@ABV0@@Z 00469780 f i comsuppwd:comraise.obj
 0001:00068830       ??0_com_error@@QAE@JPAUIErrorInfo@@_N@Z 00469830 f i comsuppwd:comraise.obj
 0001:000688e0       ??1_com_error@@UAE@XZ      004698e0 f i comsuppwd:comraise.obj
 0001:00068990       ??_E_com_error@@UAEPAXI@Z  00469990 f i comsuppwd:comraise.obj
 0001:00068990       ??_G_com_error@@UAEPAXI@Z  00469990 f i comsuppwd:comraise.obj
 0001:000689e0       ?_com_raise_error@@YGXJPAUIErrorInfo@@@Z 004699e0 f   comsuppwd:comraise.obj
 0001:00068a40       ?_com_dispatch_raw_method@@YAJPAUIDispatch@@JGGPAXPB_WZZ 00469a40 f   comsuppwd:invkprxy.obj
 0001:00068b30       ?_com_dispatch_raw_propget@@YGJPAUIDispatch@@JGPAX@Z 00469b30 f   comsuppwd:invkprxy.obj
 0001:00068b70       ?_com_dispatch_raw_propput@@YAJPAUIDispatch@@JGZZ 00469b70 f   comsuppwd:invkprxy.obj
 0001:00068ce0       ?_com_invoke_helper@@YAJPAUIDispatch@@JGGPAXPB_WPADPAPAUIErrorInfo@@@Z 00469ce0 f   comsuppwd:invkprxy.obj
 0001:0006a140       ?WCodeToHRESULT@_com_error@@SGJG@Z 0046b140 f i comsuppwd:invkerr.obj
 0001:0006a190       ?_com_handle_excepinfo@@YGJAAUtagEXCEPINFO@@PAPAUIErrorInfo@@@Z 0046b190 f   comsuppwd:invkerr.obj
 0001:0006a4a8       _WSAStartup@8              0046b4a8 f   ws2_32:WS2_32.dll
 0001:0006a4ae       ?AddPatch@PEMake@@QAE_NPBEPBXII@Z 0046b4ae f   PELib:PELib.dll
 0001:0006a4b4       ?AddSectionToEnd@PEMake@@QAE_NPBEI@Z 0046b4b4 f   PELib:PELib.dll
 0001:0006a4ba       ?RvaToFoa@PEMake@@QAEII@Z  0046b4ba f   PELib:PELib.dll
 0001:0006a4c0       ??0PEMake@@QAE@XZ          0046b4c0 f   PELib:PELib.dll
 0001:0006a4c6       ??1PEMake@@UAE@XZ          0046b4c6 f   PELib:PELib.dll
 0001:0006a4cc       ?isAnalysised@PEMake@@QAE_NXZ 0046b4cc f   PELib:PELib.dll
 0001:0006a4d2       ?PELoadFile@PEMake@@QAE_NPBD0@Z 0046b4d2 f   PELib:PELib.dll
 0001:0006a4d8       ?PEUnload@PEMake@@QAEXXZ   0046b4d8 f   PELib:PELib.dll
 0001:0006a4de       ?CheckPESig@PEMake@@QAE_NXZ 0046b4de f   PELib:PELib.dll
 0001:0006a4e4       ?Analysis@PEMake@@QAE_NXZ  0046b4e4 f   PELib:PELib.dll
 0001:0006a4ea       ?SetAnalysised@PEMake@@QAEX_N@Z 0046b4ea f   PELib:PELib.dll
 0001:0006a4f0       ?ClsRelocDataDirectory@PEMake@@QAE_NXZ 0046b4f0 f   PELib:PELib.dll
 0001:0006a4f6       ?EncryptImportTable@PEMake@@QAE_NXZ 0046b4f6 f   PELib:PELib.dll
 0001:0006a4fc       ?FoaToRva@PEMake@@QAEII@Z  0046b4fc f   PELib:PELib.dll
 0001:0006a502       _HESpecifySettings@4       0046b502 f   16Edit:16Edit.DLL
 0001:0006a508       _HEEnterWindowLoop@0       0046b508 f   16Edit:16Edit.DLL
 0001:0006a50e       _memset                    0046b50e f   vcruntimed:VCRUNTIME140D.dll
 0001:0006a514       _memcpy                    0046b514 f   vcruntimed:VCRUNTIME140D.dll
 0001:0006a51a       _strrchr                   0046b51a f   vcruntimed:VCRUNTIME140D.dll
 0001:0006a520       ___CxxFrameHandler3        0046b520 f   vcruntimed:VCRUNTIME140D.dll
 0001:0006a526       __purecall                 0046b526 f   vcruntimed:VCRUNTIME140D.dll
 0001:0006a52c       _memchr                    0046b52c f   vcruntimed:VCRUNTIME140D.dll
 0001:0006a532       _memcmp                    0046b532 f   vcruntimed:VCRUNTIME140D.dll
 0001:0006a538       _memmove                   0046b538 f   vcruntimed:VCRUNTIME140D.dll
 0001:0006a53e       __CxxThrowException@8      0046b53e f   vcruntimed:VCRUNTIME140D.dll
 0001:0006a544       ___RTDynamicCast           0046b544 f   vcruntimed:VCRUNTIME140D.dll
 0001:0006a54a       ___vcrt_InitializeCriticalSectionEx 0046b54a f   vcruntimed:VCRUNTIME140D.dll
 0001:0006a550       __except_handler4_common   0046b550 f   vcruntimed:VCRUNTIME140D.dll
 0001:0006a556       ___std_exception_copy      0046b556 f   vcruntimed:VCRUNTIME140D.dll
 0001:0006a55c       ___std_exception_destroy   0046b55c f   vcruntimed:VCRUNTIME140D.dll
 0001:0006a562       ___std_type_info_destroy_list 0046b562 f   vcruntimed:VCRUNTIME140D.dll
 0001:0006a568       ___vcrt_GetModuleFileNameW 0046b568 f   vcruntimed:VCRUNTIME140D.dll
 0001:0006a56e       ___vcrt_GetModuleHandleW   0046b56e f   vcruntimed:VCRUNTIME140D.dll
 0001:0006a574       ___vcrt_LoadLibraryExW     0046b574 f   vcruntimed:VCRUNTIME140D.dll
 0001:0006a57a       ___stdio_common_vsprintf   0046b57a f   ucrtd:ucrtbased.dll
 0001:0006a580       _isalpha                   0046b580 f   ucrtd:ucrtbased.dll
 0001:0006a586       _isdigit                   0046b586 f   ucrtd:ucrtbased.dll
 0001:0006a58c       _isxdigit                  0046b58c f   ucrtd:ucrtbased.dll
 0001:0006a592       _isalnum                   0046b592 f   ucrtd:ucrtbased.dll
 0001:0006a598       _toupper                   0046b598 f   ucrtd:ucrtbased.dll
 0001:0006a59e       _strcmp                    0046b59e f   ucrtd:ucrtbased.dll
 0001:0006a5a4       _strcpy                    0046b5a4 f   ucrtd:ucrtbased.dll
 0001:0006a5aa       _strlen                    0046b5aa f   ucrtd:ucrtbased.dll
 0001:0006a5b0       __strupr_s                 0046b5b0 f   ucrtd:ucrtbased.dll
 0001:0006a5b6       _pow                       0046b5b6 f   ucrtd:ucrtbased.dll
 0001:0006a5bc       _strcat                    0046b5bc f   ucrtd:ucrtbased.dll
 0001:0006a5c2       ___stdio_common_vsprintf_s 0046b5c2 f   ucrtd:ucrtbased.dll
 0001:0006a5c8       __invalid_parameter        0046b5c8 f   ucrtd:ucrtbased.dll
 0001:0006a5ce       _isprint                   0046b5ce f   ucrtd:ucrtbased.dll
 0001:0006a5d4       __CrtDbgReportW            0046b5d4 f   ucrtd:ucrtbased.dll
 0001:0006a5da       _free                      0046b5da f   ucrtd:ucrtbased.dll
 0001:0006a5e0       _malloc                    0046b5e0 f   ucrtd:ucrtbased.dll
 0001:0006a5e6       _rand                      0046b5e6 f   ucrtd:ucrtbased.dll
 0001:0006a5ec       _atoi                      0046b5ec f   ucrtd:ucrtbased.dll
 0001:0006a5f2       ___acrt_iob_func           0046b5f2 f   ucrtd:ucrtbased.dll
 0001:0006a5f8       _fclose                    0046b5f8 f   ucrtd:ucrtbased.dll
 0001:0006a5fe       _fflush                    0046b5fe f   ucrtd:ucrtbased.dll
 0001:0006a604       _fopen                     0046b604 f   ucrtd:ucrtbased.dll
 0001:0006a60a       _fread                     0046b60a f   ucrtd:ucrtbased.dll
 0001:0006a610       _fseek                     0046b610 f   ucrtd:ucrtbased.dll
 0001:0006a616       _ftell                     0046b616 f   ucrtd:ucrtbased.dll
 0001:0006a61c       _fwrite                    0046b61c f   ucrtd:ucrtbased.dll
 0001:0006a622       _remove                    0046b622 f   ucrtd:ucrtbased.dll
 0001:0006a628       ___stdio_common_vfprintf   0046b628 f   ucrtd:ucrtbased.dll
 0001:0006a62e       _tolower                   0046b62e f   ucrtd:ucrtbased.dll
 0001:0006a634       __localtime64_s            0046b634 f   ucrtd:ucrtbased.dll
 0001:0006a63a       __mktime64                 0046b63a f   ucrtd:ucrtbased.dll
 0001:0006a640       __time64                   0046b640 f   ucrtd:ucrtbased.dll
 0001:0006a646       __beginthreadex            0046b646 f   ucrtd:ucrtbased.dll
 0001:0006a64c       _wcscpy_s                  0046b64c f   ucrtd:ucrtbased.dll
 0001:0006a652       ___stdio_common_vswprintf_s 0046b652 f   ucrtd:ucrtbased.dll
 0001:0006a658       __invalid_parameter_noinfo 0046b658 f   ucrtd:ucrtbased.dll
 0001:0006a65e       __errno                    0046b65e f   ucrtd:ucrtbased.dll
 0001:0006a664       _wcslen                    0046b664 f   ucrtd:ucrtbased.dll
 0001:0006a66a       ___stdio_common_vsnprintf_s 0046b66a f   ucrtd:ucrtbased.dll
 0001:0006a670       _setlocale                 0046b670 f   ucrtd:ucrtbased.dll
 0001:0006a676       __CrtDbgReport             0046b676 f   ucrtd:ucrtbased.dll
 0001:0006a67c       __free_dbg                 0046b67c f   ucrtd:ucrtbased.dll
 0001:0006a682       _terminate                 0046b682 f   ucrtd:ucrtbased.dll
 0001:0006a688       __callnewh                 0046b688 f   ucrtd:ucrtbased.dll
 0001:0006a68e       __seh_filter_dll           0046b68e f   ucrtd:ucrtbased.dll
 0001:0006a694       __configure_narrow_argv    0046b694 f   ucrtd:ucrtbased.dll
 0001:0006a69a       __initialize_narrow_environment 0046b69a f   ucrtd:ucrtbased.dll
 0001:0006a6a0       __initialize_onexit_table  0046b6a0 f   ucrtd:ucrtbased.dll
 0001:0006a6a6       __register_onexit_function 0046b6a6 f   ucrtd:ucrtbased.dll
 0001:0006a6ac       __execute_onexit_table     0046b6ac f   ucrtd:ucrtbased.dll
 0001:0006a6b2       __crt_atexit               0046b6b2 f   ucrtd:ucrtbased.dll
 0001:0006a6b8       __crt_at_quick_exit        0046b6b8 f   ucrtd:ucrtbased.dll
 0001:0006a6be       __cexit                    0046b6be f   ucrtd:ucrtbased.dll
 0001:0006a6c4       __seh_filter_exe           0046b6c4 f   ucrtd:ucrtbased.dll
 0001:0006a6ca       __set_app_type             0046b6ca f   ucrtd:ucrtbased.dll
 0001:0006a6d0       ___setusermatherr          0046b6d0 f   ucrtd:ucrtbased.dll
 0001:0006a6d6       __get_narrow_winmain_command_line 0046b6d6 f   ucrtd:ucrtbased.dll
 0001:0006a6dc       __initterm                 0046b6dc f   ucrtd:ucrtbased.dll
 0001:0006a6e2       __initterm_e               0046b6e2 f   ucrtd:ucrtbased.dll
 0001:0006a6e8       _exit                      0046b6e8 f   ucrtd:ucrtbased.dll
 0001:0006a6ee       __exit                     0046b6ee f   ucrtd:ucrtbased.dll
 0001:0006a6f4       __set_fmode                0046b6f4 f   ucrtd:ucrtbased.dll
 0001:0006a6fa       __c_exit                   0046b6fa f   ucrtd:ucrtbased.dll
 0001:0006a700       __register_thread_local_exe_atexit_callback 0046b700 f   ucrtd:ucrtbased.dll
 0001:0006a706       __configthreadlocale       0046b706 f   ucrtd:ucrtbased.dll
 0001:0006a70c       __set_new_mode             0046b70c f   ucrtd:ucrtbased.dll
 0001:0006a712       ___p__commode              0046b712 f   ucrtd:ucrtbased.dll
 0001:0006a718       __controlfp_s              0046b718 f   ucrtd:ucrtbased.dll
 0001:0006a71e       __wmakepath_s              0046b71e f   ucrtd:ucrtbased.dll
 0001:0006a724       __wsplitpath_s             0046b724 f   ucrtd:ucrtbased.dll
 0001:0006a72a       __strnicmp                 0046b72a f   ucrtd:ucrtbased.dll
 0001:0006a730       __strupr                   0046b730 f   ucrtd:ucrtbased.dll
 0001:0006a736       __memicmp                  0046b736 f   ucrtd:ucrtbased.dll
 0001:0006a73c       __strlwr                   0046b73c f   ucrtd:ucrtbased.dll
 0001:0006a742       __setmbcp                  0046b742 f   ucrtd:ucrtbased.dll
 0001:0006a748       __recalloc                 0046b748 f   ucrtd:ucrtbased.dll
 0001:0006a750       ??_V@YAXPAXI@Z             0046b750 f   MSVCRTD:delete_array_size.obj
 0001:0006a770       ??_U@YAPAXI@Z              0046b770 f   MSVCRTD:new_array.obj
 0001:0006a790       __alloca_probe_16          0046b790 f   MSVCRTD:alloca16.obj
 0001:0006a7a6       __alloca_probe_8           0046b7a6     MSVCRTD:alloca16.obj
 0001:0006a7c8       _PeekMessageA@20           0046b7c8 f   User32:USER32.dll
 0001:0006a7ce       _PostQuitMessage@4         0046b7ce f   User32:USER32.dll
 0001:0006a7d4       ?_AfxSocketInit@@YGHPAUWSAData@@@Z 0046b7d4 f   mfc140d:mfc140d.dll
 0001:0006a7da       ?AfxGetModuleState@@YGPAVAFX_MODULE_STATE@@XZ 0046b7da f   mfc140d:mfc140d.dll
 0001:0006a7e0       ?AfxWinMain@@YGHPAUHINSTANCE__@@0PADH@Z 0046b7e0 f   mfc140d:mfc140d.dll
 0001:0006a7e6       _OutputDebugStringW@4      0046b7e6 f   kernel32:KERNEL32.dll
 0001:0006a7ec       _LocalFree@4               0046b7ec f   kernel32:KERNEL32.dll
 0001:0006a7f2       _GetErrorInfo@8            0046b7f2 f   oleaut32:OLEAUT32.dll
 0001:0006a7f8       _VariantClear@4            0046b7f8 f   oleaut32:OLEAUT32.dll
 0001:0006a7fe       _VariantInit@4             0046b7fe f   oleaut32:OLEAUT32.dll
 0001:0006a804       _VariantChangeType@16      0046b804 f   oleaut32:OLEAUT32.dll
 0001:0006a80a       _SetErrorInfo@8            0046b80a f   oleaut32:OLEAUT32.dll
 0001:0006a810       _CreateErrorInfo@4         0046b810 f   oleaut32:OLEAUT32.dll
 0001:0006a820       ___scrt_stub_for_acrt_initialize 0046b820 f   MSVCRTD:ucrt_stubs.obj
 0001:0006a820       ___vcrt_initialize         0046b820 f   MSVCRTD:ucrt_stubs.obj
 0001:0006a820       ___acrt_initialize         0046b820 f   MSVCRTD:ucrt_stubs.obj
 0001:0006a830       ___vcrt_thread_attach      0046b830 f   MSVCRTD:ucrt_stubs.obj
 0001:0006a830       ___scrt_stub_for_acrt_thread_attach 0046b830 f   MSVCRTD:ucrt_stubs.obj
 0001:0006a830       ___acrt_thread_attach      0046b830 f   MSVCRTD:ucrt_stubs.obj
 0001:0006a840       ___vcrt_thread_detach      0046b840 f   MSVCRTD:ucrt_stubs.obj
 0001:0006a840       ___acrt_thread_detach      0046b840 f   MSVCRTD:ucrt_stubs.obj
 0001:0006a840       ___scrt_stub_for_acrt_thread_detach 0046b840 f   MSVCRTD:ucrt_stubs.obj
 0001:0006a850       ___scrt_stub_for_acrt_uninitialize 0046b850 f   MSVCRTD:ucrt_stubs.obj
 0001:0006a850       ___acrt_uninitialize       0046b850 f   MSVCRTD:ucrt_stubs.obj
 0001:0006a850       ___vcrt_uninitialize       0046b850 f   MSVCRTD:ucrt_stubs.obj
 0001:0006a860       ___vcrt_uninitialize_critical 0046b860 f   MSVCRTD:ucrt_stubs.obj
 0001:0006a860       ___scrt_stub_for_acrt_uninitialize_critical 0046b860 f   MSVCRTD:ucrt_stubs.obj
 0001:0006a860       ___acrt_uninitialize_critical 0046b860 f   MSVCRTD:ucrt_stubs.obj
 0001:0006a870       __is_c_termination_complete 0046b870 f   MSVCRTD:ucrt_stubs.obj
 0001:0006a870       ___scrt_stub_for_is_c_termination_complete 0046b870 f   MSVCRTD:ucrt_stubs.obj
 0001:00072660       ??__Fcache@?1??GetCDCCacheInstance@CImage@ATL@@CAPAVCDCCache@12@XZ@YAXXZ 00473660 f i GlobeVar.obj
 0001:000726b0       ??__FgdiPlus@?1??GetInitGDIPlusInstance@CImage@ATL@@CAPAVCInitGDIPlus@12@XZ@YAXXZ 004736b0 f i GlobeVar.obj
 0001:00072700       ??__FstrHeap@?1??GetInstance@CAtlStringMgr@ATL@@SAPAUIAtlStringMgr@2@XZ@YAXXZ 00473700 f i GlobeVar.obj
 0001:00072750       ??__FstrMgr@?1??GetInstance@CAtlStringMgr@ATL@@SAPAUIAtlStringMgr@2@XZ@YAXXZ 00473750 f i GlobeVar.obj
 0002:00000000       ___xc_a                    00475000     MSVCRTD:initializers.obj
 0002:000004a0       ___xc_z                    004754a0     MSVCRTD:initializers.obj
 0002:000005a4       ___xi_a                    004755a4     MSVCRTD:initializers.obj
 0002:000009b4       ___xi_z                    004759b4     MSVCRTD:initializers.obj
 0002:00000ab8       ___xl_a                    00475ab8     MSVCRTD:tlssup.obj
 0002:00000abc       ___xl_z                    00475abc     MSVCRTD:tlssup.obj
 0002:00000ac0       ___xp_a                    00475ac0     MSVCRTD:initializers.obj
 0002:00000bc4       ___xp_z                    00475bc4     MSVCRTD:initializers.obj
 0002:00000cc8       ___xt_a                    00475cc8     MSVCRTD:initializers.obj
 0002:00000dcc       ___xt_z                    00475dcc     MSVCRTD:initializers.obj
 0002:00000ed0       ?addr16@@3QBUt_addrdec@@B  00475ed0     asmserv.obj
 0002:00000f10       ?addr32@@3QBUt_addrdec@@B  00475f10     asmserv.obj
 0002:00000f50       ?cmddata@@3QBUt_cmddata@@B 00475f50     asmserv.obj
 0002:00003d18       ?vxdcmd@@3Ut_cmddata@@B    00478d18     asmserv.obj
 0002:00003d30       ?dangerous@@3QBUt_cmddata@@B 00478d30     asmserv.obj
 0002:00003d94       ??_C@_08JCHGJIAJ@?N?$NO?$LF?$LM?H?k?$LB?m?$AA@ 00478d94     PETOOLSDlg.obj
 0002:00003da8       ??_C@_01EANLCPLP@y?$AA@    00478da8     PETOOLSDlg.obj
 0002:00003dac       ??_C@_0P@ODHHCLFI@?G?k?O?H?$LH?V?N?vPE?N?D?$LM?$PO?$AA@ 00478dac     PETOOLSDlg.obj
 0002:00003dbc       ??_C@_04CIMGMMMG@text?$AA@ 00478dbc     PETOOLSDlg.obj
 0002:00003dd8       ??_C@_06LLEDLONC@?G?P?$LL?$LL?$DO?$DO?$AA@ 00478dd8     PETOOLSDlg.obj
 0002:00003de0       ??_C@_08NEEIFCHO@?A?m?$LE?f?$LD?I?$LJ?$KG?$AA@ 00478de0     PETOOLSDlg.obj
 0002:00003e00       ??_C@_04IBNHJNAL@?$LB?$KD?$LE?f?$AA@ 00478e00     PETOOLSDlg.obj
 0002:00003e14       ??_C@_0N@PMLKJFOO@?J?G?$LH?q?$LB?$KD?$LE?f?N?D?$LM?$PO?$AA@ 00478e14     PETOOLSDlg.obj
 0002:00003e24       ??_C@_0BP@JJONBLOI@?$LC?K?$LF?$KF?9?$LJ?$KG?D?$NM?9?$LF?$LM?H?k?$LB?m?$LM?S?C?$NM?3?$LM?S?C?$NM?$LD?I?$LJ?$KG?$CB?$AA@ 00478e24     PETOOLSDlg.obj
 0002:00003e44       ??_C@_0BE@JJLGEDAI@PeStruct?$LD?u?J?$LM?$LL?$KP?J?$KH?$LA?$NM?$CB?$AA@ 00478e44     PETOOLSDlg.obj
 0002:00003e58       ??_C@_0P@MMHHCCGM@?$LP?$KK?J?$LM?$LH?V?N?vPE?N?D?$LM?$PO?$AA@ 00478e58     PETOOLSDlg.obj
 0002:00003e68       ??_C@_0P@BPDPJEDG@PE?N?D?$LM?$PO?$LH?V?N?v?M?j?$LB?O?$AA@ 00478e68     PETOOLSDlg.obj
 0002:00003e78       ??_C@_0BH@PHMNNICG@?$LP?$KK?J?$LM?I?h?V?C?$LG?T?$LL?$LA?$LP?r?$LP?X?$LM?$PO?$LF?D?V?$LF?$AA@ 00478e78     PETOOLSDlg.obj
 0002:00003e90       ??_C@_0BB@BKKJHJE@?$LG?T?$LL?$LA?$LP?r?V?$LF?I?h?V?C?J?$KH?$LA?$NM?$AA@ 00478e90     PETOOLSDlg.obj
 0002:00003eb8       ??_C@_04EAELEMAG@?$LO?$KP?$LI?f?$AA@ 00478eb8     PETOOLSDlg.obj
 0002:00003ecc       ??_C@_01KDCPPGHE@r?$AA@    00478ecc     PETOOLSDlg.obj
 0002:00003ed0       ??_C@_03JACLIBNI@exe?$AA@  00478ed0     PETOOLSDlg.obj
 0002:00003efc       ??_C@_0L@LHADKNHM@PE?N?D?$LM?$PO?$LE?m?N?s?$AA@ 00478efc     PETOOLSDlg.obj
 0002:00003f18       ??_C@_0L@LMABDGAL@PE?$LH?V?N?v?J?$KH?$LA?$NM?$AA@ 00478f18     PETOOLSDlg.obj
 0002:00003f24       ??_C@_0BA@NAEFGFDP@?$LF?$LM?H?k?$LB?m?$LM?S?C?$NM?$LD?I?$LJ?$KG?$CB?$AA@ 00478f24     PETOOLSDlg.obj
 0002:00003f44       ??_C@_0BB@LKNJOAMB@?$LG?T?$LL?$LA?$LP?r?V?$LF?I?h?V?C?M?j?$LB?O?$AA@ 00478f44     PETOOLSDlg.obj
 0002:00003f58       ??_C@_06ICCHMNIM@0X?$CF04X?$AA@ 00478f58     PETOOLSDlg.obj
 0002:00003f84       ??_C@_0BP@JGJJJPFN@?$LC?K?$LF?$KF?9?$LJ?$KG?D?$NM?9?H?$KF?V?X?$LG?$KI?N?$LL?$LB?m?3?H?$KF?$LD?$PN?$LD?I?$LJ?$KG?$CB?$AA@ 00478f84     PETOOLSDlg.obj
 0002:000046f0       ??_C@_02CNCKMBBD@AL?$AA@   004796f0     asmserv.obj
 0002:000046f4       ??_C@_02COKOBFHN@CL?$AA@   004796f4     asmserv.obj
 0002:000046f8       ??_C@_02CLOBADPI@DL?$AA@   004796f8     asmserv.obj
 0002:000046fc       ??_C@_02CPGMHPEK@BL?$AA@   004796fc     asmserv.obj
 0002:00004700       ??_C@_02EJEGAEBH@AH?$AA@   00479700     asmserv.obj
 0002:00004704       ??_C@_02EKMCNAHJ@CH?$AA@   00479704     asmserv.obj
 0002:00004708       ??_C@_02EPINMGPM@DH?$AA@   00479708     asmserv.obj
 0002:0000470c       ??_C@_02ELAALKEO@BH?$AA@   0047970c     asmserv.obj
 0002:00004710       ??_C@_02HIBJGAMI@R8?$AA@   00479710     asmserv.obj
 0002:00004714       ??_C@_02DIEBGEG@AX?$AA@    00479714     asmserv.obj
 0002:00004718       ??_C@_02MCCI@CX?$AA@       00479718     asmserv.obj
 0002:0000471c       ??_C@_02FEPNEKN@DX?$AA@    0047971c     asmserv.obj
 0002:00004720       ??_C@_02BMCKIBP@BX?$AA@    00479720     asmserv.obj
 0002:00004724       ??_C@_02NEPPOLFA@SP?$AA@   00479724     asmserv.obj
 0002:00004728       ??_C@_02MJBLCCBH@BP?$AA@   00479728     asmserv.obj
 0002:0000472c       ??_C@_02EPPPECEI@SI?$AA@   0047972c     asmserv.obj
 0002:00004730       ??_C@_02FGJGPHLN@DI?$AA@   00479730     asmserv.obj
 0002:00004734       ??_C@_03BDAKPJBI@R16?$AA@  00479734     asmserv.obj
 0002:00004738       ??_C@_03HBELLIEH@EAX?$AA@  00479738     asmserv.obj
 0002:0000473c       ??_C@_03HCMPGMCJ@ECX?$AA@  0047973c     asmserv.obj
 0002:00004740       ??_C@_03HHIAHKKM@EDX?$AA@  00479740     asmserv.obj
 0002:00004744       ??_C@_03HDANAGBO@EBX?$AA@  00479744     asmserv.obj
 0002:00004748       ??_C@_03KGDAEFFB@ESP?$AA@  00479748     asmserv.obj
 0002:0000474c       ??_C@_03LLNEIMBG@EBP?$AA@  0047974c     asmserv.obj
 0002:00004750       ??_C@_03DNDAOMEJ@ESI?$AA@  00479750     asmserv.obj
 0002:00004754       ??_C@_03CEFJFJLM@EDI?$AA@  00479754     asmserv.obj
 0002:00004758       ??_C@_03HEOCOIHC@R32?$AA@  00479758     asmserv.obj
 0002:0000475c       ??_C@_02OHHJGHFB@ES?$AA@   0047975c     asmserv.obj
 0002:00004760       ??_C@_02ODPEBLOD@CS?$AA@   00479760     asmserv.obj
 0002:00004764       ??_C@_02PPNCLIJD@SS?$AA@   00479764     asmserv.obj
 0002:00004768       ??_C@_02OGLLANGG@DS?$AA@   00479768     asmserv.obj
 0002:0000476c       ??_C@_02OFDPNJAI@FS?$AA@   0047976c     asmserv.obj
 0002:00004770       ??_C@_02OEPNLDDP@GS?$AA@   00479770     asmserv.obj
 0002:00004774       ??_C@_04MHKPKEIP@SEG?$DP?$AA@ 00479774     asmserv.obj
 0002:0000477c       ??_C@_08KJDIOCD@?$CI0?9BYTE?$CJ?$AA@ 0047977c     asmserv.obj
 0002:00004788       ??_C@_04ELFAHOMP@BYTE?$AA@ 00479788     asmserv.obj
 0002:00004790       ??_C@_04ILLECDIN@WORD?$AA@ 00479790     asmserv.obj
 0002:00004798       ??_C@_08IEBMIJMA@?$CI3?9BYTE?$CJ?$AA@ 00479798     asmserv.obj
 0002:000047a4       ??_C@_05GIJNDNEJ@DWORD?$AA@ 004797a4     asmserv.obj
 0002:000047ac       ??_C@_08ECHDIAEH@?$CI5?9BYTE?$CJ?$AA@ 004797ac     asmserv.obj
 0002:000047b8       ??_C@_05CFFFJMEC@FWORD?$AA@ 004797b8     asmserv.obj
 0002:000047c0       ??_C@_08FGIHDK@?$CI7?9BYTE?$CJ?$AA@ 004797c0     asmserv.obj
 0002:000047cc       ??_C@_05DLIGKOGB@QWORD?$AA@ 004797cc     asmserv.obj
 0002:000047d4       ??_C@_08BFNMJFAI@?$CI9?9BYTE?$CJ?$AA@ 004797d4     asmserv.obj
 0002:000047e0       ??_C@_05KLKPGCJA@TBYTE?$AA@ 004797e0     asmserv.obj
 0002:000047e8       ??_C@_05DMLMDNKL@BX?$CLSI?$AA@ 004797e8     asmserv.obj
 0002:000047f0       ??_C@_05CFNFIIFO@BX?$CLDI?$AA@ 004797f0     asmserv.obj
 0002:000047f8       ??_C@_05MMMHGGK@BP?$CLSI?$AA@ 004797f8     asmserv.obj
 0002:00004800       ??_C@_05BFKFMDJP@BP?$CLDI?$AA@ 00479800     asmserv.obj
 0002:00004807       ??_C@_00CNPNBAHC@?$AA@     00479807     asmserv.obj
 0002:00004808       ??_C@_03LDPADADA@ST0?$AA@  00479808     asmserv.obj
 0002:0000480c       ??_C@_03KKOLABHB@ST1?$AA@  0047980c     asmserv.obj
 0002:00004810       ??_C@_03IBMGFCLC@ST2?$AA@  00479810     asmserv.obj
 0002:00004814       ??_C@_03JINNGDPD@ST3?$AA@  00479814     asmserv.obj
 0002:00004818       ??_C@_03NHJMPFDE@ST4?$AA@  00479818     asmserv.obj
 0002:0000481c       ??_C@_03MOIHMEHF@ST5?$AA@  0047981c     asmserv.obj
 0002:00004820       ??_C@_03OFKKJHLG@ST6?$AA@  00479820     asmserv.obj
 0002:00004824       ??_C@_03PMLBKGPH@ST7?$AA@  00479824     asmserv.obj
 0002:00004828       ??_C@_03MLLEKAKD@FPU?$AA@  00479828     asmserv.obj
 0002:0000482c       ??_C@_03BAMBIIGD@MM0?$AA@  0047982c     asmserv.obj
 0002:00004830       ??_C@_03JNKLJCC@MM1?$AA@   00479830     asmserv.obj
 0002:00004834       ??_C@_03CCPHOKOB@MM2?$AA@  00479834     asmserv.obj
 0002:00004838       ??_C@_03DLOMNLKA@MM3?$AA@  00479838     asmserv.obj
 0002:0000483c       ??_C@_03HEKNENGH@MM4?$AA@  0047983c     asmserv.obj
 0002:00004840       ??_C@_03GNLGHMCG@MM5?$AA@  00479840     asmserv.obj
 0002:00004844       ??_C@_03EGJLCPOF@MM6?$AA@  00479844     asmserv.obj
 0002:00004848       ??_C@_03FPIABOKE@MM7?$AA@  00479848     asmserv.obj
 0002:0000484c       ??_C@_03LNOFGJMM@MMX?$AA@  0047984c     asmserv.obj
 0002:00004850       ??_C@_03OHGEBLBN@CR0?$AA@  00479850     asmserv.obj
 0002:00004854       ??_C@_03POHPCKFM@CR1?$AA@  00479854     asmserv.obj
 0002:00004858       ??_C@_03NFFCHJJP@CR2?$AA@  00479858     asmserv.obj
 0002:0000485c       ??_C@_03MMEJEINO@CR3?$AA@  0047985c     asmserv.obj
 0002:00004860       ??_C@_03IDAINOBJ@CR4?$AA@  00479860     asmserv.obj
 0002:00004864       ??_C@_03JKBDOPFI@CR5?$AA@  00479864     asmserv.obj
 0002:00004868       ??_C@_03LBDOLMJL@CR6?$AA@  00479868     asmserv.obj
 0002:0000486c       ??_C@_03KICFINNK@CR7?$AA@  0047986c     asmserv.obj
 0002:00004870       ??_C@_03EKEAPKLC@CRX?$AA@  00479870     asmserv.obj
 0002:00004874       ??_C@_03HKLDCDKE@DR0?$AA@  00479874     asmserv.obj
 0002:00004878       ??_C@_03GDKIBCOF@DR1?$AA@  00479878     asmserv.obj
 0002:0000487c       ??_C@_03EIIFEBCG@DR2?$AA@  0047987c     asmserv.obj
 0002:00004880       ??_C@_03FBJOHAGH@DR3?$AA@  00479880     asmserv.obj
 0002:00004884       ??_C@_03BONPOGKA@DR4?$AA@  00479884     asmserv.obj
 0002:00004888       ??_C@_03HMENHOB@DR5?$AA@   00479888     asmserv.obj
 0002:0000488c       ??_C@_03CMOJIECC@DR6?$AA@  0047988c     asmserv.obj
 0002:00004890       ??_C@_03DFPCLFGD@DR7?$AA@  00479890     asmserv.obj
 0002:00004894       ??_C@_03NHJHMCAL@DRX?$AA@  00479894     asmserv.obj
 0002:00004898       ??_C@_03GEANJIEE@NOP?$AA@  00479898     asmserv.obj
 0002:0000489c       ??_C@_03CAOCJACM@MOV?$AA@  0047989c     asmserv.obj
 0002:000048a0       ??_C@_04KLEHGNFN@PUSH?$AA@ 004798a0     asmserv.obj
 0002:000048a8       ??_C@_04CAGKGBIO@CALL?$AA@ 004798a8     asmserv.obj
 0002:000048b0       ??_C@_03JAEKPGAJ@LEA?$AA@  004798b0     asmserv.obj
 0002:000048b4       ??_C@_05KHFAANCB@JE?0JZ?$AA@ 004798b4     asmserv.obj
 0002:000048bc       ??_C@_03NEMLLIOI@POP?$AA@  004798bc     asmserv.obj
 0002:000048c0       ??_C@_03BOJFLAKG@ADD?$AA@  004798c0     asmserv.obj
 0002:000048c4       ??_C@_07JMDDLKNA@JNZ?0JNE?$AA@ 004798c4     asmserv.obj
 0002:000048d0       ??_C@_03OIOLNLHN@JMP?$AA@  004798d0     asmserv.obj
 0002:000048d4       ??_C@_04OIKJMBFP@TEST?$AA@ 004798d4     asmserv.obj
 0002:000048dc       ??_C@_03CDEJPCIF@XOR?$AA@  004798dc     asmserv.obj
 0002:000048e0       ??_C@_03JFODJEPH@CMP?$AA@  004798e0     asmserv.obj
 0002:000048e4       ??_C@_08LFEDKMH@RETN?0RET?$AA@ 004798e4     asmserv.obj
 0002:000048f0       ??_C@_03JJPHILFI@INC?$AA@  004798f0     asmserv.obj
 0002:000048f4       ??_C@_03KPDLEBHD@SUB?$AA@  004798f4     asmserv.obj
 0002:000048f8       ??_C@_07MLBKHJDF@JLE?0JNG?$AA@ 004798f8     asmserv.obj
 0002:00004904       ??_C@_04NCILNIKB@RETN?$AA@ 00479904     asmserv.obj
 0002:0000490c       ??_C@_02PDPFNDMG@OR?$AA@   0047990c     asmserv.obj
 0002:00004910       ??_C@_03GHMILMGE@DEC?$AA@  00479910     asmserv.obj
 0002:00004914       ??_C@_05NFKGJPLN@MOVSX?$AA@ 00479914     asmserv.obj
 0002:0000491c       ??_C@_07EABGGLBA@JL?0JNGE?$AA@ 0047991c     asmserv.obj
 0002:00004928       ??_C@_03BDACDFHA@AND?$AA@  00479928     asmserv.obj
 0002:0000492c       ??_C@_03GBFNEA@NOT?$AA@    0047992c     asmserv.obj
 0002:00004930       ??_C@_03PBAHGDAB@SHR?$AA@  00479930     asmserv.obj
 0002:00004934       ??_C@_07CKOJPEAE@JGE?0JNL?$AA@ 00479934     asmserv.obj
 0002:00004940       ??_C@_07EOEENAAL@JG?0JNLE?$AA@ 00479940     asmserv.obj
 0002:0000494c       ??_C@_03CFEGFMNO@SHL?$AA@  0047994c     asmserv.obj
 0002:00004950       ??_C@_03LGFCPEIG@SBB?$AA@  00479950     asmserv.obj
 0002:00004954       ??_C@_03GMBJJJAE@NEG?$AA@  00479954     asmserv.obj
 0002:00004958       ??_C@_05GACDJFGI@LEAVE?$AA@ 00479958     asmserv.obj
 0002:00004960       ??_C@_07OFHCNFKC@?$CGPUSHA?$CK?$AA@ 00479960     asmserv.obj
 0002:0000496c       ??_C@_06MNONMPDF@?$CGPOPA?$CK?$AA@ 0047996c     asmserv.obj
 0002:00004974       ??_C@_04HJKOHOIB@XCHG?$AA@ 00479974     asmserv.obj
 0002:0000497c       ??_C@_03FBNECGGB@ADC?$AA@  0047997c     asmserv.obj
 0002:00004980       ??_C@_03IBHOEMFB@MUL?$AA@  00479980     asmserv.obj
 0002:00004984       ??_C@_04DDPLFOGI@IMUL?$AA@ 00479984     asmserv.obj
 0002:0000498c       ??_C@_03FJGHKDBE@DIV?$AA@  0047998c     asmserv.obj
 0002:00004990       ??_C@_04OLOCLBCN@IDIV?$AA@ 00479990     asmserv.obj
 0002:00004998       ??_C@_09CCBGGGGA@?$CGCBW?3CWDE?$AA@ 00479998     asmserv.obj
 0002:000049a4       ??_C@_08ILLHFEMI@?$CGCWD?3CDQ?$AA@ 004799a4     asmserv.obj
 0002:000049b0       ??_C@_03JILFCNDO@ROL?$AA@  004799b0     asmserv.obj
 0002:000049b4       ??_C@_03EMPEBCOB@ROR?$AA@  004799b4     asmserv.obj
 0002:000049b8       ??_C@_03JBKPNEFK@RCL?$AA@  004799b8     asmserv.obj
 0002:000049bc       ??_C@_03EFOOOLIF@RCR?$AA@  004799bc     asmserv.obj
 0002:000049c0       ??_C@_03PONGFIIO@SAR?$AA@  004799c0     asmserv.obj
 0002:000049c4       ??_C@_02KFCHNDB@JO?$AA@    004799c4     asmserv.obj
 0002:000049c8       ??_C@_03CHPHGLLK@JNO?$AA@  004799c8     asmserv.obj
 0002:000049cc       ??_C@_05IOHAHICJ@JB?0JC?$AA@ 004799cc     asmserv.obj
 0002:000049d4       ??_C@_07CFOMJNKA@JNB?0JNC?$AA@ 004799d4     asmserv.obj
 0002:000049e0       ??_C@_07MNHPKFOO@JBE?0JNA?$AA@ 004799e0     asmserv.obj
 0002:000049ec       ??_C@_07CHAKMIDL@JA?0JNBE?$AA@ 004799ec     asmserv.obj
 0002:000049f8       ??_C@_02OMCFCAGM@JS?$AA@   004799f8     asmserv.obj
 0002:000049fc       ??_C@_03MBIADGOH@JNS?$AA@  004799fc     asmserv.obj
 0002:00004a00       ??_C@_06DDCHJALM@JPE?0JP?$AA@ 00479a00     asmserv.obj
 0002:00004a08       ??_C@_07MPHMCIHP@JPO?0JNP?$AA@ 00479a08     asmserv.obj
 0002:00004a14       ??_C@_0M@EKICBBJF@$JCXZ?3JECXZ?$AA@ 00479a14     asmserv.obj
 0002:00004a24       ??_C@_03PFMOLPFC@CLC?$AA@  00479a24     asmserv.obj
 0002:00004a28       ??_C@_03LHOCBKAF@STC?$AA@  00479a28     asmserv.obj
 0002:00004a2c       ??_C@_03PEAMNFGF@CMC?$AA@  00479a2c     asmserv.obj
 0002:00004a30       ??_C@_03LKIPCJJF@CLD?$AA@  00479a30     asmserv.obj
 0002:00004a34       ??_C@_03PIKDIMMC@STD?$AA@  00479a34     asmserv.obj
 0002:00004a38       ??_C@_03PCBFHNI@CLI?$AA@   00479a38     asmserv.obj
 0002:00004a3c       ??_C@_03ENANPCIP@STI?$AA@  00479a3c     asmserv.obj
 0002:00004a40       ??_C@_04LCNKIKLM@CMPS?$AA@ 00479a40     asmserv.obj
 0002:00004a48       ??_C@_04IBKMNOEK@LODS?$AA@ 00479a48     asmserv.obj
 0002:00004a50       ??_C@_04KDGOIAOE@MOVS?$AA@ 00479a50     asmserv.obj
 0002:00004a58       ??_C@_04CPABKDEK@SCAS?$AA@ 00479a58     asmserv.obj
 0002:00004a60       ??_C@_04OIFBOBGG@STOS?$AA@ 00479a60     asmserv.obj
 0002:00004a68       ??_C@_08JKOFCKKP@REP?5MOVS?$AA@ 00479a68     asmserv.obj
 0002:00004a74       ??_C@_08LICHHEAB@REP?5LODS?$AA@ 00479a74     asmserv.obj
 0002:00004a80       ??_C@_08NBNKELCN@REP?5STOS?$AA@ 00479a80     asmserv.obj
 0002:00004a8c       ??_C@_09PKCPKJME@REPE?5CMPS?$AA@ 00479a8c     asmserv.obj
 0002:00004a98       ??_C@_09GHPEIADC@REPE?5SCAS?$AA@ 00479a98     asmserv.obj
 0002:00004aa4       ??_C@_0L@BIOEKKAN@REPNE?5CMPS?$AA@ 00479aa4     asmserv.obj
 0002:00004ab4       ??_C@_0L@IFDPIDPL@REPNE?5SCAS?$AA@ 00479ab4     asmserv.obj
 0002:00004ac4       ??_C@_04BKFCFCKJ@RETF?$AA@ 00479ac4     asmserv.obj
 0002:00004acc       ??_C@_04PFFLDDIO@SHLD?$AA@ 00479acc     asmserv.obj
 0002:00004ad4       ??_C@_04ODODLNPE@SHRD?$AA@ 00479ad4     asmserv.obj
 0002:00004adc       ??_C@_05OOCHMNJI@BSWAP?$AA@ 00479adc     asmserv.obj
 0002:00004ae4       ??_C@_04PBJABMKN@XADD?$AA@ 00479ae4     asmserv.obj
 0002:00004aec       ??_C@_06DLPIJCHC@$LOOP?$CK?$AA@ 00479aec     asmserv.obj
 0002:00004af4       ??_C@_07DDDOFDMC@$LOOP?$CKE?$AA@ 00479af4     asmserv.obj
 0002:00004b00       ??_C@_08PEACMJGO@$LOOP?$CKNE?$AA@ 00479b00     asmserv.obj
 0002:00004b0c       ??_C@_05EMNIMLKD@ENTER?$AA@ 00479b0c     asmserv.obj
 0002:00004b14       ??_C@_02BBAPPCCJ@IN?$AA@   00479b14     asmserv.obj
 0002:00004b18       ??_C@_03KJGMBMID@OUT?$AA@  00479b18     asmserv.obj
 0002:00004b1c       ??_C@_03NDDFJJAJ@INS?$AA@  00479b1c     asmserv.obj
 0002:00004b20       ??_C@_04OFIOLABB@OUTS?$AA@ 00479b20     asmserv.obj
 0002:00004b28       ??_C@_07FLCMBAOK@REP?5INS?$AA@ 00479b28     asmserv.obj
 0002:00004b34       ??_C@_08NMAFBKFK@REP?5OUTS?$AA@ 00479b34     asmserv.obj
 0002:00004b40       ??_C@_03GFCJIGAI@AAA?$AA@  00479b40     asmserv.obj
 0002:00004b44       ??_C@_03BNNNPGNL@AAS?$AA@  00479b44     asmserv.obj
 0002:00004b48       ??_C@_03MJJMMJAE@AAM?$AA@  00479b48     asmserv.obj
 0002:00004b4c       ??_C@_03BIFOHCEN@AAD?$AA@  00479b4c     asmserv.obj
 0002:00004b50       ??_C@_03FCPHHGDK@DAA?$AA@  00479b50     asmserv.obj
 0002:00004b54       ??_C@_03CKADAGOJ@DAS?$AA@  00479b54     asmserv.obj
 0002:00004b58       ??_C@_03CHEMLMMF@HLT?$AA@  00479b58     asmserv.obj
 0002:00004b5c       ??_C@_04EPPDBEMK@XLAT?$AA@ 00479b5c     asmserv.obj
 0002:00004b64       ??_C@_05NKHHKEDC@MOVZX?$AA@ 00479b64     asmserv.obj
 0002:00004b6c       ??_C@_04DBNKAKHO@WAIT?$AA@ 00479b6c     asmserv.obj
 0002:00004b74       ??_C@_04FPNMLGAJ@LAHF?$AA@ 00479b74     asmserv.obj
 0002:00004b7c       ??_C@_04LNGMLGFK@SAHF?$AA@ 00479b7c     asmserv.obj
 0002:00004b84       ??_C@_07OADNMDCH@?$CGPUSHF?$CK?$AA@ 00479b84     asmserv.obj
 0002:00004b90       ??_C@_06MIKCNJLA@?$CGPOPF?$CK?$AA@ 00479b90     asmserv.obj
 0002:00004b98       ??_C@_03JMHEAPMO@INT?$AA@  00479b98     asmserv.obj
 0002:00004b9c       ??_C@_04IICLPOII@INT3?$AA@ 00479b9c     asmserv.obj
 0002:00004ba4       ??_C@_04LKBMIHC@INTO?$AA@  00479ba4     asmserv.obj
 0002:00004bac       ??_C@_06MGOAJGD@?$CGIRET?$CK?$AA@ 00479bac     asmserv.obj
 0002:00004bb4       ??_C@_04PGPAMAFA@SETO?$AA@ 00479bb4     asmserv.obj
 0002:00004bbc       ??_C@_05BNLOJIMJ@SETNO?$AA@ 00479bbc     asmserv.obj
 0002:00004bc4       ??_C@_09MLFNDHBF@SETB?0SETC?$AA@ 00479bc4     asmserv.obj
 0002:00004bd0       ??_C@_0M@FCOMOFIH@SETNB?0SETNC?$AA@ 00479bd0     asmserv.obj
 0002:00004be0       ??_C@_09JFPKKAID@SETE?0SETZ?$AA@ 00479be0     asmserv.obj
 0002:00004bec       ??_C@_0M@MDCJEFIG@SETNE?0SETNZ?$AA@ 00479bec     asmserv.obj
 0002:00004bfc       ??_C@_0M@IMCLHNAI@SETBE?0SETNA?$AA@ 00479bfc     asmserv.obj
 0002:00004c0c       ??_C@_0M@LKPPIOLA@SETA?0SETNBE?$AA@ 00479c0c     asmserv.obj
 0002:00004c1c       ??_C@_04BAIHJNAN@SETS?$AA@ 00479c1c     asmserv.obj
 0002:00004c24       ??_C@_05PLMJMFJE@SETNS?$AA@ 00479c24     asmserv.obj
 0002:00004c2c       ??_C@_0L@BDAFIDNB@SETPE?0SETP?$AA@ 00479c2c     asmserv.obj
 0002:00004c3c       ??_C@_0M@MMAECICH@SETPO?0SETNP?$AA@ 00479c3c     asmserv.obj
 0002:00004c4c       ??_C@_0M@ENHLKLAM@SETL?0SETNGE?$AA@ 00479c4c     asmserv.obj
 0002:00004c5c       ??_C@_0M@HDBCEGAK@SETGE?0SETNL?$AA@ 00479c5c     asmserv.obj
 0002:00004c6c       ??_C@_0M@BCLDABBM@SETLE?0SETNG?$AA@ 00479c6c     asmserv.obj
 0002:00004c7c       ??_C@_0M@MDHLNKDA@SETG?0SETNLE?$AA@ 00479c7c     asmserv.obj
 0002:00004c8c       ??_C@_02KNHHOHBD@BT?$AA@   00479c8c     asmserv.obj
 0002:00004c90       ??_C@_03BFIFDIKO@BTS?$AA@  00479c90     asmserv.obj
 0002:00004c94       ??_C@_03MJOAJOP@BTR?$AA@   00479c94     asmserv.obj
 0002:00004c98       ??_C@_03FPEHCKPP@BTC?$AA@  00479c98     asmserv.obj
 0002:00004c9c       ??_C@_03OJHMOMON@LDS?$AA@  00479c9c     asmserv.obj
 0002:00004ca0       ??_C@_03OILOIGNK@LES?$AA@  00479ca0     asmserv.obj
 0002:00004ca4       ??_C@_03OKPIDIID@LFS?$AA@  00479ca4     asmserv.obj
 0002:00004ca8       ??_C@_03OLDKFCLE@LGS?$AA@  00479ca8     asmserv.obj
 0002:00004cac       ??_C@_03PABFFJBI@LSS?$AA@  00479cac     asmserv.obj
 0002:00004cb0       ??_C@_04NDKJAIL@ARPL?$AA@  00479cb0     asmserv.obj
 0002:00004cb8       ??_C@_05MEMMOPPI@BOUND?$AA@ 00479cb8     asmserv.obj
 0002:00004cc0       ??_C@_03CHHPMIDP@BSF?$AA@  00479cc0     asmserv.obj
 0002:00004cc4       ??_C@_03JNBBPGK@BSR?$AA@   00479cc4     asmserv.obj
 0002:00004cc8       ??_C@_04NGPEFAF@CLTS?$AA@  00479cc8     asmserv.obj
 0002:00004cd0       ??_C@_05LLDFPDMF@CMOVO?$AA@ 00479cd0     asmserv.obj
 0002:00004cd8       ??_C@_06JNJGDKDB@CMOVNO?$AA@ 00479cd8     asmserv.obj
 0002:00004ce0       ??_C@_0M@IKOKBIEE@CMOVB?0CMOVC?$AA@ 00479ce0     asmserv.obj
 0002:00004cf0       ??_C@_0O@LGLPKEBG@CMOVNB?0CMOVNC?$AA@ 00479cf0     asmserv.obj
 0002:00004d00       ??_C@_0M@BLCPLIEF@CMOVE?0CMOVZ?$AA@ 00479d00     asmserv.obj
 0002:00004d10       ??_C@_0O@EJNOGAMH@CMOVNE?0CMOVNZ?$AA@ 00479d10     asmserv.obj
 0002:00004d20       ??_C@_0O@PKNEELND@CMOVBE?0CMOVNA?$AA@ 00479d20     asmserv.obj
 0002:00004d30       ??_C@_0O@GADEBJIN@CMOVA?0CMOVNBE?$AA@ 00479d30     asmserv.obj
 0002:00004d40       ??_C@_05FNECKOJI@CMOVS?$AA@ 00479d40     asmserv.obj
 0002:00004d48       ??_C@_06HLOBGHGM@CMOVNS?$AA@ 00479d48     asmserv.obj
 0002:00004d50       ??_C@_0N@IMNKJEDA@CMOVPE?0CMOVP?$AA@ 00479d50     asmserv.obj
 0002:00004d60       ??_C@_0O@BPHILDII@CMOVPO?0CMOVNP?$AA@ 00479d60     asmserv.obj
 0002:00004d70       ??_C@_0O@JDABFANG@CMOVL?0CMOVNGE?$AA@ 00479d70     asmserv.obj
 0002:00004d80       ??_C@_0O@KJFDPONK@CMOVGE?0CMOVNL?$AA@ 00479d80     asmserv.obj
 0002:00004d90       ??_C@_0O@LCEHNMOG@CMOVLE?0CMOVNG?$AA@ 00479d90     asmserv.obj
 0002:00004da0       ??_C@_0O@GHLEEEMA@CMOVG?0CMOVNLE?$AA@ 00479da0     asmserv.obj
 0002:00004db0       ??_C@_07FEOOIPLF@CMPXCHG?$AA@ 00479db0     asmserv.obj
 0002:00004dbc       ??_C@_09MICAJAN@CMPXCHG8B?$AA@ 00479dbc     asmserv.obj
 0002:00004dc8       ??_C@_05OIGPCKIL@CPUID?$AA@ 00479dc8     asmserv.obj
 0002:00004dd0       ??_C@_04OLNBMFNH@INVD?$AA@ 00479dd0     asmserv.obj
 0002:00004dd8       ??_C@_03PGKMBPEH@LAR?$AA@  00479dd8     asmserv.obj
 0002:00004ddc       ??_C@_03DNEPFHIG@LSL?$AA@  00479ddc     asmserv.obj
 0002:00004de0       ??_C@_06DDEHFBKL@INVLPG?$AA@ 00479de0     asmserv.obj
 0002:00004de8       ??_C@_06BEHNJBOK@WBINVD?$AA@ 00479de8     asmserv.obj
 0002:00004df0       ??_C@_04LFJGAGC@LGDT?$AA@  00479df0     asmserv.obj
 0002:00004df8       ??_C@_04OJOJGADB@SGDT?$AA@ 00479df8     asmserv.obj
 0002:00004e00       ??_C@_04OLIGBHFB@LIDT?$AA@ 00479e00     asmserv.obj
 0002:00004e08       ??_C@_04JDGBHAC@SIDT?$AA@  00479e08     asmserv.obj
 0002:00004e10       ??_C@_04NMFIOHGD@LLDT?$AA@ 00479e10     asmserv.obj
 0002:00004e18       ??_C@_04DOOIOHDA@SLDT?$AA@ 00479e18     asmserv.obj
 0002:00004e20       ??_C@_03OMEBHONM@LTR?$AA@  00479e20     asmserv.obj
 0002:00004e24       ??_C@_03OEDLDJBF@STR?$AA@  00479e24     asmserv.obj
 0002:00004e28       ??_C@_04FGKAGGDA@LMSW?$AA@ 00479e28     asmserv.obj
 0002:00004e30       ??_C@_04LEBAGGGD@SMSW?$AA@ 00479e30     asmserv.obj
 0002:00004e38       ??_C@_04MFPBFPIO@VERR?$AA@ 00479e38     asmserv.obj
 0002:00004e40       ??_C@_04LIIGKLML@VERW?$AA@ 00479e40     asmserv.obj
 0002:00004e48       ??_C@_05FDMJBNPD@RDTSC?$AA@ 00479e48     asmserv.obj
 0002:00004e50       ??_C@_05CNABCGPG@RDMSR?$AA@ 00479e50     asmserv.obj
 0002:00004e58       ??_C@_05JCGMNFGH@WRMSR?$AA@ 00479e58     asmserv.obj
 0002:00004e60       ??_C@_05MKBDAENO@RDPMC?$AA@ 00479e60     asmserv.obj
 0002:00004e68       ??_C@_03JEJCEGGL@RSM?$AA@  00479e68     asmserv.obj
 0002:00004e6c       ??_C@_03LIILKOBO@UD2?$AA@  00479e6c     asmserv.obj
 0002:00004e70       ??_C@_08IJIBINK@SYSENTER?$AA@ 00479e70     asmserv.obj
 0002:00004e7c       ??_C@_07ECBFNMOF@SYSEXIT?$AA@ 00479e7c     asmserv.obj
 0002:00004e88       ??_C@_04MHBCOKMD@SALC?$AA@ 00479e88     asmserv.obj
 0002:00004e90       ??_C@_05PMHLGCKH@F2XM1?$AA@ 00479e90     asmserv.obj
 0002:00004e98       ??_C@_04IINAIADH@FCHS?$AA@ 00479e98     asmserv.obj
 0002:00004ea0       ??_C@_04CPEOMNGK@FABS?$AA@ 00479ea0     asmserv.obj
 0002:00004ea8       ??_C@_05FNJOOKEG@FCLEX?$AA@ 00479ea8     asmserv.obj
 0002:00004eb0       ??_C@_05BIIIIMAE@FINIT?$AA@ 00479eb0     asmserv.obj
 0002:00004eb8       ??_C@_07INBLHIKE@FDECSTP?$AA@ 00479eb8     asmserv.obj
 0002:00004ec4       ??_C@_07IGALOJKH@FINCSTP?$AA@ 00479ec4     asmserv.obj
 0002:00004ed0       ??_C@_04BKCMDFEH@FTST?$AA@ 00479ed0     asmserv.obj
 0002:00004ed8       ??_C@_05CKNBAIHP@FSQRT?$AA@ 00479ed8     asmserv.obj
 0002:00004ee0       ??_C@_04CGGHNBID@FSIN?$AA@ 00479ee0     asmserv.obj
 0002:00004ee8       ??_C@_04INJPJGLC@FCOS?$AA@ 00479ee8     asmserv.obj
 0002:00004ef0       ??_C@_07MLHHJGOD@FSINCOS?$AA@ 00479ef0     asmserv.obj
 0002:00004efc       ??_C@_05PEOCGFGP@FPTAN?$AA@ 00479efc     asmserv.obj
 0002:00004f04       ??_C@_06HHJIAEEF@FPATAN?$AA@ 00479f04     asmserv.obj
 0002:00004f0c       ??_C@_05PNKNMBKM@FPREM?$AA@ 00479f0c     asmserv.obj
 0002:00004f14       ??_C@_06BJMAEFLA@FPREM1?$AA@ 00479f14     asmserv.obj
 0002:00004f1c       ??_C@_05CGHABLLA@FYL2X?$AA@ 00479f1c     asmserv.obj
 0002:00004f24       ??_C@_07MEEBGICG@FYL2XP1?$AA@ 00479f24     asmserv.obj
 0002:00004f30       ??_C@_07BLILKJNK@FRNDINT?$AA@ 00479f30     asmserv.obj
 0002:00004f3c       ??_C@_04IOGCGACA@FLD1?$AA@ 00479f3c     asmserv.obj
 0002:00004f44       ??_C@_06LIFLBKHH@FLDL2T?$AA@ 00479f44     asmserv.obj
 0002:00004f4c       ??_C@_06OLICDJGH@FLDL2E?$AA@ 00479f4c     asmserv.obj
 0002:00004f54       ??_C@_05FDEOBHPD@FLDPI?$AA@ 00479f54     asmserv.obj
 0002:00004f5c       ??_C@_06NJMGHMON@FLDLG2?$AA@ 00479f5c     asmserv.obj
 0002:00004f64       ??_C@_06NGBHEHGC@FLDLN2?$AA@ 00479f64     asmserv.obj
 0002:00004f6c       ??_C@_04IGLNCEM@FLDZ?$AA@  00479f6c     asmserv.obj
 0002:00004f74       ??_C@_06HCHMILO@FSCALE?$AA@ 00479f74     asmserv.obj
 0002:00004f7c       ??_C@_04FENIBNKM@FNOP?$AA@ 00479f7c     asmserv.obj
 0002:00004f84       ??_C@_05DHOAMBLJ@FSTSW?$AA@ 00479f84     asmserv.obj
 0002:00004f8c       ??_C@_04NEFIFEPJ@FXAM?$AA@ 00479f8c     asmserv.obj
 0002:00004f94       ??_C@_07DPHKAOPH@FXTRACT?$AA@ 00479f94     asmserv.obj
 0002:00004fa0       ??_C@_06KJFOCEJM@FCOMPP?$AA@ 00479fa0     asmserv.obj
 0002:00004fa8       ??_C@_07OINEGJLC@FUCOMPP?$AA@ 00479fa8     asmserv.obj
 0002:00004fb4       ??_C@_05NKNECJIG@FFREE?$AA@ 00479fb4     asmserv.obj
 0002:00004fbc       ??_C@_06FOOLDBG@FCMOVB?$AA@ 00479fbc     asmserv.obj
 0002:00004fc4       ??_C@_06EKKPCFNB@FCMOVE?$AA@ 00479fc4     asmserv.obj
 0002:00004fcc       ??_C@_07HJNPOAKC@FCMOVBE?$AA@ 00479fcc     asmserv.obj
 0002:00004fd8       ??_C@_06GNDHIA@FCMOVU?$AA@ 00479fd8     asmserv.obj
 0002:00004fe0       ??_C@_07DPIEIPAB@FCMOVNB?$AA@ 00479fe0     asmserv.obj
 0002:00004fec       ??_C@_07HAMFBJMG@FCMOVNE?$AA@ 00479fec     asmserv.obj
 0002:00004ff8       ??_C@_08PKDGAPFJ@FCMOVNBE?$AA@ 00479ff8     asmserv.obj
 0002:00005004       ??_C@_07DKAHALJH@FCMOVNU?$AA@ 0047a004     asmserv.obj
 0002:00005010       ??_C@_05BCOBDHAA@FCOMI?$AA@ 0047a010     asmserv.obj
 0002:00005018       ??_C@_06LKKJLMGD@FCOMIP?$AA@ 0047a018     asmserv.obj
 0002:00005020       ??_C@_06JMNGHJKL@FUCOMI?$AA@ 0047a020     asmserv.obj
 0002:00005028       ??_C@_07PLCDPBEN@FUCOMIP?$AA@ 0047a028     asmserv.obj
 0002:00005034       ??_C@_04COEADFEO@FADD?$AA@ 0047a034     asmserv.obj
 0002:0000503c       ??_C@_05CLPBHBPG@FADDP?$AA@ 0047a03c     asmserv.obj
 0002:00005044       ??_C@_04JPOOMEJL@FSUB?$AA@ 0047a044     asmserv.obj
 0002:0000504c       ??_C@_05NNPJPJFM@FSUBP?$AA@ 0047a04c     asmserv.obj
 0002:00005054       ??_C@_05OPMPJLNO@FSUBR?$AA@ 0047a054     asmserv.obj
 0002:0000505c       ??_C@_06NLDPGNBM@FSUBRP?$AA@ 0047a05c     asmserv.obj
 0002:00005064       ??_C@_04LBKLMJLJ@FMUL?$AA@ 0047a064     asmserv.obj
 0002:0000506c       ??_C@_05ILHPNLF@FMULP?$AA@ 0047a06c     asmserv.obj
 0002:00005074       ??_C@_04FJNOKJGN@FCOM?$AA@ 0047a074     asmserv.obj
 0002:0000507c       ??_C@_05IJOBJOBI@FCOMP?$AA@ 0047a07c     asmserv.obj
 0002:00005084       ??_C@_05NAHPPLPA@FUCOM?$AA@ 0047a084     asmserv.obj
 0002:0000508c       ??_C@_06HNGNALD@FUCOMP?$AA@ 0047a08c     asmserv.obj
 0002:00005094       ??_C@_04GJLCCGPM@FDIV?$AA@ 0047a094     asmserv.obj
 0002:0000509c       ??_C@_05ONJFBEF@FDIVP?$AA@ 0047a09c     asmserv.obj
 0002:000050a4       ??_C@_05DMOPDDMH@FDIVR?$AA@ 0047a0a4     asmserv.obj
 0002:000050ac       ??_C@_06LPIHOFHE@FDIVRP?$AA@ 0047a0ac     asmserv.obj
 0002:000050b4       ??_C@_03INFBNJKH@FLD?$AA@  0047a0b4     asmserv.obj
 0002:000050b8       ??_C@_03NAOJCPLL@FST?$AA@  0047a0b8     asmserv.obj
 0002:000050bc       ??_C@_04OGNINOHP@FSTP?$AA@ 0047a0bc     asmserv.obj
 0002:000050c4       ??_C@_04KKKLHENC@FXCH?$AA@ 0047a0c4     asmserv.obj
 0002:000050cc       ??_C@_05CPBBNFA@FIADD?$AA@ 0047a0cc     asmserv.obj
 0002:000050d4       ??_C@_05LDFPOMIF@FISUB?$AA@ 0047a0d4     asmserv.obj
 0002:000050dc       ??_C@_06BFOMBHJF@FISUBR?$AA@ 0047a0dc     asmserv.obj
 0002:000050e4       ??_C@_05JNBKOBKH@FIMUL?$AA@ 0047a0e4     asmserv.obj
 0002:000050ec       ??_C@_05EFADAOOC@FIDIV?$AA@ 0047a0ec     asmserv.obj
 0002:000050f4       ??_C@_06MGMMLPIM@FIDIVR?$AA@ 0047a0f4     asmserv.obj
 0002:000050fc       ??_C@_04DCOGMLBI@FBLD?$AA@ 0047a0fc     asmserv.obj
 0002:00005104       ??_C@_05LNLJMHHA@FBSTP?$AA@ 0047a104     asmserv.obj
 0002:0000510c       ??_C@_05HFGPIBHD@FICOM?$AA@ 0047a10c     asmserv.obj
 0002:00005114       ??_C@_06HDMCBCFD@FICOMP?$AA@ 0047a114     asmserv.obj
 0002:0000511c       ??_C@_04OFOHEMBJ@FILD?$AA@ 0047a11c     asmserv.obj
 0002:00005124       ??_C@_04LIFPLKAF@FIST?$AA@ 0047a124     asmserv.obj
 0002:0000512c       ??_C@_05MKGJPGGB@FISTP?$AA@ 0047a12c     asmserv.obj
 0002:00005134       ??_C@_05JJGPDFAF@FLDCW?$AA@ 0047a134     asmserv.obj
 0002:0000513c       ??_C@_05CLMGGCMJ@FSTCW?$AA@ 0047a13c     asmserv.obj
 0002:00005144       ??_C@_06KKIOKGEL@FLDENV?$AA@ 0047a144     asmserv.obj
 0002:0000514c       ??_C@_06DIOOIBIH@FSTENV?$AA@ 0047a14c     asmserv.obj
 0002:00005154       ??_C@_06MMJJBBPL@FRSTOR?$AA@ 0047a154     asmserv.obj
 0002:0000515c       ??_C@_05COBINECM@FSAVE?$AA@ 0047a15c     asmserv.obj
 0002:00005164       ??_C@_07OMMEDNBF@FXRSTOR?$AA@ 0047a164     asmserv.obj
 0002:00005170       ??_C@_06BMLBIJFJ@FXSAVE?$AA@ 0047a170     asmserv.obj
 0002:00005178       ??_C@_04BJBLFJIC@FENI?$AA@ 0047a178     asmserv.obj
 0002:00005180       ??_C@_05JDBCDKLG@FDISI?$AA@ 0047a180     asmserv.obj
 0002:00005188       ??_C@_04CJGEEPDP@EMMS?$AA@ 0047a188     asmserv.obj
 0002:00005190       ??_C@_04KGONAEHC@MOVD?$AA@ 0047a190     asmserv.obj
 0002:00005198       ??_C@_04JBFIOCGG@MOVQ?$AA@ 0047a198     asmserv.obj
 0002:000051a0       ??_C@_08JDFIPNPK@PACKSSWB?$AA@ 0047a1a0     asmserv.obj
 0002:000051ac       ??_C@_08LKINAGMH@PACKSSDW?$AA@ 0047a1ac     asmserv.obj
 0002:000051b8       ??_C@_08BMBIAIFK@PACKUSWB?$AA@ 0047a1b8     asmserv.obj
 0002:000051c4       ??_C@_05IGIKOAKD@PADDB?$AA@ 0047a1c4     asmserv.obj
 0002:000051cc       ??_C@_05LBDPAGLH@PADDW?$AA@ 0047a1cc     asmserv.obj
 0002:000051d4       ??_C@_05NANAEHCF@PADDD?$AA@ 0047a1d4     asmserv.obj
 0002:000051dc       ??_C@_05HAICGIAJ@PSUBB?$AA@ 0047a1dc     asmserv.obj
 0002:000051e4       ??_C@_05EHDHIOBN@PSUBW?$AA@ 0047a1e4     asmserv.obj
 0002:000051ec       ??_C@_05CGNIMPIP@PSUBD?$AA@ 0047a1ec     asmserv.obj
 0002:000051f4       ??_C@_06JAPCJMHC@PADDSB?$AA@ 0047a1f4     asmserv.obj
 0002:000051fc       ??_C@_06KHEHHKGG@PADDSW?$AA@ 0047a1fc     asmserv.obj
 0002:00005204       ??_C@_06KGAHNOAM@PSUBSB?$AA@ 0047a204     asmserv.obj
 0002:0000520c       ??_C@_06JBLCDIBI@PSUBSW?$AA@ 0047a20c     asmserv.obj
 0002:00005214       ??_C@_07EEFLFJJA@PADDUSB?$AA@ 0047a214     asmserv.obj
 0002:00005220       ??_C@_07HDOOLPIE@PADDUSW?$AA@ 0047a220     asmserv.obj
 0002:0000522c       ??_C@_07PDNAPAOJ@PSUBUSB?$AA@ 0047a22c     asmserv.obj
 0002:00005238       ??_C@_07MEGFBGPN@PSUBUSW?$AA@ 0047a238     asmserv.obj
 0002:00005244       ??_C@_04MMHHNCLK@PAND?$AA@ 0047a244     asmserv.obj
 0002:0000524c       ??_C@_05EFICEPML@PANDN?$AA@ 0047a24c     asmserv.obj
 0002:00005254       ??_C@_07DCDGKLMC@PCMPEQB?$AA@ 0047a254     asmserv.obj
 0002:00005260       ??_C@_07FIDENNG@PCMPEQW?$AA@ 0047a260     asmserv.obj
 0002:0000526c       ??_C@_07GEGMAMEE@PCMPEQD?$AA@ 0047a26c     asmserv.obj
 0002:00005278       ??_C@_07JOPEKBKC@PCMPGTB?$AA@ 0047a278     asmserv.obj
 0002:00005284       ??_C@_07KJEBEHLG@PCMPGTW?$AA@ 0047a284     asmserv.obj
 0002:00005290       ??_C@_07MIKOAGCE@PCMPGTD?$AA@ 0047a290     asmserv.obj
 0002:0000529c       ??_C@_07GKMAJNPH@PMADDWD?$AA@ 0047a29c     asmserv.obj
 0002:000052a8       ??_C@_06FIMCGAFB@PMULHW?$AA@ 0047a2a8     asmserv.obj
 0002:000052b0       ??_C@_06FPMLMIIN@PMULLW?$AA@ 0047a2b0     asmserv.obj
 0002:000052b8       ??_C@_03OGPNNKGK@POR?$AA@  0047a2b8     asmserv.obj
 0002:000052bc       ??_C@_05GALILLAC@PSLLW?$AA@ 0047a2bc     asmserv.obj
 0002:000052c4       ??_C@_05BFHPKJA@PSLLD?$AA@ 0047a2c4     asmserv.obj
 0002:000052cc       ??_C@_05DGOCBMIE@PSLLQ?$AA@ 0047a2cc     asmserv.obj
 0002:000052d4       ??_C@_05NIKGAIPN@PSRAW?$AA@ 0047a2d4     asmserv.obj
 0002:000052dc       ??_C@_05LJEJEJGP@PSRAD?$AA@ 0047a2dc     asmserv.obj
 0002:000052e4       ??_C@_05NAHOJLKO@PSRLW?$AA@ 0047a2e4     asmserv.obj
 0002:000052ec       ??_C@_05LBJBNKDM@PSRLD?$AA@ 0047a2ec     asmserv.obj
 0002:000052f4       ??_C@_05IGCEDMCI@PSRLQ?$AA@ 0047a2f4     asmserv.obj
 0002:000052fc       ??_C@_09PMMNNPOF@PUNPCKHBW?$AA@ 0047a2fc     asmserv.obj
 0002:00005308       ??_C@_09IHMPPPOM@PUNPCKHWD?$AA@ 0047a308     asmserv.obj
 0002:00005314       ??_C@_09KOBKAENB@PUNPCKHDQ?$AA@ 0047a314     asmserv.obj
 0002:00005320       ??_C@_09HDKPEILC@PUNPCKLBW?$AA@ 0047a320     asmserv.obj
 0002:0000532c       ??_C@_09IKNGILL@PUNPCKLWD?$AA@ 0047a32c     asmserv.obj
 0002:00005338       ??_C@_09CBHIJDIG@PUNPCKLDQ?$AA@ 0047a338     asmserv.obj
 0002:00005344       ??_C@_04PMDMBFEP@PXOR?$AA@ 0047a344     asmserv.obj
 0002:0000534c       ??_C@_05IHIFPAPA@FEMMS?$AA@ 0047a34c     asmserv.obj
 0002:00005354       ??_C@_08CNJFFEGL@PREFETCH?$AA@ 0047a354     asmserv.obj
 0002:00005360       ??_C@_09CPLHOGBH@PREFETCHW?$AA@ 0047a360     asmserv.obj
 0002:0000536c       ??_C@_08MDLCOHD@MASKMOVQ?$AA@ 0047a36c     asmserv.obj
 0002:00005378       ??_C@_06LNMMHDJN@MOVNTQ?$AA@ 0047a378     asmserv.obj
 0002:00005380       ??_C@_05HONMMBOO@PAVGB?$AA@ 0047a380     asmserv.obj
 0002:00005388       ??_C@_05EJGJCHPK@PAVGW?$AA@ 0047a388     asmserv.obj
 0002:00005390       ??_C@_06MIBNHPFL@PEXTRW?$AA@ 0047a390     asmserv.obj
 0002:00005398       ??_C@_06MNKIOFLL@PINSRW?$AA@ 0047a398     asmserv.obj
 0002:000053a0       ??_C@_06CKKNNEK@PMAXSW?$AA@ 0047a3a0     asmserv.obj
 0002:000053a8       ??_C@_06DBJCEHOM@PMAXUB?$AA@ 0047a3a8     asmserv.obj
 0002:000053b0       ??_C@_06EHKIJOMI@PMINSW?$AA@ 0047a3b0     asmserv.obj
 0002:000053b8       ??_C@_06HEJAAEGO@PMINUB?$AA@ 0047a3b8     asmserv.obj
 0002:000053c0       ??_C@_08HGPDOAHD@PMOVMSKB?$AA@ 0047a3c0     asmserv.obj
 0002:000053cc       ??_C@_07OKEKLMPP@PMULHUW?$AA@ 0047a3cc     asmserv.obj
 0002:000053d8       ??_C@_0M@ODCMAMFB@PREFETCHNTA?$AA@ 0047a3d8     asmserv.obj
 0002:000053e8       ??_C@_0L@FOPMLKIL@PREFETCHT0?$AA@ 0047a3e8     asmserv.obj
 0002:000053f8       ??_C@_0L@EHOHILMK@PREFETCHT1?$AA@ 0047a3f8     asmserv.obj
 0002:00005408       ??_C@_0L@GMMKNIAJ@PREFETCHT2?$AA@ 0047a408     asmserv.obj
 0002:00005418       ??_C@_06DMFNJPMB@PSADBW?$AA@ 0047a418     asmserv.obj
 0002:00005420       ??_C@_06NOOBGFJG@PSHUFW?$AA@ 0047a420     asmserv.obj
 0002:00005428       ??_C@_06LNKFEKDE@SFENCE?$AA@ 0047a428     asmserv.obj
 0002:00005430       ??_C@_07ENOFIANA@PAVGUSB?$AA@ 0047a430     asmserv.obj
 0002:0000543c       ??_C@_05FFCOGLAH@PFADD?$AA@ 0047a43c     asmserv.obj
 0002:00005444       ??_C@_05OEIAJKNC@PFSUB?$AA@ 0047a444     asmserv.obj
 0002:0000544c       ??_C@_06OALEAMLE@PFSUBR?$AA@ 0047a44c     asmserv.obj
 0002:00005454       ??_C@_05BPCAOLEF@PFACC?$AA@ 0047a454     asmserv.obj
 0002:0000545c       ??_C@_07PCFJFIIO@PFCMPGE?$AA@ 0047a45c     asmserv.obj
 0002:00005468       ??_C@_07KBIAHLJO@PFCMPGT?$AA@ 0047a468     asmserv.obj
 0002:00005474       ??_C@_07NPHDFLLF@PFCMPEQ?$AA@ 0047a474     asmserv.obj
 0002:00005480       ??_C@_05ONMPKPGG@PFMIN?$AA@ 0047a480     asmserv.obj
 0002:00005488       ??_C@_05PPEEELAJ@PFMAX?$AA@ 0047a488     asmserv.obj
 0002:00005490       ??_C@_05KNHACHMK@PI2FD?$AA@ 0047a490     asmserv.obj
 0002:00005498       ??_C@_05CEHMPHCG@PF2ID?$AA@ 0047a498     asmserv.obj
 0002:000054a0       ??_C@_05DMGDFCKG@PFRCP?$AA@ 0047a4a0     asmserv.obj
 0002:000054a8       ??_C@_07BEILIFLN@PFRSQRT?$AA@ 0047a4a8     asmserv.obj
 0002:000054b4       ??_C@_05MKMFJHPA@PFMUL?$AA@ 0047a4b4     asmserv.obj
 0002:000054bc       ??_C@_08MKDHLILD@PFRCPIT1?$AA@ 0047a4bc     asmserv.obj
 0002:000054c8       ??_C@_08PEIBJDJI@PFRSQIT1?$AA@ 0047a4c8     asmserv.obj
 0002:000054d4       ??_C@_08OBBKOLHA@PFRCPIT2?$AA@ 0047a4d4     asmserv.obj
 0002:000054e0       ??_C@_07OPAFKKHK@PMULHRW?$AA@ 0047a4e0     asmserv.obj
 0002:000054ec       ??_C@_05EFJDLGLE@PF2IW?$AA@ 0047a4ec     asmserv.obj
 0002:000054f4       ??_C@_06PFKENGGI@PFNACC?$AA@ 0047a4f4     asmserv.obj
 0002:000054fc       ??_C@_07IJENGNML@PFPNACC?$AA@ 0047a4fc     asmserv.obj
 0002:00005508       ??_C@_05MMJPGGFI@PI2FW?$AA@ 0047a508     asmserv.obj
 0002:00005510       ??_C@_06JKGODLFN@PSWAPD?$AA@ 0047a510     asmserv.obj
 0002:00005518       ??_C@_05CKAIKK@CMPSB?$AA@  0047a518     asmserv.obj
 0002:00005520       ??_C@_05DHJPOOLO@CMPSW?$AA@ 0047a520     asmserv.obj
 0002:00005528       ??_C@_05FGHAKPCM@CMPSD?$AA@ 0047a528     asmserv.obj
 0002:00005530       ??_C@_05FEMHCJNH@LODSB?$AA@ 0047a530     asmserv.obj
 0002:00005538       ??_C@_05GDHCMPMD@LODSW?$AA@ 0047a538     asmserv.obj
 0002:00005540       ??_C@_05CJNIOFB@LODSD?$AA@ 0047a540     asmserv.obj
 0002:00005548       ??_C@_05GFILGFGG@MOVSB?$AA@ 0047a548     asmserv.obj
 0002:00005550       ??_C@_05FCDOIDHC@MOVSW?$AA@ 0047a550     asmserv.obj
 0002:00005558       ??_C@_05DDNBMCOA@MOVSD?$AA@ 0047a558     asmserv.obj
 0002:00005560       ??_C@_05FEGJIEKK@SCASB?$AA@ 0047a560     asmserv.obj
 0002:00005568       ??_C@_05GDNMGCLO@SCASW?$AA@ 0047a568     asmserv.obj
 0002:00005570       ??_C@_05CDDCDCM@SCASD?$AA@ 0047a570     asmserv.obj
 0002:00005578       ??_C@_05GGHGLIAL@STOSB?$AA@ 0047a578     asmserv.obj
 0002:00005580       ??_C@_05FBMDFOBP@STOSW?$AA@ 0047a580     asmserv.obj
 0002:00005588       ??_C@_05DACMBPIN@STOSD?$AA@ 0047a588     asmserv.obj
 0002:00005590       ??_C@_09IELMHGNE@REP?5MOVSB?$AA@ 0047a590     asmserv.obj
 0002:0000559c       ??_C@_09LDAJJAMA@REP?5MOVSW?$AA@ 0047a59c     asmserv.obj
 0002:000055a8       ??_C@_09NCOGNBFC@REP?5MOVSD?$AA@ 0047a5a8     asmserv.obj
 0002:000055b4       ??_C@_09LFPADKGF@REP?5LODSB?$AA@ 0047a5b4     asmserv.obj
 0002:000055c0       ??_C@_09ICEFNMHB@REP?5LODSW?$AA@ 0047a5c0     asmserv.obj
 0002:000055cc       ??_C@_09ODKKJNOD@REP?5LODSD?$AA@ 0047a5cc     asmserv.obj
 0002:000055d8       ??_C@_09IHEBKLLJ@REP?5STOSB?$AA@ 0047a5d8     asmserv.obj
 0002:000055e4       ??_C@_09LAPEENKN@REP?5STOSW?$AA@ 0047a5e4     asmserv.obj
 0002:000055f0       ??_C@_09NBBLAMDP@REP?5STOSD?$AA@ 0047a5f0     asmserv.obj
 0002:000055fc       ??_C@_0L@FOLMAEIH@REPE?5CMPSB?$AA@ 0047a5fc     asmserv.obj
 0002:0000560c       ??_C@_0L@GJAJOCJD@REPE?5CMPSW?$AA@ 0047a60c     asmserv.obj
 0002:0000561c       ??_C@_0L@IOGKDAB@REPE?5CMPSD?$AA@ 0047a61c     asmserv.obj
 0002:0000562c       ??_C@_0L@KPPIIIH@REPE?5SCASB?$AA@ 0047a62c     asmserv.obj
 0002:0000563c       ??_C@_0L@DNEKGOJD@REPE?5SCASW?$AA@ 0047a63c     asmserv.obj
 0002:0000564c       ??_C@_0L@FMKFCPAB@REPE?5SCASD?$AA@ 0047a64c     asmserv.obj
 0002:0000565c       ??_C@_0M@LMOGLFJA@REPNE?5CMPSB?$AA@ 0047a65c     asmserv.obj
 0002:0000566c       ??_C@_0M@ILFDFDIE@REPNE?5CMPSW?$AA@ 0047a66c     asmserv.obj
 0002:0000567c       ??_C@_0M@OKLMBCBG@REPNE?5CMPSD?$AA@ 0047a67c     asmserv.obj
 0002:0000568c       ??_C@_0M@OIKFDJJA@REPNE?5SCASB?$AA@ 0047a68c     asmserv.obj
 0002:0000569c       ??_C@_0M@NPBANPIE@REPNE?5SCASW?$AA@ 0047a69c     asmserv.obj
 0002:000056ac       ??_C@_0M@LOPPJOBG@REPNE?5SCASD?$AA@ 0047a6ac     asmserv.obj
 0002:000056bc       ??_C@_04LLEAKALK@INSB?$AA@ 0047a6bc     asmserv.obj
 0002:000056c4       ??_C@_04IMPFEGKO@INSW?$AA@ 0047a6c4     asmserv.obj
 0002:000056cc       ??_C@_04ONBKAHDM@INSD?$AA@ 0047a6cc     asmserv.obj
 0002:000056d4       ??_C@_05KIBKIDMF@OUTSB?$AA@ 0047a6d4     asmserv.obj
 0002:000056dc       ??_C@_05JPKPGFNB@OUTSW?$AA@ 0047a6dc     asmserv.obj
 0002:000056e4       ??_C@_05POEACEED@OUTSD?$AA@ 0047a6e4     asmserv.obj
 0002:000056ec       ??_C@_08ICMLAKPB@REP?5INSB?$AA@ 0047a6ec     asmserv.obj
 0002:000056f8       ??_C@_08LFHOOMOF@REP?5INSW?$AA@ 0047a6f8     asmserv.obj
 0002:00005704       ??_C@_08NEJBKNHH@REP?5INSD?$AA@ 0047a704     asmserv.obj
 0002:00005710       ??_C@_09EJCNJAHH@REP?5OUTSB?$AA@ 0047a710     asmserv.obj
 0002:0000571c       ??_C@_09HOJIHGGD@REP?5OUTSW?$AA@ 0047a71c     asmserv.obj
 0002:00005728       ??_C@_09BPHHDHPB@REP?5OUTSD?$AA@ 0047a728     asmserv.obj
 0002:00005734       ??_C@_07POGEFNFM@$LOOP?$CKZ?$AA@ 0047a734     asmserv.obj
 0002:00005740       ??_C@_08DJFIMHPA@$LOOP?$CKNZ?$AA@ 0047a740     asmserv.obj
 0002:0000574c       ??_C@_05JPDLLFLB@FWAIT?$AA@ 0047a74c     asmserv.obj
 0002:00005754       ??_C@_05LJLBPFDN@XLATB?$AA@ 0047a754     asmserv.obj
 0002:0000575c       ??_C@_07FGJGKIPB@VxDCall?$AA@ 0047a75c     asmserv.obj
 0002:00005768       ??_C@_03IDJKLHOF@JCC?$AA@  0047a768     asmserv.obj
 0002:0000576c       ??_C@_05LJNDEEJG@SETCC?$AA@ 0047a76c     asmserv.obj
 0002:00005774       ??_C@_06DJPLOGGO@CMOVCC?$AA@ 0047a774     asmserv.obj
 0002:0000577c       ??_C@_0CM@EJKOJJCD@Win95?198?5may?5crash?5when?5NEG?5ESP?5@ 0047a77c     asmserv.obj
 0002:000057b0       ??_C@_0CM@PAJOADCN@Win95?198?5may?5crash?5when?5NOT?5ESP?5@ 0047a7b0     asmserv.obj
 0002:000057e4       ??_C@_0DK@CJPDCHIK@Win95?198?5may?5crash?5when?5VxD?5call@ 0047a7e4     asmserv.obj
 0002:0000582c       ??_C@_0DH@KEGEENPA@LOCK?5CMPXCHG8B?5may?5crash?5some?5pr@ 0047a82c     asmserv.obj
 0002:00005870       ??_C@_0O@KOIBPDHB@?$CLINF?57F800000?$AA@ 0047a870     asmserv.obj
 0002:00005880       ??_C@_0O@LBJLGPFB@?9INF?5FF800000?$AA@ 0047a880     asmserv.obj
 0002:00005890       ??_C@_0L@HLIFJGMB@?$CLNAN?5?$CF08lX?$AA@ 0047a890     asmserv.obj
 0002:000058a0       ??_C@_0L@JDDAFMIC@?9NAN?5?$CF08lX?$AA@ 0047a8a0     asmserv.obj
 0002:000058b0       ??_C@_03MDAFIFFL@0?40?$AA@ 0047a8b0     asmserv.obj
 0002:000058b4       ??_C@_05NEEIEJHF@?$CF?$CD?47g?$AA@ 0047a8b4     asmserv.obj
 0002:000058bc       ??_C@_0BH@HJNEPECD@?$CLINF?57F800000?500000000?$AA@ 0047a8bc     asmserv.obj
 0002:000058d8       ??_C@_0BH@LCCEKEPA@?9INF?5FF800000?500000000?$AA@ 0047a8d8     asmserv.obj
 0002:000058f4       ??_C@_0BB@DJBMPONA@?$CLNAN?5?$CF08lX?5?$CF08lX?$AA@ 0047a8f4     asmserv.obj
 0002:00005908       ??_C@_0BB@JOCIEJNI@?9NAN?5?$CF08lX?5?$CF08lX?$AA@ 0047a908     asmserv.obj
 0002:0000591c       ??_C@_07MKMIPCIM@?$CF?$CD?416lg?$AA@ 0047a91c     asmserv.obj
 0002:00005928       ??_C@_0BM@ICHJCEKH@?$CLINF?57FFF?580000000?500000000?$AA@ 0047a928     asmserv.obj
 0002:0000594c       ??_C@_0BM@BKOLFDNJ@?9INF?5FFFF?580000000?500000000?$AA@ 0047a94c     asmserv.obj
 0002:00005970       ??_C@_0BH@IGNJEGPE@?$CFcNAN?5?$CF04X?5?$CF08lX?5?$CF08lX?$AA@ 0047a970     asmserv.obj
 0002:0000598c       ??_C@_0BH@EINIIOJO@?$CFc?$DP?$DP?$DP?5?$CF04X?5?$CF08lX?5?$CF08lX?$AA@ 0047a98c     asmserv.obj
 0002:000059a8       ??_C@_0BJ@HMFBGGMO@?$CFcUNORM?5?$CF04X?5?$CF08lX?5?$CF08lX?$AA@ 0047a9a8     asmserv.obj
 0002:000059c8       ??_C@_04BNDCEGOP@?90?40?$AA@ 0047a9c8     asmserv.obj
 0002:000059d0       ??_C@_07JAEOJBGA@?$CF?$CD?420Lg?$AA@ 0047a9d0     asmserv.obj
 0002:000059dc       ??_C@_07LDPNJFHL@?$CF?$CD?419Lf?$AA@ 0047a9dc     asmserv.obj
 0002:000059e8       ??_C@_07JINAMGLI@?$CF?$CD?419Le?$AA@ 0047a9e8     asmserv.obj
 0002:000059f4       ??_C@_02KEGNLNML@?0?5?$AA@ 0047a9f4     asmserv.obj
 0002:000059f8       __real@0000000000000000    0047a9f8     asmserv.obj
 0002:00005a08       __real@3ee4f8b588e368f1    0047aa08     asmserv.obj
 0002:00005a18       __real@3ff0000000000000    0047aa18     asmserv.obj
 0002:00005a28       __real@4202a05f20000000    0047aa28     asmserv.obj
 0002:00005a38       __real@bee4f8b588e368f1    0047aa38     asmserv.obj
 0002:00005a48       __real@bff0000000000000    0047aa48     asmserv.obj
 0002:00005a58       __real@c202a05f20000000    0047aa58     asmserv.obj
 0002:00005a64       ??_C@_0BA@FLOMBBGK@NULL?5input?5line?$AA@ 0047aa64     assembl.obj
 0002:00005a78       ??_C@_0BE@MMEKCLOK@Too?5long?5identifier?$AA@ 0047aa78     assembl.obj
 0002:00005a90       ??_C@_02LAJDCOFE@ST?$AA@   0047aa90     assembl.obj
 0002:00005a94       ??_C@_0CC@MGGNOKKP@FPU?5registers?5have?5indexes?50?5to?5@ 0047aa94     assembl.obj
 0002:00005abc       ??_C@_0BN@EILNFDMM@Closing?5parenthesis?5expected?$AA@ 0047aabc     assembl.obj
 0002:00005ae0       ??_C@_03LHIBGDPH@EIP?$AA@  0047aae0     assembl.obj
 0002:00005ae4       ??_C@_05NODMBNGI@SHORT?$AA@ 0047aae4     assembl.obj
 0002:00005aec       ??_C@_04KCJFIMMJ@LONG?$AA@ 0047aaec     assembl.obj
 0002:00005af4       ??_C@_04ILABJOOE@NEAR?$AA@ 0047aaf4     assembl.obj
 0002:00005afc       ??_C@_03JJBBPPCD@FAR?$AA@  0047aafc     assembl.obj
 0002:00005b00       ??_C@_05EIDBELPO@LOCAL?$AA@ 0047ab00     assembl.obj
 0002:00005b08       ??_C@_0BI@GLGCFIND@Integer?5number?5expected?$AA@ 0047ab08     assembl.obj
 0002:00005b24       ??_C@_03CNBDDMKH@ARG?$AA@  0047ab24     assembl.obj
 0002:00005b28       ??_C@_03HDFFPFLF@REP?$AA@  0047ab28     assembl.obj
 0002:00005b2c       ??_C@_04DGHGKJLG@REPE?$AA@ 0047ab2c     assembl.obj
 0002:00005b34       ??_C@_04PLCMKHCI@REPZ?$AA@ 0047ab34     assembl.obj
 0002:00005b3c       ??_C@_05KDGPDELB@REPNE?$AA@ 0047ab3c     assembl.obj
 0002:00005b44       ??_C@_05GODFDKCP@REPNZ?$AA@ 0047ab44     assembl.obj
 0002:00005b4c       ??_C@_04GPIFAJG@LOCK?$AA@  0047ab4c     assembl.obj
 0002:00005b54       ??_C@_03PGIOJGPL@PTR?$AA@  0047ab54     assembl.obj
 0002:00005b58       ??_C@_05NGLEMOLB@CONST?$AA@ 0047ab58     assembl.obj
 0002:00005b60       ??_C@_06KPFMBGLO@OFFSET?$AA@ 0047ab60     assembl.obj
 0002:00005b68       ??_C@_06CLKFOGHC@SIGNED?$AA@ 0047ab68     assembl.obj
 0002:00005b70       ??_C@_08FEBCPJEE@UNSIGNED?$AA@ 0047ab70     assembl.obj
 0002:00005b7c       ??_C@_04IBPLICII@CHAR?$AA@ 0047ab7c     assembl.obj
 0002:00005b84       ??_C@_05GGMHDFKJ@FLOAT?$AA@ 0047ab84     assembl.obj
 0002:00005b8c       ??_C@_06BJLJNGLL@DOUBLE?$AA@ 0047ab8c     assembl.obj
 0002:00005b94       ??_C@_07NDJJBMBA@FLOAT10?$AA@ 0047ab94     assembl.obj
 0002:00005ba0       ??_C@_06IGECGLFO@STRING?$AA@ 0047aba0     assembl.obj
 0002:00005ba8       ??_C@_07JNMBHMBK@UNICODE?$AA@ 0047aba8     assembl.obj
 0002:00005bb4       ??_C@_03GGAHOJCI@MSG?$AA@  0047abb4     assembl.obj
 0002:00005bb8       ??_C@_0BD@FNIOEKA@Unknown?5identifier?$AA@ 0047abb8     assembl.obj
 0002:00005bd0       ??_C@_0CI@JEGKNMID@Hexadecimal?5digits?5after?50x?4?4?4?5e@ 0047abd0     assembl.obj
 0002:00005c00       ??_C@_0CI@CDNNCOHE@Please?5don?8t?5mix?50xXXXX?5and?5XXXX@ 0047ac00     assembl.obj
 0002:00005c30       ??_C@_0BF@OGJGLIIG@Not?5a?5decimal?5number?$AA@ 0047ac30     assembl.obj
 0002:00005c4c       ??_C@_0BB@PHNOJALP@Invalid?5exponent?$AA@ 0047ac4c     assembl.obj
 0002:00005c60       ??_C@_0CA@KDLEHGNP@Unterminated?5character?5constant?$AA@ 0047ac60     assembl.obj
 0002:00005c88       ??_C@_0BJ@CIBHECAN@Empty?5character?5constant?$AA@ 0047ac88     assembl.obj
 0002:00005ca8       ??_C@_0N@LPKHDFBN@Syntax?5error?$AA@ 0047aca8     assembl.obj
 0002:00005cb8       ??_C@_0BF@MGHHAMDH@Too?5long?5import?5name?$AA@ 0047acb8     assembl.obj
 0002:00005cd4       ??_C@_0BJ@PPEDLFLP@Unterminated?5import?5name?$AA@ 0047acd4     assembl.obj
 0002:00005cf4       ??_C@_0CO@PDMHPED@Invalid?5combination?5of?5jump?5addr@ 0047acf4     assembl.obj
 0002:00005d2c       ??_C@_0BJ@NEDFDMFK@Integer?5address?5expected?$AA@ 0047ad2c     assembl.obj
 0002:00005d4c       ??_C@_0DC@BNNLKIH@Floating?9point?5numbers?5are?5not?5a@ 0047ad4c     assembl.obj
 0002:00005d88       ??_C@_0CB@PIMEEELE@Only?5one?5opening?5bracket?5allowed@ 0047ad88     assembl.obj
 0002:00005db0       ??_C@_0BJ@DFBHKJHE@Duplicated?5size?5modifier?$AA@ 0047adb0     assembl.obj
 0002:00005dd0       ??_C@_0BM@EDIMBKND@Duplicated?5segment?5register?$AA@ 0047add0     assembl.obj
 0002:00005df4       ??_C@_0BD@PMJDBOKM@Semicolon?5expected?$AA@ 0047adf4     assembl.obj
 0002:00005e0c       ??_C@_0CF@CIBKECB@Address?5expression?5requires?5brac@ 0047ae0c     assembl.obj
 0002:00005e38       ??_C@_0BM@EICLEDLO@Unable?5to?5subtract?5register?$AA@ 0047ae38     assembl.obj
 0002:00005e5c       ??_C@_0BD@LLICLNKC@Too?5many?5registers?$AA@ 0047ae5c     assembl.obj
 0002:00005e74       ??_C@_0CK@JDOBEKJI@Sorry?0?516?9bit?5addressing?5is?5not?5@ 0047ae74     assembl.obj
 0002:00005ea8       ??_C@_0BP@OOHGJIDA@Undefined?5scale?5is?5not?5allowed?$AA@ 0047aea8     assembl.obj
 0002:00005ed0       ??_C@_0O@EGGNDOGF@Invalid?5scale?$AA@ 0047aed0     assembl.obj
 0002:00005ee0       ??_C@_0BA@PPGKIIJA@Invalid?5address?$AA@ 0047aee0     assembl.obj
 0002:00005ef4       ??_C@_0CA@KNGKKOMO@Only?5one?5register?5may?5be?5scaled?$AA@ 0047aef4     assembl.obj
 0002:00005f1c       ??_C@_0BF@HOGIBDEE@Unrecognized?5operand?$AA@ 0047af1c     assembl.obj
 0002:00005f38       ??_C@_0CF@OKFAOFPK@Jump?5address?5modifier?5is?5not?5all@ 0047af38     assembl.obj
 0002:00005f64       ??_C@_0BH@HNDAKHIP@Internal?5OLLYDBG?5error?$AA@ 0047af64     assembl.obj
 0002:00005f80       ??_C@_0BG@EMHDIDLC@Duplicated?5REP?5prefix?$AA@ 0047af80     assembl.obj
 0002:00005f9c       ??_C@_0BH@JKBGCCE@Duplicated?5LOCK?5prefix?$AA@ 0047af9c     assembl.obj
 0002:00005fb8       ??_C@_0BK@DNDOGJMP@Command?5mnemonic?5expected?$AA@ 0047afb8     assembl.obj
 0002:00005fd8       ??_C@_06CLPJINAL@REP?5?$CFs?$AA@ 0047afd8     assembl.obj
 0002:00005fe0       ??_C@_07JNNGFADN@REPE?5?$CFs?$AA@ 0047afe0     assembl.obj
 0002:00005fec       ??_C@_08DIBNBKLK@REPNE?5?$CFs?$AA@ 0047afec     assembl.obj
 0002:00005ff8       ??_C@_0BK@EOHGPKN@Extra?5input?5after?5operand?$AA@ 0047aff8     assembl.obj
 0002:00006018       ??_C@_0BJ@BGCMBJIK@Internal?5Assembler?5error?$AA@ 0047b018     assembl.obj
 0002:00006038       ??_C@_0BF@LGLCGIBC@Unrecognized?5command?$AA@ 0047b038     assembl.obj
 0002:00006054       ??_C@_0BB@GBFMBMEN@Too?5few?5operands?$AA@ 0047b054     assembl.obj
 0002:00006068       ??_C@_0BC@OKPBNAEE@Too?5many?5operands?$AA@ 0047b068     assembl.obj
 0002:00006080       ??_C@_0CI@KCNDCFPE@Command?5does?5not?5support?5given?5o@ 0047b080     assembl.obj
 0002:000060b0       ??_C@_0BL@GOPIPKHI@Invalid?5jump?5size?5modifier?$AA@ 0047b0b0     assembl.obj
 0002:000060d0       ??_C@_0BJ@EABCHCFP@Wrong?5number?5of?5operands?$AA@ 0047b0d0     assembl.obj
 0002:000060f0       ??_C@_0BM@OHDBDKON@Please?5specify?5operand?5size?$AA@ 0047b0f0     assembl.obj
 0002:00006114       ??_C@_0BB@LMAPEECD@Bad?5operand?5size?$AA@ 0047b114     assembl.obj
 0002:00006128       ??_C@_0BL@LKOHMCBP@Different?5size?5of?5operands?$AA@ 0047b128     assembl.obj
 0002:00006148       ??_C@_0BJ@BHEIDCKB@Invalid?5segment?5register?$AA@ 0047b148     assembl.obj
 0002:00006168       ??_C@_0BP@BFOLADCJ@Constant?5out?5of?5expected?5range?$AA@ 0047b168     assembl.obj
 0002:00006190       ??_C@_0BC@BANNIBFC@Erroneous?5command?$AA@ 0047b190     assembl.obj
 0002:000061a8       ??_C@_0BG@OIDGFOGF@Invalid?5indexing?5mode?$AA@ 0047b1a8     assembl.obj
 0002:000061c4       ??_C@_0BB@IGIGECLK@Unable?5to?5POP?5CS?$AA@ 0047b1c4     assembl.obj
 0002:000061d8       ??_C@_0CD@IFPBKHIK@Constant?5does?5not?5fit?5into?5opera@ 0047b1d8     assembl.obj
 0002:00006204       ??_C@_0CN@LOGKPLI@Relative?5jump?5out?5of?5range?0?5use?5@ 0047b204     assembl.obj
 0002:00006240       __real@4024000000000000    0047b240     assembl.obj
 0002:00006250       __real@4048000000000000    0047b250     assembl.obj
 0002:0000625c       ??_C@_0L@BPDPIOID@?$CFs_REG?$CF02d?$AA@ 0047b25c     disasm.obj
 0002:0000626c       ??_C@_02DKCKIIND@?$CFs?$AA@ 0047b26c     disasm.obj
 0002:00006270       ??_C@_02BNFKEMBG@st?$AA@   0047b270     disasm.obj
 0002:00006274       ??_C@_06BHLNBNFI@?$CFs?$CI?$CFi?$CJ?$AA@ 0047b274     disasm.obj
 0002:0000627c       ??_C@_02JAOCGLHE@mm?$AA@   0047b27c     disasm.obj
 0002:00006280       ??_C@_02DNCLAJDG@MM?$AA@   0047b280     disasm.obj
 0002:00006284       ??_C@_04MDMPPDAB@?$CFs?$CFi?$AA@ 0047b284     disasm.obj
 0002:0000628c       ??_C@_0N@EOALFPCB@?$CFs_?$CFsMEM?$CF02d?$AA@ 0047b28c     disasm.obj
 0002:0000629c       ??_C@_04LPBNIBKA@PTR?5?$AA@ 0047b29c     disasm.obj
 0002:000062a4       ??_C@_05DNIIFBMG@?$CFs?5?$CFs?$AA@ 0047b2a4     disasm.obj
 0002:000062ac       ??_C@_0N@GMCLHELC@?$CI?$CFi?9BYTE?$CJ?5?$CFs?$AA@ 0047b2ac     disasm.obj
 0002:000062bc       ??_C@_03DKEJHHJP@?$CFs?3?$AA@ 0047b2bc     disasm.obj
 0002:000062c0       ??_C@_04KEMPFJED@?9?$CFlX?$AA@ 0047b2c0     disasm.obj
 0002:000062c8       ??_C@_03HKPIJKPH@?$CFlX?$AA@ 0047b2c8     disasm.obj
 0002:000062cc       ??_C@_04EHDLHMJM@near?$AA@ 0047b2cc     disasm.obj
 0002:000062d4       ??_C@_03IKGEINEE@?$CFs?5?$AA@ 0047b2d4     disasm.obj
 0002:000062d8       ??_C@_03JEOKDCFP@far?$AA@  0047b2d8     disasm.obj
 0002:000062dc       ??_C@_01MIFGBAGJ@?$CL?$AA@ 0047b2dc     disasm.obj
 0002:000062e0       ??_C@_02NIBELBKK@?$CK2?$AA@ 0047b2e0     disasm.obj
 0002:000062e4       ??_C@_02IOEOBGCM@?$CK4?$AA@ 0047b2e4     disasm.obj
 0002:000062e8       ??_C@_02CCPLFJCA@?$CK8?$AA@ 0047b2e8     disasm.obj
 0002:000062ec       ??_C@_05FOGJLOPA@BX?$CLAL?$AA@ 0047b2ec     disasm.obj
 0002:000062f4       ??_C@_06GEPEJKPD@EBX?$CLAL?$AA@ 0047b2f4     disasm.obj
 0002:000062fc       ??_C@_08MMFGLJE@?$CFs_IMM32?$AA@ 0047b2fc     disasm.obj
 0002:00006308       ??_C@_07FMFDHFEG@vxdjump?$AA@ 0047b308     disasm.obj
 0002:00006314       ??_C@_07GDEIDNCC@VxDJump?$AA@ 0047b314     disasm.obj
 0002:00006320       ??_C@_01HIHLOKLC@1?$AA@    0047b320     disasm.obj
 0002:00006324       ??_C@_0L@KMJKMOPP@?$CFs_IMM?$CF02d?$AA@ 0047b324     disasm.obj
 0002:00006334       ??_C@_05BFKKPKCG@short?$AA@ 0047b334     disasm.obj
 0002:0000633c       ??_C@_05LOENEHAJ@?$CF08lX?$AA@ 0047b33c     disasm.obj
 0002:00006344       ??_C@_04EBNJJJJI@?$CF?4?$CKs?$AA@ 0047b344     disasm.obj
 0002:0000634c       ??_C@_0N@BJJLHADD@?$CFs?5?$CF04X?3?$CF08X?$AA@ 0047b34c     disasm.obj
 0002:0000635c       ??_C@_05ONEOBAM@?$CFs_?$CFs?$AA@ 0047b35c     disasm.obj
 0002:00006364       ??_C@_05KFFJODAE@?$CF02X?3?$AA@ 0047b364     disasm.obj
 0002:0000636c       ??_C@_08BJKLNNMO@DATASIZE?$AA@ 0047b36c     disasm.obj
 0002:00006378       ??_C@_08PJEAHKBO@ADDRSIZE?$AA@ 0047b378     disasm.obj
 0002:00006384       ??_C@_01OGPIMHDM@?$DP?$AA@ 0047b384     disasm.obj
 0002:00006388       ??_C@_0L@DOKNIKCI@PREFIX?5?$CFs?3?$AA@ 0047b388     disasm.obj
 0002:00006398       ??_C@_0BD@IGFJKIID@Superfluous?5prefix?$AA@ 0047b398     disasm.obj
 0002:000063b0       ??_C@_05IMOOOKID@LOCK?5?$AA@ 0047b3b0     disasm.obj
 0002:000063b8       ??_C@_04JFFKLGJF@?$CF02X?$AA@ 0047b3b8     disasm.obj
 0002:000063c0       ??_C@_03KEJNOKD@V?$CFs?$AA@ 0047b3c0     disasm.obj
 0002:000063c4       ??_C@_03BBKEAIF@?$DP?$DP?$DP?$AA@ 0047b3c4     disasm.obj
 0002:000063c8       ??_C@_0CE@NCCFEBPM@Command?5crosses?5end?5of?5memory?5bl@ 0047b3c8     disasm.obj
 0002:000063f4       ??_C@_0BA@MPOJHAMO@Unknown?5command?$AA@ 0047b3f4     disasm.obj
 0002:00006408       ??_C@_0BL@PBNMDHJE@Undefined?5segment?5register?$AA@ 0047b408     disasm.obj
 0002:00006428       ??_C@_0BI@EKOMELAL@Illegal?5use?5of?5register?$AA@ 0047b428     disasm.obj
 0002:00006444       ??_C@_0BL@GANPMEJI@Memory?5address?5not?5allowed?$AA@ 0047b444     disasm.obj
 0002:00006464       ??_C@_0O@NIPGCINC@Unknown?5error?$AA@ 0047b464     disasm.obj
 0002:00006474       ??_C@_0BD@LJLJEHAF@Privileged?5command?$AA@ 0047b474     disasm.obj
 0002:0000648c       ??_C@_0M@OHNEPNKN@I?1O?5command?$AA@ 0047b48c     disasm.obj
 0002:0000649c       ??_C@_08DEDHOLAK@Far?5jump?$AA@ 0047b49c     disasm.obj
 0002:000064a8       ??_C@_08BOJHONJ@Far?5call?$AA@ 0047b4a8     disasm.obj
 0002:000064b4       ??_C@_0L@GMPFMIKJ@Far?5return?$AA@ 0047b4b4     disasm.obj
 0002:000064c4       ??_C@_0CB@LHNPLLBD@Modification?5of?5segment?5register@ 0047b4c4     disasm.obj
 0002:000064ec       ??_C@_0CC@LPFNBAMB@Shift?5constant?5out?5of?5range?51?4?43@ 0047b4ec     disasm.obj
 0002:00006514       ??_C@_0M@GBDCECLF@LOCK?5prefix?$AA@ 0047b514     disasm.obj
 0002:00006524       ??_C@_0BK@KDMBFBHJ@Unaligned?5stack?5operation?$AA@ 0047b524     disasm.obj
 0002:00006544       ??_C@_17CNPHIMPH@?$AA?$CF?$AAl?$AAs?$AA?$AA@ 0047b544     DebugLog.obj
 0002:00006550       ??_C@_1JA@DKOIEICI@?$AAc?$AA?3?$AA?2?$AAp?$AAr?$AAo?$AAg?$AAr?$AAa?$AAm?$AA?5?$AAf?$AAi?$AAl?$AAe?$AAs?$AA?5?$AA?$CI?$AAx?$AA8?$AA6?$AA?$CJ?$AA?2?$AAm?$AAi?$AAc?$AAr?$AAo?$AAs?$AAo?$AAf?$AAt@ 0047b550     DebugLog.obj
 0002:000065fc       ??_C@_1CG@JNLFBNGN@?$AA?$CC?$AAi?$AAn?$AAv?$AAa?$AAl?$AAi?$AAd?$AA?5?$AAa?$AAr?$AAg?$AAu?$AAm?$AAe?$AAn?$AAt?$AA?$CC?$AA?$AA@ 0047b5fc     DebugLog.obj
 0002:0000662c       ??_C@_0BN@HMCJOMKN@_Count?5?$DM?$DN?5?$CIsize_t?$CJ?$CI?91?$CJ?5?1?5_Sz?$AA@ 0047b62c     DebugLog.obj
 0002:00006650       ??_C@_1EI@MLOBABC@?$AA?$CC?$AA_?$AAC?$AAo?$AAu?$AAn?$AAt?$AA?5?$AA?$DM?$AA?$DN?$AA?5?$AA?$CI?$AAs?$AAi?$AAz?$AAe?$AA_?$AAt?$AA?$CJ?$AA?$CI?$AA?9?$AA1?$AA?$CJ?$AA?5?$AA?1?$AA?5?$AA_?$AAS?$AAz?$AA?$CC?$AA?5?$AA?$CG@ 0047b650     DebugLog.obj
 0002:000066a8       ??_C@_1CC@LOFJFFDB@?$AAs?$AAt?$AAd?$AA?3?$AA?3?$AA_?$AAD?$AAe?$AAa?$AAl?$AAl?$AAo?$AAc?$AAa?$AAt?$AAe?$AA?$AA@ 0047b6a8     DebugLog.obj
 0002:000066d0       ??_C@_0DD@GBGGGKGG@?$CI_Ptr_user?5?$CG?5?$CI_BIG_ALLOCATION_AL@ 0047b6d0     DebugLog.obj
 0002:00006710       ??_C@_1HE@CDMBFOKC@?$AA?$CC?$AA?$CI?$AA_?$AAP?$AAt?$AAr?$AA_?$AAu?$AAs?$AAe?$AAr?$AA?5?$AA?$CG?$AA?5?$AA?$CI?$AA_?$AAB?$AAI?$AAG?$AA_?$AAA?$AAL?$AAL?$AAO?$AAC?$AAA?$AAT?$AAI?$AAO?$AAN?$AA_?$AAA@ 0047b710     DebugLog.obj
 0002:000067a0       ??_C@_0EI@NOJHEJCJ@reinterpret_cast?$DMuintptr_t?5?$CK?$DO?$CI_P@ 0047b7a0     DebugLog.obj
 0002:000067f8       ??_C@_1JO@EKLKIEHP@?$AA?$CC?$AAr?$AAe?$AAi?$AAn?$AAt?$AAe?$AAr?$AAp?$AAr?$AAe?$AAt?$AA_?$AAc?$AAa?$AAs?$AAt?$AA?$DM?$AAu?$AAi?$AAn?$AAt?$AAp?$AAt?$AAr?$AA_?$AAt?$AA?5?$AA?$CK?$AA?$DO?$AA?$CI?$AA_@ 0047b7f8     DebugLog.obj
 0002:000068b8       ??_C@_0BL@OCKMEJON@_Ptr_container?5?$DM?5_Ptr_user?$AA@ 0047b8b8     DebugLog.obj
 0002:000068d8       ??_C@_1EE@PDHAHDDC@?$AA?$CC?$AA_?$AAP?$AAt?$AAr?$AA_?$AAc?$AAo?$AAn?$AAt?$AAa?$AAi?$AAn?$AAe?$AAr?$AA?5?$AA?$DM?$AA?5?$AA_?$AAP?$AAt?$AAr?$AA_?$AAu?$AAs?$AAe?$AAr?$AA?$CC?$AA?5?$AA?$CG?$AA?$CG?$AA?5@ 0047b8d8     DebugLog.obj
 0002:0000692c       ??_C@_0DB@GLFJLNCE@2?5?$CK?5sizeof?$CIvoid?5?$CK?$CJ?5?$DM?$DN?5_Ptr_user?5@ 0047b92c     DebugLog.obj
 0002:00006968       ??_C@_1HA@NAPGMHAO@?$AA?$CC?$AA2?$AA?5?$AA?$CK?$AA?5?$AAs?$AAi?$AAz?$AAe?$AAo?$AAf?$AA?$CI?$AAv?$AAo?$AAi?$AAd?$AA?5?$AA?$CK?$AA?$CJ?$AA?5?$AA?$DM?$AA?$DN?$AA?5?$AA_?$AAP?$AAt?$AAr?$AA_?$AAu?$AAs?$AAe?$AAr@ 0047b968     DebugLog.obj
 0002:000069f0       ??_C@_0CN@BLHJCAL@_Ptr_user?5?9?5_Ptr_container?5?$DM?$DN?5_N@ 0047b9f0     DebugLog.obj
 0002:00006a28       ??_C@_1GI@DHJGPFNI@?$AA?$CC?$AA_?$AAP?$AAt?$AAr?$AA_?$AAu?$AAs?$AAe?$AAr?$AA?5?$AA?9?$AA?5?$AA_?$AAP?$AAt?$AAr?$AA_?$AAc?$AAo?$AAn?$AAt?$AAa?$AAi?$AAn?$AAe?$AAr?$AA?5?$AA?$DM?$AA?$DN?$AA?5?$AA_@ 0047ba28     DebugLog.obj
 0002:00006aa4       ??_C@_02LMMGGCAJ@?3?5?$AA@ 0047baa4     DebugLog.obj
 0002:00006aa8       ??_C@_0BB@JCEFLFJE@0123456789abcdef?$AA@ 0047baa8     DebugLog.obj
 0002:00006ac0       ??_C@_0MJ@HFBCCPGP@00010203040506070809101112131415@ 0047bac0     DebugLog.obj
 0002:00006bb8       ??_C@_0CAB@NJMJMIBI@000102030405060708090A0B0C0D0E0F@ 0047bbb8     DebugLog.obj
 0002:00006e20       ??_C@_04PIGOJDCH@?$AN?6?7?$FL?$AA@ 0047be20     DebugLog.obj
 0002:00006e28       ??_C@_03PAIEMGKB@?$AN?6?7?$AA@ 0047be28     DebugLog.obj
 0002:00006e2c       ??_C@_03NJNOMAJF@?5?4?5?$AA@ 0047be2c     DebugLog.obj
 0002:00006e30       ??_C@_07GMBLNGPJ@?$AN?6?7?$FN?$AN?6?7?$AA@ 0047be30     DebugLog.obj
 0002:00006e3c       ??_C@_05CIMNLLAJ@?4?1log?$AA@ 0047be3c     DebugLog.obj
 0002:00006e44       ??_C@_0DG@JALDEIIE@d?3?2?$LD?L?P?r?2petools?2petools?2commonli@ 0047be44     DebugLog.obj
 0002:00006e84       ??_C@_01JLIPDDHJ@?3?$AA@   0047be84     DebugLog.obj
 0002:00006ee8       ??_C@_09GGKLIPBA@LOG_TRACE?$AA@ 0047bee8     log4z.obj
 0002:00006ef4       ??_C@_09IPJFNELH@LOG_DEBUG?$AA@ 0047bef4     log4z.obj
 0002:00006f00       ??_C@_09PALELKOJ@LOG_INFO?5?$AA@ 0047bf00     log4z.obj
 0002:00006f0c       ??_C@_09JFIBOECM@LOG_WARN?5?$AA@ 0047bf0c     log4z.obj
 0002:00006f18       ??_C@_09OABENLKN@LOG_ERROR?$AA@ 0047bf18     log4z.obj
 0002:00006f24       ??_C@_09DPFNHGJE@LOG_ALARM?$AA@ 0047bf24     log4z.obj
 0002:00006f30       ??_C@_09LKHEAJFI@LOG_FATAL?$AA@ 0047bf30     log4z.obj
 0002:00006f3c       ??_C@_04KGFMLCPK@Main?$AA@ 0047bf3c     log4z.obj
 0002:00006f44       ??_C@_06GLOIENHC@?4?1log?1?$AA@ 0047bf44     log4z.obj
 0002:00006f50       ??_C@_1JA@MHADJNIL@?$AAc?$AA?3?$AA?2?$AAp?$AAr?$AAo?$AAg?$AAr?$AAa?$AAm?$AA?5?$AAf?$AAi?$AAl?$AAe?$AAs?$AA?5?$AA?$CI?$AAx?$AA8?$AA6?$AA?$CJ?$AA?2?$AAm?$AAi?$AAc?$AAr?$AAo?$AAs?$AAo?$AAf?$AAt@ 0047bf50     log4z.obj
 0002:00006ffc       ??_C@_1DC@POOIKBAO@?$AAI?$AAT?$AAE?$AAR?$AAA?$AAT?$AAO?$AAR?$AA?5?$AAL?$AAI?$AAS?$AAT?$AA?5?$AAC?$AAO?$AAR?$AAR?$AAU?$AAP?$AAT?$AAE?$AAD?$AA?$CB?$AA?$AA@ 0047bffc     log4z.obj
 0002:00007038       ??_C@_0BE@LMNLACIC@_Ptr_container?5?$CB?$DN?50?$AA@ 0047c038     log4z.obj
 0002:00007050       ??_C@_1DG@HGDKEBPG@?$AA?$CC?$AA_?$AAP?$AAt?$AAr?$AA_?$AAc?$AAo?$AAn?$AAt?$AAa?$AAi?$AAn?$AAe?$AAr?$AA?5?$AA?$CB?$AA?$DN?$AA?5?$AA0?$AA?$CC?$AA?5?$AA?$CG?$AA?$CG?$AA?5?$AA0?$AA?$AA@ 0047c050     log4z.obj
 0002:00007090       ??_C@_1BO@NKFMJPA@?$AAs?$AAt?$AAd?$AA?3?$AA?3?$AA_?$AAA?$AAl?$AAl?$AAo?$AAc?$AAa?$AAt?$AAe?$AA?$AA@ 0047c090     log4z.obj
 0002:000070b4       ??_C@_09GLJCAGLP@_Ptr?5?$CB?$DN?50?$AA@ 0047c0b4     log4z.obj
 0002:000070c0       ??_C@_1CC@GKJLLHIM@?$AA?$CC?$AA_?$AAP?$AAt?$AAr?$AA?5?$AA?$CB?$AA?$DN?$AA?5?$AA0?$AA?$CC?$AA?5?$AA?$CG?$AA?$CG?$AA?5?$AA0?$AA?$AA@ 0047c0c0     log4z.obj
 0002:000070e8       ?npos@?$basic_string@DU?$char_traits@D@std@@V?$allocator@D@2@@std@@2IB 0047c0e8     log4z.obj
 0002:000070ec       ??_C@_05LAPONLG@false?$AA@ 0047c0ec     log4z.obj
 0002:000070f4       ??_C@_04LOAJBDKD@true?$AA@ 0047c0f4     log4z.obj
 0002:00007100       ??_7ILog4zManager@log4z@zsummer@@6B@ 0047c100     log4z.obj
 0002:00007190       ??_7LockHelper@log4z@zsummer@@6B@ 0047c190     log4z.obj
 0002:0000719c       ??_7SemHelper@log4z@zsummer@@6B@ 0047c19c     log4z.obj
 0002:000071a8       ??_7ThreadHelper@log4z@zsummer@@6B@ 0047c1a8     log4z.obj
 0002:000071b8       ??_7LogerManager@log4z@zsummer@@6BThreadHelper@12@@ 0047c1b8     log4z.obj
 0002:000071c8       ??_7LogerManager@log4z@zsummer@@6BILog4zManager@12@@ 0047c1c8     log4z.obj
 0002:00007254       ??_C@_01KMDKNFGN@?1?$AA@   0047c254     log4z.obj
 0002:00007258       ??_C@_04DEKFDDBK@?$AN?6?7?5?$AA@ 0047c258     log4z.obj
 0002:00007260       ??_C@_01NEMOKFLO@?$DN?$AA@ 0047c260     log4z.obj
 0002:00007264       ??_C@_02GPECMEKF@?$FL?$FN?$AA@ 0047c264     log4z.obj
 0002:00007268       ??_C@_04GHJNJNPO@main?$AA@ 0047c268     log4z.obj
 0002:00007270       ??_C@_0EC@MOBAJIFH@log4z?5configure?5warning?3?5duplica@ 0047c270     log4z.obj
 0002:000072c0       ??_C@_0FM@PGHGLBK@log4z?5configure?5warning?3?5not?5fou@ 0047c2c0     log4z.obj
 0002:00007330       ??_C@_04LNEJFJGI@path?$AA@ 0047c330     log4z.obj
 0002:00007338       ??_C@_04MEMAJGDJ@name?$AA@ 0047c338     log4z.obj
 0002:00007340       ??_C@_05KJNJLLGA@level?$AA@ 0047c340     log4z.obj
 0002:00007348       ??_C@_05IMBNNINJ@trace?$AA@ 0047c348     log4z.obj
 0002:00007350       ??_C@_03NFKEKGGK@all?$AA@  0047c350     log4z.obj
 0002:00007354       ??_C@_05GFCDIDHO@debug?$AA@ 0047c354     log4z.obj
 0002:0000735c       ??_C@_04NIDJFNBE@info?$AA@ 0047c35c     log4z.obj
 0002:00007364       ??_C@_04FNLOFOEM@warn?$AA@ 0047c364     log4z.obj
 0002:0000736c       ??_C@_07FPLKDJGL@warning?$AA@ 0047c36c     log4z.obj
 0002:00007378       ??_C@_05KKCIMGE@error?$AA@ 0047c378     log4z.obj
 0002:00007380       ??_C@_05NFOLCBFN@alarm?$AA@ 0047c380     log4z.obj
 0002:00007388       ??_C@_05FAMCFOJB@fatal?$AA@ 0047c388     log4z.obj
 0002:00007390       ??_C@_07GCCODDFC@display?$AA@ 0047c390     log4z.obj
 0002:0000739c       ??_C@_01GBGANLPD@0?$AA@    0047c39c     log4z.obj
 0002:000073a0       ??_C@_07LEOOLFBI@outfile?$AA@ 0047c3a0     log4z.obj
 0002:000073ac       ??_C@_08LBCCPANJ@monthdir?$AA@ 0047c3ac     log4z.obj
 0002:000073b8       ??_C@_09FLKNOHPB@limitsize?$AA@ 0047c3b8     log4z.obj
 0002:000073c4       ??_C@_08KNCLELJK@fileline?$AA@ 0047c3c4     log4z.obj
 0002:000073d0       ??_C@_06OFNJOBDK@enable?$AA@ 0047c3d0     log4z.obj
 0002:000073d8       ??_C@_07PIICLBHM@reserve?$AA@ 0047c3d8     log4z.obj
 0002:000073e4       ??_C@_04LCHJEEKG@?$CF06u?$AA@ 0047c3e4     log4z.obj
 0002:000073ec       ??_C@_07DEBHDLBL@process?$AA@ 0047c3ec     log4z.obj
 0002:000073f8       ??_C@_01KICIPPFI@?2?$AA@   0047c3f8     log4z.obj
 0002:000073fc       ??_C@_01LFCBOECM@?4?$AA@   0047c3fc     log4z.obj
 0002:00007400       ??_C@_0CF@JPFJGHHE@log4z?3?5create?5log4z?5thread?5error@ 0047c400     log4z.obj
 0002:0000742c       ??_C@_0BD@HOHLGPP@?5?$CB?$CB?$CB?5?$CB?$CB?$CB?5?$CB?$CB?$CB?5?$CB?$CB?$CB?$AN?6?$AA@ 0047c42c     log4z.obj
 0002:00007444       ??_C@_0CJ@JMMAEMON@?5?$CB?$CB?$CB?5?$CB?$CB?$CB?5log4z?5load?5config?5file?5@ 0047c444     log4z.obj
 0002:00007478       ??_C@_0HF@CGEDJDMM@?5?$CB?$CB?$CB?5?$CB?$CB?$CB?5log4z?5configure?5error?3?5@ 0047c478     log4z.obj
 0002:00007504       ??_C@_02JDPG@rb?$AA@       0047c504     log4z.obj
 0002:00007508       ??_C@_0DP@PCLBBCGD@?5?$CB?$CB?$CB?5?$CB?$CB?$CB?5log4z?5load?5config?5file?5@ 0047c508     log4z.obj
 0002:00007558       ??_C@_0FF@JAFONCO@log4z?3?5CreateLogger?5can?5not?5crea@ 0047c558     log4z.obj
 0002:000075c0       ??_C@_0BH@NIJFBDOO@log4z?5already?5start?5?$AN?6?$AA@ 0047c5c0     log4z.obj
 0002:000075dc       ??_C@_0BC@OLADBBDD@log4z?5stopping?5?$AN?6?$AA@ 0047c5dc     log4z.obj
 0002:000075f4       ??_C@_0DH@HCNDPBEJ@log4z?3?5openLogger?5can?5not?5open?0?5@ 0047c5f4     log4z.obj
 0002:00007638       ??_C@_0L@IABAOMH@?$CF04d_?$CF02d?1?$AA@ 0047c638     log4z.obj
 0002:00007648       ??_C@_0CD@LICGNEOJ@?$CFs_?$CFs_?$CF04d?$CF02d?$CF02d?$CF02d_?$CFs_?$CF03u?4l@ 0047c648     log4z.obj
 0002:00007674       ??_C@_0CH@KMDNPMLG@?$CFs_?$CFs_?$CF04d?$CF02d?$CF02d?$CF02d?$CF02d_?$CFs_?$CF0@ 0047c674     log4z.obj
 0002:000076a4       ??_C@_02BOGAIONP@ab?$AA@   0047c6a4     log4z.obj
 0002:000076a8       ??_C@_0CE@OMMBLFPA@log4z?3?5can?5not?5open?5log?5file?5?$CFs?4@ 0047c6a8     log4z.obj
 0002:000076d4       ??_C@_0BO@JCLBGKFM@?$CB?$CB?$CB?$CB?$CB?$CB?$CB?$CB?$CB?$CB?$CB?$CB?$CB?$CB?$CB?$CB?$CB?$CB?$CB?$CB?$CB?$CB?$CB?$CB?$CB?$CB?5?$AN?6?$AA@ 0047c6d4     log4z.obj
 0002:000076f8       ??_C@_0DJ@IAMOEBK@log4z?3?5closeLogger?5can?5not?5close@ 0047c6f8     log4z.obj
 0002:00007740       ??_C@_0EI@HICJOEIN@?9?9?9?9?9?9?9?9?9?9?9?9?9?9?9?9?9?5?5log4z?5thread?5@ 0047c740     log4z.obj
 0002:00007798       ??_C@_0DD@HPBOEDCC@d?3?2?$LD?L?P?r?2petools?2petools?2commonli@ 0047c798     log4z.obj
 0002:000077d8       ??_C@_0L@DBMLCDJJ@logger?5id?$DN?$AA@ 0047c7d8     log4z.obj
 0002:000077e8       ??_C@_05JKEDABGG@?5key?$DN?$AA@ 0047c7e8     log4z.obj
 0002:000077f0       ??_C@_06NGDKEHGB@?5name?$DN?$AA@ 0047c7f0     log4z.obj
 0002:000077f8       ??_C@_06MKCPKPMM@?5path?$DN?$AA@ 0047c7f8     log4z.obj
 0002:00007800       ??_C@_07CGMLJCBM@?5level?$DN?$AA@ 0047c800     log4z.obj
 0002:0000780c       ??_C@_09KFDBCJFN@?5display?$DN?$AA@ 0047c80c     log4z.obj
 0002:00007818       ??_C@_1IK@BHJCIFB@?$AAc?$AA?3?$AA?2?$AAp?$AAr?$AAo?$AAg?$AAr?$AAa?$AAm?$AA?5?$AAf?$AAi?$AAl?$AAe?$AAs?$AA?5?$AA?$CI?$AAx?$AA8?$AA6?$AA?$CJ?$AA?2?$AAm?$AAi?$AAc?$AAr?$AAo?$AAs?$AAo?$AAf?$AAt@ 0047c818     log4z.obj
 0002:000078c0       ??_C@_1DO@CFEEPGGJ@?$AAm?$AAa?$AAp?$AA?1?$AAs?$AAe?$AAt?$AA?5?$AAi?$AAt?$AAe?$AAr?$AAa?$AAt?$AAo?$AAr?$AAs?$AA?5?$AAi?$AAn?$AAc?$AAo?$AAm?$AAp?$AAa?$AAt?$AAi?$AAb?$AAl?$AAe?$AA?$AA@ 0047c8c0     log4z.obj
 0002:0000790c       ??_C@_0CI@FNPHFCCM@Standard?5C?$CL?$CL?5Libraries?5Invalid?5A@ 0047c90c     log4z.obj
 0002:00007940       ??_C@_1FO@GJIHNDLM@?$AA?$CC?$AAS?$AAt?$AAa?$AAn?$AAd?$AAa?$AAr?$AAd?$AA?5?$AAC?$AA?$CL?$AA?$CL?$AA?5?$AAL?$AAi?$AAb?$AAr?$AAa?$AAr?$AAi?$AAe?$AAs?$AA?5?$AAI?$AAn?$AAv?$AAa?$AAl?$AAi?$AAd?$AA?5@ 0047c940     log4z.obj
 0002:000079b0       ??_C@_1BOI@HCKICPEB@?$AAs?$AAt?$AAd?$AA?3?$AA?3?$AA_?$AAT?$AAr?$AAe?$AAe?$AA_?$AAc?$AAo?$AAn?$AAs?$AAt?$AA_?$AAi?$AAt?$AAe?$AAr?$AAa?$AAt?$AAo?$AAr?$AA?$DM?$AAc?$AAl?$AAa?$AAs?$AAs?$AA?5@ 0047c9b0     log4z.obj
 0002:00007c00       ??_C@_1IM@NCODKBJH@?$AAc?$AA?3?$AA?2?$AAp?$AAr?$AAo?$AAg?$AAr?$AAa?$AAm?$AA?5?$AAf?$AAi?$AAl?$AAe?$AAs?$AA?5?$AA?$CI?$AAx?$AA8?$AA6?$AA?$CJ?$AA?2?$AAm?$AAi?$AAc?$AAr?$AAo?$AAs?$AAo?$AAf?$AAt@ 0047cc00     log4z.obj
 0002:00007ca8       ??_C@_1DA@JIKEAPDO@?$AAv?$AAe?$AAc?$AAt?$AAo?$AAr?$AA?5?$AAe?$AAm?$AAp?$AAt?$AAy?$AA?5?$AAb?$AAe?$AAf?$AAo?$AAr?$AAe?$AA?5?$AAp?$AAo?$AAp?$AA?$AA@ 0047cca8     log4z.obj
 0002:00007ce8       ??_C@_1IK@ENFOGHIC@?$AAc?$AA?3?$AA?2?$AAp?$AAr?$AAo?$AAg?$AAr?$AAa?$AAm?$AA?5?$AAf?$AAi?$AAl?$AAe?$AAs?$AA?5?$AA?$CI?$AAx?$AA8?$AA6?$AA?$CJ?$AA?2?$AAm?$AAi?$AAc?$AAr?$AAo?$AAs?$AAo?$AAf?$AAt@ 0047cce8     log4z.obj
 0002:00007d90       ??_C@_1CO@FNIDKHMC@?$AAd?$AAe?$AAq?$AAu?$AAe?$AA?5?$AAe?$AAm?$AAp?$AAt?$AAy?$AA?5?$AAb?$AAe?$AAf?$AAo?$AAr?$AAe?$AA?5?$AAp?$AAo?$AAp?$AA?$AA@ 0047cd90     log4z.obj
 0002:00007dc8       ??_C@_1IO@EADHKMNI@?$AAc?$AA?3?$AA?2?$AAp?$AAr?$AAo?$AAg?$AAr?$AAa?$AAm?$AA?5?$AAf?$AAi?$AAl?$AAe?$AAs?$AA?5?$AA?$CI?$AAx?$AA8?$AA6?$AA?$CJ?$AA?2?$AAm?$AAi?$AAc?$AAr?$AAo?$AAs?$AAo?$AAf?$AAt@ 0047cdc8     log4z.obj
 0002:00007e74       ??_C@_1DM@GMPLOCPK@?$AAs?$AAt?$AAr?$AAi?$AAn?$AAg?$AA?5?$AAs?$AAu?$AAb?$AAs?$AAc?$AAr?$AAi?$AAp?$AAt?$AA?5?$AAo?$AAu?$AAt?$AA?5?$AAo?$AAf?$AA?5?$AAr?$AAa?$AAn?$AAg?$AAe?$AA?$AA@ 0047ce74     log4z.obj
 0002:00007ec0       ??_C@_1EG@EHJFMBHJ@?$AAm?$AAa?$AAp?$AA?1?$AAs?$AAe?$AAt?$AA?5?$AAi?$AAt?$AAe?$AAr?$AAa?$AAt?$AAo?$AAr?$AA?5?$AAn?$AAo?$AAt?$AA?5?$AAi?$AAn?$AAc?$AAr?$AAe?$AAm?$AAe?$AAn?$AAt?$AAa?$AAb@ 0047cec0     log4z.obj
 0002:00007f14       ??_C@_0CE@OFMIGAMM@Standard?5C?$CL?$CL?5Libraries?5Out?5of?5Ra@ 0047cf14     log4z.obj
 0002:00007f40       ??_C@_1FG@IBPIFFN@?$AA?$CC?$AAS?$AAt?$AAa?$AAn?$AAd?$AAa?$AAr?$AAd?$AA?5?$AAC?$AA?$CL?$AA?$CL?$AA?5?$AAL?$AAi?$AAb?$AAr?$AAa?$AAr?$AAi?$AAe?$AAs?$AA?5?$AAO?$AAu?$AAt?$AA?5?$AAo?$AAf?$AA?5?$AAR@ 0047cf40     log4z.obj
 0002:00007fa8       ??_C@_1BOI@NCFFMGIE@?$AAs?$AAt?$AAd?$AA?3?$AA?3?$AA_?$AAT?$AAr?$AAe?$AAe?$AA_?$AAc?$AAo?$AAn?$AAs?$AAt?$AA_?$AAi?$AAt?$AAe?$AAr?$AAa?$AAt?$AAo?$AAr?$AA?$DM?$AAc?$AAl?$AAa?$AAs?$AAs?$AA?5@ 0047cfa8     log4z.obj
 0002:000081f4       ??_C@_1BO@MEPPHOO@?$AA?$CC?$AAo?$AAu?$AAt?$AA?5?$AAo?$AAf?$AA?5?$AAr?$AAa?$AAn?$AAg?$AAe?$AA?$CC?$AA?$AA@ 0047d1f4     log4z.obj
 0002:00008218       ??_C@_1BKM@LBOFJKLH@?$AAs?$AAt?$AAd?$AA?3?$AA?3?$AA_?$AAT?$AAr?$AAe?$AAe?$AA_?$AAc?$AAo?$AAn?$AAs?$AAt?$AA_?$AAi?$AAt?$AAe?$AAr?$AAa?$AAt?$AAo?$AAr?$AA?$DM?$AAc?$AAl?$AAa?$AAs?$AAs?$AA?5@ 0047d218     log4z.obj
 0002:00008420       ??_C@_1EE@HAKOGNPH@?$AAs?$AAt?$AAr?$AAi?$AAn?$AAg?$AA?5?$AAi?$AAt?$AAe?$AAr?$AAa?$AAt?$AAo?$AAr?$AA?5?$AAn?$AAo?$AAt?$AA?5?$AAi?$AAn?$AAc?$AAr?$AAe?$AAm?$AAe?$AAn?$AAt?$AAa?$AAb?$AAl@ 0047d420     log4z.obj
 0002:00008478       ??_C@_1MI@IFMPOAI@?$AAs?$AAt?$AAd?$AA?3?$AA?3?$AA_?$AAS?$AAt?$AAr?$AAi?$AAn?$AAg?$AA_?$AAc?$AAo?$AAn?$AAs?$AAt?$AA_?$AAi?$AAt?$AAe?$AAr?$AAa?$AAt?$AAo?$AAr?$AA?$DM?$AAc?$AAl?$AAa?$AAs@ 0047d478     log4z.obj
 0002:00008568       ??_C@_1EG@CNCHLAOB@?$AAs?$AAt?$AAr?$AAi?$AAn?$AAg?$AA?5?$AAi?$AAt?$AAe?$AAr?$AAa?$AAt?$AAo?$AAr?$AA?5?$AAn?$AAo?$AAt?$AA?5?$AAd?$AAe?$AAr?$AAe?$AAf?$AAe?$AAr?$AAe?$AAn?$AAc?$AAa?$AAb@ 0047d568     log4z.obj
 0002:000085c0       ??_C@_1MG@GDGHDIKC@?$AAs?$AAt?$AAd?$AA?3?$AA?3?$AA_?$AAS?$AAt?$AAr?$AAi?$AAn?$AAg?$AA_?$AAc?$AAo?$AAn?$AAs?$AAt?$AA_?$AAi?$AAt?$AAe?$AAr?$AAa?$AAt?$AAo?$AAr?$AA?$DM?$AAc?$AAl?$AAa?$AAs@ 0047d5c0     log4z.obj
 0002:000086b0       ??_C@_0BA@JFNIOLAK@string?5too?5long?$AA@ 0047d6b0     log4z.obj
 0002:000086c8       ??_C@_1EI@FHEHNNNM@?$AAm?$AAa?$AAp?$AA?1?$AAs?$AAe?$AAt?$AA?5?$AAi?$AAt?$AAe?$AAr?$AAa?$AAt?$AAo?$AAr?$AA?5?$AAn?$AAo?$AAt?$AA?5?$AAd?$AAe?$AAr?$AAe?$AAf?$AAe?$AAr?$AAe?$AAn?$AAc?$AAa@ 0047d6c8     log4z.obj
 0002:00008720       ??_C@_1BOG@OFPJKNDB@?$AAs?$AAt?$AAd?$AA?3?$AA?3?$AA_?$AAT?$AAr?$AAe?$AAe?$AA_?$AAc?$AAo?$AAn?$AAs?$AAt?$AA_?$AAi?$AAt?$AAe?$AAr?$AAa?$AAt?$AAo?$AAr?$AA?$DM?$AAc?$AAl?$AAa?$AAs?$AAs?$AA?5@ 0047d720     log4z.obj
 0002:00008968       ??_C@_1EG@FOHJJHAC@?$AAv?$AAe?$AAc?$AAt?$AAo?$AAr?$AA?5?$AAi?$AAt?$AAe?$AAr?$AAa?$AAt?$AAo?$AAr?$AA?5?$AAn?$AAo?$AAt?$AA?5?$AAd?$AAe?$AAr?$AAe?$AAf?$AAe?$AAr?$AAe?$AAn?$AAc?$AAa?$AAb@ 0047d968     log4z.obj
 0002:000089c0       ??_C@_1PO@GDMAAEEN@?$AAs?$AAt?$AAd?$AA?3?$AA?3?$AA_?$AAV?$AAe?$AAc?$AAt?$AAo?$AAr?$AA_?$AAc?$AAo?$AAn?$AAs?$AAt?$AA_?$AAi?$AAt?$AAe?$AAr?$AAa?$AAt?$AAo?$AAr?$AA?$DM?$AAc?$AAl?$AAa?$AAs@ 0047d9c0     log4z.obj
 0002:00008af0       ??_C@_0BD@OLBABOEK@vector?$DMT?$DO?5too?5long?$AA@ 0047daf0     log4z.obj
 0002:00008b08       ??_C@_1EE@INPCGGNP@?$AAd?$AAe?$AAq?$AAu?$AAe?$AA?5?$AAi?$AAt?$AAe?$AAr?$AAa?$AAt?$AAo?$AAr?$AA?5?$AAn?$AAo?$AAt?$AA?5?$AAd?$AAe?$AAr?$AAe?$AAf?$AAe?$AAr?$AAe?$AAn?$AAc?$AAa?$AAb?$AAl@ 0047db08     log4z.obj
 0002:00008b60       ??_C@_1BAG@NDHNNHBF@?$AAs?$AAt?$AAd?$AA?3?$AA?3?$AA_?$AAD?$AAe?$AAq?$AAu?$AAe?$AA_?$AAc?$AAo?$AAn?$AAs?$AAt?$AA_?$AAi?$AAt?$AAe?$AAr?$AAa?$AAt?$AAo?$AAr?$AA?$DM?$AAc?$AAl?$AAa?$AAs?$AAs@ 0047db60     log4z.obj
 0002:00008c9c       ??_C@_0BC@KBDMBKEH@deque?$DMT?$DO?5too?5long?$AA@ 0047dc9c     log4z.obj
 0002:00008cb8       ??_C@_1BKK@NKNEDAJK@?$AAs?$AAt?$AAd?$AA?3?$AA?3?$AA_?$AAT?$AAr?$AAe?$AAe?$AA_?$AAc?$AAo?$AAn?$AAs?$AAt?$AA_?$AAi?$AAt?$AAe?$AAr?$AAa?$AAt?$AAo?$AAr?$AA?$DM?$AAc?$AAl?$AAa?$AAs?$AAs?$AA?5@ 0047dcb8     log4z.obj
 0002:00008eb8       ??_C@_1II@MMKOEKPG@?$AAc?$AA?3?$AA?2?$AAp?$AAr?$AAo?$AAg?$AAr?$AAa?$AAm?$AA?5?$AAf?$AAi?$AAl?$AAe?$AAs?$AA?5?$AA?$CI?$AAx?$AA8?$AA6?$AA?$CJ?$AA?2?$AAm?$AAi?$AAc?$AAr?$AAo?$AAs?$AAo?$AAf?$AAt@ 0047deb8     log4z.obj
 0002:00008f60       ??_C@_1EA@JDNDELPC@?$AAl?$AAi?$AAs?$AAt?$AA?5?$AAi?$AAt?$AAe?$AAr?$AAa?$AAt?$AAo?$AAr?$AA?5?$AAn?$AAo?$AAt?$AA?5?$AAd?$AAe?$AAc?$AAr?$AAe?$AAm?$AAe?$AAn?$AAt?$AAa?$AAb?$AAl?$AAe?$AA?$AA@ 0047df60     log4z.obj
 0002:00008fb0       ??_C@_1BKI@HKIMBOED@?$AAs?$AAt?$AAd?$AA?3?$AA?3?$AA_?$AAL?$AAi?$AAs?$AAt?$AA_?$AAc?$AAo?$AAn?$AAs?$AAt?$AA_?$AAi?$AAt?$AAe?$AAr?$AAa?$AAt?$AAo?$AAr?$AA?$DM?$AAc?$AAl?$AAa?$AAs?$AAs?$AA?5@ 0047dfb0     log4z.obj
 0002:000091b0       ??_C@_1EC@HILJLMMC@?$AAl?$AAi?$AAs?$AAt?$AA?5?$AAi?$AAt?$AAe?$AAr?$AAa?$AAt?$AAo?$AAr?$AA?5?$AAn?$AAo?$AAt?$AA?5?$AAd?$AAe?$AAr?$AAe?$AAf?$AAe?$AAr?$AAe?$AAn?$AAc?$AAa?$AAb?$AAl?$AAe@ 0047e1b0     log4z.obj
 0002:00009200       ??_C@_1BKG@JKEKOIBJ@?$AAs?$AAt?$AAd?$AA?3?$AA?3?$AA_?$AAL?$AAi?$AAs?$AAt?$AA_?$AAc?$AAo?$AAn?$AAs?$AAt?$AA_?$AAi?$AAt?$AAe?$AAr?$AAa?$AAt?$AAo?$AAr?$AA?$DM?$AAc?$AAl?$AAa?$AAs?$AAs?$AA?5@ 0047e200     log4z.obj
 0002:00009400       ??_C@_1EE@BBMFLDOC@?$AAl?$AAi?$AAs?$AAt?$AA?5?$AAe?$AAr?$AAa?$AAs?$AAe?$AA?5?$AAi?$AAt?$AAe?$AAr?$AAa?$AAt?$AAo?$AAr?$AA?5?$AAo?$AAu?$AAt?$AAs?$AAi?$AAd?$AAe?$AA?5?$AAr?$AAa?$AAn?$AAg@ 0047e400     log4z.obj
 0002:00009454       ??_C@_1DM@KDEKGMPF@?$AAs?$AAt?$AAr?$AAi?$AAn?$AAg?$AA?5?$AAi?$AAt?$AAe?$AAr?$AAa?$AAt?$AAo?$AAr?$AAs?$AA?5?$AAi?$AAn?$AAc?$AAo?$AAm?$AAp?$AAa?$AAt?$AAi?$AAb?$AAl?$AAe?$AA?$AA@ 0047e454     log4z.obj
 0002:000094a0       ??_C@_1MA@BDELDFHB@?$AAs?$AAt?$AAd?$AA?3?$AA?3?$AA_?$AAS?$AAt?$AAr?$AAi?$AAn?$AAg?$AA_?$AAc?$AAo?$AAn?$AAs?$AAt?$AA_?$AAi?$AAt?$AAe?$AAr?$AAa?$AAt?$AAo?$AAr?$AA?$DM?$AAc?$AAl?$AAa?$AAs@ 0047e4a0     log4z.obj
 0002:00009588       ??_C@_0BI@CFPLBAOH@invalid?5string?5position?$AA@ 0047e588     log4z.obj
 0002:000095a8       ??_C@_1EK@PPDBPCAN@?$AAm?$AAa?$AAp?$AA?1?$AAs?$AAe?$AAt?$AA?5?$AAe?$AAr?$AAa?$AAs?$AAe?$AA?5?$AAi?$AAt?$AAe?$AAr?$AAa?$AAt?$AAo?$AAr?$AA?5?$AAo?$AAu?$AAt?$AAs?$AAi?$AAd?$AAe?$AA?5?$AAr@ 0047e5a8     log4z.obj
 0002:00009600       ??_C@_1EA@DOGAGKDH@?$AAl?$AAi?$AAs?$AAt?$AA?5?$AAi?$AAt?$AAe?$AAr?$AAa?$AAt?$AAo?$AAr?$AA?5?$AAn?$AAo?$AAt?$AA?5?$AAi?$AAn?$AAc?$AAr?$AAe?$AAm?$AAe?$AAn?$AAt?$AAa?$AAb?$AAl?$AAe?$AA?$AA@ 0047e600     log4z.obj
 0002:00009650       ??_C@_1BKI@IJLOKCIC@?$AAs?$AAt?$AAd?$AA?3?$AA?3?$AA_?$AAL?$AAi?$AAs?$AAt?$AA_?$AAc?$AAo?$AAn?$AAs?$AAt?$AA_?$AAi?$AAt?$AAe?$AAr?$AAa?$AAt?$AAo?$AAr?$AA?$DM?$AAc?$AAl?$AAa?$AAs?$AAs?$AA?5@ 0047e650     log4z.obj
 0002:00009850       ??_C@_1EM@FKAOCOMF@?$AAv?$AAe?$AAc?$AAt?$AAo?$AAr?$AA?5?$AAi?$AAt?$AAe?$AAr?$AAa?$AAt?$AAo?$AAr?$AA?5?$AA?$CL?$AA?5?$AAo?$AAf?$AAf?$AAs?$AAe?$AAt?$AA?5?$AAo?$AAu?$AAt?$AA?5?$AAo?$AAf?$AA?5@ 0047e850     log4z.obj
 0002:000098b0       ??_C@_1BAA@ILKHGFEI@?$AAs?$AAt?$AAd?$AA?3?$AA?3?$AA_?$AAV?$AAe?$AAc?$AAt?$AAo?$AAr?$AA_?$AAc?$AAo?$AAn?$AAs?$AAt?$AA_?$AAi?$AAt?$AAe?$AAr?$AAa?$AAt?$AAo?$AAr?$AA?$DM?$AAc?$AAl?$AAa?$AAs@ 0047e8b0     log4z.obj
 0002:000099e8       ??_C@_1BKM@BBBIHDHC@?$AAs?$AAt?$AAd?$AA?3?$AA?3?$AA_?$AAT?$AAr?$AAe?$AAe?$AA_?$AAc?$AAo?$AAn?$AAs?$AAt?$AA_?$AAi?$AAt?$AAe?$AAr?$AAa?$AAt?$AAo?$AAr?$AA?$DM?$AAc?$AAl?$AAa?$AAs?$AAs?$AA?5@ 0047e9e8     log4z.obj
 0002:00009bec       ??_C@_1CG@LEJCKCBB@?$AAi?$AAn?$AAv?$AAa?$AAl?$AAi?$AAd?$AA?5?$AAc?$AAo?$AAm?$AAp?$AAa?$AAr?$AAa?$AAt?$AAo?$AAr?$AA?$AA@ 0047ebec     log4z.obj
 0002:00009c1c       ??_C@_1CK@EOPGIILJ@?$AAi?$AAn?$AAv?$AAa?$AAl?$AAi?$AAd?$AA?5?$AAn?$AAu?$AAl?$AAl?$AA?5?$AAp?$AAo?$AAi?$AAn?$AAt?$AAe?$AAr?$AA?$AA@ 0047ec1c     log4z.obj
 0002:00009c50       ??_C@_0BB@MOGOBHAF@list?$DMT?$DO?5too?5long?$AA@ 0047ec50     log4z.obj
 0002:00009c64       ??_C@_1CO@DGLIKNHI@?$AAi?$AAn?$AAv?$AAa?$AAl?$AAi?$AAd?$AA?5?$AAi?$AAt?$AAe?$AAr?$AAa?$AAt?$AAo?$AAr?$AA?5?$AAr?$AAa?$AAn?$AAg?$AAe?$AA?$AA@ 0047ec64     log4z.obj
 0002:00009ca0       ??_C@_1JC@ELNBGKIG@?$AAc?$AA?3?$AA?2?$AAp?$AAr?$AAo?$AAg?$AAr?$AAa?$AAm?$AA?5?$AAf?$AAi?$AAl?$AAe?$AAs?$AA?5?$AA?$CI?$AAx?$AA8?$AA6?$AA?$CJ?$AA?2?$AAm?$AAi?$AAc?$AAr?$AAo?$AAs?$AAo?$AAf?$AAt@ 0047eca0     log4z.obj
 0002:00009d50       ??_C@_1EC@KLICFBGL@?$AAc?$AAo?$AAn?$AAt?$AAa?$AAi?$AAn?$AAe?$AAr?$AAs?$AA?5?$AAi?$AAn?$AAc?$AAo?$AAm?$AAp?$AAa?$AAt?$AAi?$AAb?$AAl?$AAe?$AA?5?$AAf?$AAo?$AAr?$AA?5?$AAs?$AAw?$AAa?$AAp@ 0047ed50     log4z.obj
 0002:00009da0       ??_C@_1IG@CDANFHMM@?$AAc?$AA?3?$AA?2?$AAp?$AAr?$AAo?$AAg?$AAr?$AAa?$AAm?$AA?5?$AAf?$AAi?$AAl?$AAe?$AAs?$AA?5?$AA?$CI?$AAx?$AA8?$AA6?$AA?$CJ?$AA?2?$AAm?$AAi?$AAc?$AAr?$AAo?$AAs?$AAo?$AAf?$AAt@ 0047eda0     log4z.obj
 0002:00009e40       ??_C@_1EG@BPNHNPIG@?$AAl?$AAi?$AAs?$AAt?$AA?5?$AAi?$AAn?$AAs?$AAe?$AAr?$AAt?$AA?5?$AAi?$AAt?$AAe?$AAr?$AAa?$AAt?$AAo?$AAr?$AA?5?$AAo?$AAu?$AAt?$AAs?$AAi?$AAd?$AAe?$AA?5?$AAr?$AAa?$AAn@ 0047ee40     log4z.obj
 0002:00009e94       ??_C@_1DI@MDELDGPI@?$AAl?$AAi?$AAs?$AAt?$AA?5?$AAi?$AAt?$AAe?$AAr?$AAa?$AAt?$AAo?$AAr?$AAs?$AA?5?$AAi?$AAn?$AAc?$AAo?$AAm?$AAp?$AAa?$AAt?$AAi?$AAb?$AAl?$AAe?$AA?$AA@ 0047ee94     log4z.obj
 0002:00009ed8       ??_C@_1BKI@CJEDELEH@?$AAs?$AAt?$AAd?$AA?3?$AA?3?$AA_?$AAL?$AAi?$AAs?$AAt?$AA_?$AAc?$AAo?$AAn?$AAs?$AAt?$AA_?$AAi?$AAt?$AAe?$AAr?$AAa?$AAt?$AAo?$AAr?$AA?$DM?$AAc?$AAl?$AAa?$AAs?$AAs?$AA?5@ 0047eed8     log4z.obj
 0002:0000a0d8       ??_C@_1EG@OKCGOALM@?$AAm?$AAa?$AAp?$AA?1?$AAs?$AAe?$AAt?$AA?5?$AAi?$AAt?$AAe?$AAr?$AAa?$AAt?$AAo?$AAr?$AA?5?$AAn?$AAo?$AAt?$AA?5?$AAd?$AAe?$AAc?$AAr?$AAe?$AAm?$AAe?$AAn?$AAt?$AAa?$AAb@ 0047f0d8     log4z.obj
 0002:0000a130       ??_C@_1BOI@CBGHHKEF@?$AAs?$AAt?$AAd?$AA?3?$AA?3?$AA_?$AAT?$AAr?$AAe?$AAe?$AA_?$AAc?$AAo?$AAn?$AAs?$AAt?$AA_?$AAi?$AAt?$AAe?$AAr?$AAa?$AAt?$AAo?$AAr?$AA?$DM?$AAc?$AAl?$AAa?$AAs?$AAs?$AA?5@ 0047f130     log4z.obj
 0002:0000a380       ??_C@_1EM@MEFKBKGF@?$AAs?$AAt?$AAr?$AAi?$AAn?$AAg?$AA?5?$AAi?$AAt?$AAe?$AAr?$AAa?$AAt?$AAo?$AAr?$AA?5?$AA?$CL?$AA?5?$AAo?$AAf?$AAf?$AAs?$AAe?$AAt?$AA?5?$AAo?$AAu?$AAt?$AA?5?$AAo?$AAf?$AA?5@ 0047f380     log4z.obj
 0002:0000a3e0       ??_C@_1MI@HNCOPGEL@?$AAs?$AAt?$AAd?$AA?3?$AA?3?$AA_?$AAS?$AAt?$AAr?$AAi?$AAn?$AAg?$AA_?$AAc?$AAo?$AAn?$AAs?$AAt?$AA_?$AAi?$AAt?$AAe?$AAr?$AAa?$AAt?$AAo?$AAr?$AA?$DM?$AAc?$AAl?$AAa?$AAs@ 0047f3e0     log4z.obj
 0002:0000a4d0       ??_C@_0BE@JONHPENG@map?1set?$DMT?$DO?5too?5long?$AA@ 0047f4d0     log4z.obj
 0002:0000a4e8       ??_C@_1EM@MHOKKPFH@?$AAm?$AAa?$AAp?$AA?1?$AAs?$AAe?$AAt?$AA?5?$AAi?$AAn?$AAs?$AAe?$AAr?$AAt?$AA?5?$AAi?$AAt?$AAe?$AAr?$AAa?$AAt?$AAo?$AAr?$AA?5?$AAo?$AAu?$AAt?$AAs?$AAi?$AAd?$AAe?$AA?5@ 0047f4e8     log4z.obj
 0002:0000a548       ??_C@_1BKM@OCCKMPLD@?$AAs?$AAt?$AAd?$AA?3?$AA?3?$AA_?$AAT?$AAr?$AAe?$AAe?$AA_?$AAc?$AAo?$AAn?$AAs?$AAt?$AA_?$AAi?$AAt?$AAe?$AAr?$AAa?$AAt?$AAo?$AAr?$AA?$DM?$AAc?$AAl?$AAa?$AAs?$AAs?$AA?5@ 0047f548     log4z.obj
 0002:0000a74c       ??_C@_0CB@KIEPKPGI@?$CFs?2?$CF04d?$CF02d?$CF02d_?$CF02d?$CF02d?$CF02d?4dmp@ 0047f74c     MiniDump.obj
 0002:0000a774       ??_C@_0DH@BPBCPGPF@I?8m?5so?5sorry?0?5but?5the?5program?5cr@ 0047f774     MiniDump.obj
 0002:0000a854       ??_C@_0BC@PGMFNIFA@atlTraceException?$AA@ 0047f854     AddPatch.obj
 0002:0000a86c       ??_C@_17LGGGMOOB@?$AA?$CF?$AAh?$AAs?$AA?$AA@ 0047f86c     AddPatch.obj
 0002:0000a878       ??_C@_1EO@EBPPKGOM@?$AAf?$AAa?$AAl?$AAs?$AAe?$AA?5?$AA?$CG?$AA?$CG?$AA?5?$AA?$CC?$AAT?$AAo?$AAo?$AA?5?$AAm?$AAa?$AAn?$AAy?$AA?5?$AAc?$AAa?$AAt?$AAe?$AAg?$AAo?$AAr?$AAi?$AAe?$AAs?$AA?5?$AAd?$AAe@ 0047f878     AddPatch.obj
 0002:0000a8d8       ??_C@_1KC@LMLKMJJ@?$AAc?$AA?3?$AA?2?$AAp?$AAr?$AAo?$AAg?$AAr?$AAa?$AAm?$AA?5?$AAf?$AAi?$AAl?$AAe?$AAs?$AA?5?$AA?$CI?$AAx?$AA8?$AA6?$AA?$CJ?$AA?2?$AAm?$AAi?$AAc?$AAr?$AAo?$AAs?$AAo?$AAf?$AAt@ 0047f8d8     AddPatch.obj
 0002:0000a99c       ?classCAddPatch@CAddPatch@@2UCRuntimeClass@@B 0047f99c     AddPatch.obj
 0002:0000a9c4       ??_7CAddPatch@@6B@         0047f9c4     AddPatch.obj
 0002:0000abac       ??_C@_09CAHNAPMO@CAddPatch?$AA@ 0047fbac     AddPatch.obj
 0002:0000abb8       ??_C@_04CAJKGPAN@?$LF?X?V?$LH?$AA@ 0047fbb8     AddPatch.obj
 0002:0000abc0       ??_C@_08CGKIHCGJ@HEX?5?J?$PN?$LO?$NN?$AA@ 0047fbc0     AddPatch.obj
 0002:0000abcc       ??_C@_06DPCFLANE@?$LH?$LE?$LL?c?$LB?$OA?$AA@ 0047fbcc     AddPatch.obj
 0002:0000abd4       ??_C@_0M@KBBCMHHC@?G?x?$LG?N?C?$PL?N?$KK?$LP?U?$CB?$AA@ 0047fbd4     AddPatch.obj
 0002:0000abe4       ??_C@_0O@PEGOCJAG@?P?$NO?U?$PN?F?$KL?R?F?N?$KK?$LP?U?$CB?$AA@ 0047fbe4     AddPatch.obj
 0002:0000abf4       ??_C@_04JIMNDDED@?$CF08X?$AA@ 0047fbf4     AddPatch.obj
 0002:0000ac40       ?classCAddSectionDlg@CAddSectionDlg@@2UCRuntimeClass@@B 0047fc40     AddSectionDlg.obj
 0002:0000ac68       ??_7CAddSectionDlg@@6B@    0047fc68     AddSectionDlg.obj
 0002:0000ae50       ??_C@_0P@OPONDHOF@CAddSectionDlg?$AA@ 0047fe50     AddSectionDlg.obj
 0002:0000ae64       ??_C@_05IBPNLFHH@?4null?$AA@ 0047fe64     AddSectionDlg.obj
 0002:0000aeb0       ?classDataDirectoryDlg@DataDirectoryDlg@@2UCRuntimeClass@@B 0047feb0     DataDirectoryDlg.obj
 0002:0000aed8       ??_7DataDirectoryDlg@@6B@  0047fed8     DataDirectoryDlg.obj
 0002:0000b0c0       ??_C@_0BB@LGOPDIGA@DataDirectoryDlg?$AA@ 004800c0     DataDirectoryDlg.obj
 0002:0000b118       ??_C@_02DPKJAMEF@?$CFd?$AA@ 00480118     DialogFirst.obj
 0002:0000b11c       ?classDialogFirst@DialogFirst@@2UCRuntimeClass@@B 0048011c     DialogFirst.obj
 0002:0000b144       ??_7DialogFirst@@6B@       00480144     DialogFirst.obj
 0002:0000b32c       ??_C@_0M@MOIPDOIB@DialogFirst?$AA@ 0048032c     DialogFirst.obj
 0002:0000b33c       ??_C@_07FOMOJOEG@Dialog1?$AA@ 0048033c     DialogFirst.obj
 0002:0000b348       ??_C@_07HFODMNIF@Dialog2?$AA@ 00480348     DialogFirst.obj
 0002:0000b354       ??_C@_07GMPIPMME@Dialog3?$AA@ 00480354     DialogFirst.obj
 0002:0000b360       ??_C@_07CDLJGKAD@Dialog4?$AA@ 00480360     DialogFirst.obj
 0002:0000b36c       ??_C@_07DKKCFLEC@Dialog5?$AA@ 0048036c     DialogFirst.obj
 0002:0000b378       ??_C@_0O@JCLPNMEK@DefaultDialog?$AA@ 00480378     DialogFirst.obj
 0002:0000b388       ??_C@_06LNLHEAAG@height?$AA@ 00480388     DialogFirst.obj
 0002:0000b390       ??_C@_0O@JCFONMCM@configure?4ini?$AA@ 00480390     DialogFirst.obj
 0002:0000b3a0       ??_C@_05IGKADHGO@width?$AA@ 004803a0     DialogFirst.obj
 0002:0000b3a8       ??_C@_05PHLGJONK@title?$AA@ 004803a8     DialogFirst.obj
 0002:0000b3b0       ??_C@_09HEPILEGN@D1Static1?$AA@ 004803b0     DialogFirst.obj
 0002:0000b3bc       ??_C@_09FPNFOHKO@D1Static2?$AA@ 004803bc     DialogFirst.obj
 0002:0000b3c8       ??_C@_09EGMONGOP@D1Static3?$AA@ 004803c8     DialogFirst.obj
 0002:0000b3d4       ??_C@_09JIPEACI@D1Static4?$AA@ 004803d4     DialogFirst.obj
 0002:0000b3e0       ??_C@_09BAJEHBGJ@D1Static5?$AA@ 004803e0     DialogFirst.obj
 0002:0000b3ec       ??_C@_09DLLJCCKK@D1Static6?$AA@ 004803ec     DialogFirst.obj
 0002:0000b3f8       ??_C@_09CCKCBDOL@D1Static7?$AA@ 004803f8     DialogFirst.obj
 0002:0000b404       ??_C@_09KFDKAPCE@D1Static8?$AA@ 00480404     DialogFirst.obj
 0002:0000b410       ??_C@_09LMCBDOGF@D1Static9?$AA@ 00480410     DialogFirst.obj
 0002:0000b41c       ??_C@_0L@OMDBNDKC@D1Static10?$AA@ 0048041c     DialogFirst.obj
 0002:0000b42c       ??_C@_0L@PFCKOCOD@D1Static11?$AA@ 0048042c     DialogFirst.obj
 0002:0000b43c       ??_C@_0L@NOAHLBCA@D1Static12?$AA@ 0048043c     DialogFirst.obj
 0002:0000b44c       ??_C@_07NJLCHHIC@D1Edit1?$AA@ 0048044c     DialogFirst.obj
 0002:0000b458       ??_C@_07PCJPCEEB@D1Edit2?$AA@ 00480458     DialogFirst.obj
 0002:0000b464       ??_C@_07OLIEBFAA@D1Edit3?$AA@ 00480464     DialogFirst.obj
 0002:0000b470       ??_C@_07KEMFIDMH@D1Edit4?$AA@ 00480470     DialogFirst.obj
 0002:0000b47c       ??_C@_07LNNOLCIG@D1Edit5?$AA@ 0048047c     DialogFirst.obj
 0002:0000b488       ??_C@_07JGPDOBEF@D1Edit6?$AA@ 00480488     DialogFirst.obj
 0002:0000b494       ??_C@_07IPOINAAE@D1Edit7?$AA@ 00480494     DialogFirst.obj
 0002:0000b4a0       ??_C@_07IHAMMML@D1Edit8?$AA@ 004804a0     DialogFirst.obj
 0002:0000b4ac       ??_C@_07BBGLPNIK@D1Edit9?$AA@ 004804ac     DialogFirst.obj
 0002:0000b4b8       ??_C@_08NMCJGGII@D1Edit10?$AA@ 004804b8     DialogFirst.obj
 0002:0000b4c4       ??_C@_08MFDCFHMJ@D1Edit11?$AA@ 004804c4     DialogFirst.obj
 0002:0000b4d0       ??_C@_0L@BCCANBLM@D1ListBox1?$AA@ 004804d0     DialogFirst.obj
 0002:0000b4e0       ??_C@_0L@DJANICHP@D1ListBox2?$AA@ 004804e0     DialogFirst.obj
 0002:0000b4f0       ??_C@_0L@CABGLDDO@D1ListBox3?$AA@ 004804f0     DialogFirst.obj
 0002:0000b500       ??_C@_0L@GPFHCFPJ@D1ListBox4?$AA@ 00480500     DialogFirst.obj
 0002:0000b510       ??_C@_0L@HGEMBELI@D1ListBox5?$AA@ 00480510     DialogFirst.obj
 0002:0000b520       ??_C@_0L@FNGBEHHL@D1ListBox6?$AA@ 00480520     DialogFirst.obj
 0002:0000b530       ??_C@_04OCADPBFK@?P?r?$LK?E?$AA@ 00480530     DialogFirst.obj
 0002:0000b538       ??_C@_08LHFNHMLA@ThunkRVA?$AA@ 00480538     DialogFirst.obj
 0002:0000b544       ??_C@_08HLNBCEIH@ThunkFOA?$AA@ 00480544     DialogFirst.obj
 0002:0000b550       ??_C@_0N@EJOAAHGJ@Thunk?V?$LF?$CIRVA?$CJ?$AA@ 00480550     DialogFirst.obj
 0002:0000b560       ??_C@_04LMEBDALD@?$LB?$OA?$LK?E?$AA@ 00480560     DialogFirst.obj
 0002:0000b568       ??_C@_08NDNKKNFM@?$LK?$KP?J?$PN?C?$PL?$LD?F?$AA@ 00480568     DialogFirst.obj
 0002:0000b574       ??_C@_0O@KKOLMMGA@?J?$PN?$LO?$NN?$LF?X?V?$LH?$CIRVA?$CJ?$AA@ 00480574     DialogFirst.obj
 0002:0000b584       ??_C@_0O@BCJKOFDH@?J?$PN?$LO?$NN?$LF?X?V?$LH?$CIFOA?$CJ?$AA@ 00480584     DialogFirst.obj
 0002:0000b594       ??_C@_04PFGKDNDC@?$MA?$OA?P?M?$AA@ 00480594     DialogFirst.obj
 0002:0000b59c       ??_C@_06LJLPBMIC@?W?J?T?$LEID?$AA@ 0048059c     DialogFirst.obj
 0002:0000b5a4       ??_C@_0N@FPFBKCIH@?S?o?Q?T?$MA?$OA?P?M?$CIID?$CJ?$AA@ 004805a4     DialogFirst.obj
 0002:0000b5b4       ??_C@_0BA@CACFPCCL@?J?$PN?$LO?$NN?$LE?s?P?$KB?$CIBytes?$CJ?$AA@ 004805b4     DialogFirst.obj
 0002:0000b5c8       ??_C@_0O@IIICMIED@?$LK?$KP?J?$PN?$LF?X?V?$LH?$CIRVA?$CJ?$AA@ 004805c8     DialogFirst.obj
 0002:0000b5d8       ??_C@_06LNNELNDL@?$LK?$KP?J?$PN?C?$PL?$AA@ 004805d8     DialogFirst.obj
 0002:0000b5e0       ??_C@_0O@DAPDOBBE@?$LK?$KP?J?$PN?$LF?X?V?$LH?$CIFOA?$CJ?$AA@ 004805e0     DialogFirst.obj
 0002:0000b5f0       ??_C@_07GJFBAKLH@DLL?C?$PL?$LD?F?$AA@ 004805f0     DialogFirst.obj
 0002:0000b5fc       ??_C@_08ILFGFBPH@?G?E1?$CIRVA?$CJ?$AA@ 004805fc     DialogFirst.obj
 0002:0000b608       ??_C@_06EHPEKDCN@?J?$LB?$LM?d?$LE?A?$AA@ 00480608     DialogFirst.obj
 0002:0000b610       ??_C@_08IBILKMLN@?G?$LA?A?$LE?$LN?a?$LJ?$LJ?$AA@ 00480610     DialogFirst.obj
 0002:0000b61c       ??_C@_08LKLOELGK@?G?E2?$CIRVA?$CJ?$AA@ 0048061c     DialogFirst.obj
 0002:0000b628       ??_C@_0O@LLHNAHNA@?R?$LD?$LP?i?$LF?X?V?$LH?$CIRVA?$CJ?$AA@ 00480628     DialogFirst.obj
 0002:0000b638       ??_C@_0O@DAMCOIH@?R?$LD?$LP?i?$LF?X?V?$LH?$CIFOA?$CJ?$AA@ 00480638     DialogFirst.obj
 0002:0000b648       ??_C@_0L@IDAFJPAK@?J?$PN?$LO?$NN?$LP?i?$LE?s?P?$KB?$AA@ 00480648     DialogFirst.obj
 0002:0000b658       ??_C@_06IMJBDBNO@0x?$CF08X?$AA@ 00480658     DialogFirst.obj
 0002:0000b660       ??_C@_04HKJDGLEA@0x?$CFX?$AA@ 00480660     DialogFirst.obj
 0002:0000b668       ??_C@_08JAJGNPLL@?W?J?T?$LE?$MA?$OA?P?M?$AA@ 00480668     DialogFirst.obj
 0002:0000b674       ??_C@_04PLKBEMED@?J?t?P?T?$AA@ 00480674     DialogFirst.obj
 0002:0000b67c       ??_C@_0BB@EIEKFOMK@?Q?S?$LD?Y?$LF?$LM?H?kIAT?$CIRVA?$CJ?$AA@ 0048067c     DialogFirst.obj
 0002:0000b690       ??_C@_0BB@JBGKEMGG@?Q?S?$LD?Y?$LF?$LM?H?kINT?$CIRVA?$CJ?$AA@ 00480690     DialogFirst.obj
 0002:0000b6a4       ??_C@_04NKKBMEHO@0X?$CFX?$AA@ 004806a4     DialogFirst.obj
 0002:0000b6ac       ??_C@_06ILDNDEOI@0X?$CF08X?$AA@ 004806ac     DialogFirst.obj
 0002:0000b6b4       ??_C@_03HPADHAHE@N?1A?$AA@ 004806b4     DialogFirst.obj
 0002:0000b6b8       ??_C@_1DM@LHGCHCBA@?$AAv?$AAe?$AAc?$AAt?$AAo?$AAr?$AA?5?$AAs?$AAu?$AAb?$AAs?$AAc?$AAr?$AAi?$AAp?$AAt?$AA?5?$AAo?$AAu?$AAt?$AA?5?$AAo?$AAf?$AA?5?$AAr?$AAa?$AAn?$AAg?$AAe?$AA?$AA@ 004806b8     DialogFirst.obj
 0002:0000b700       ??_C@_1KK@IFGNPJEI@?$AAs?$AAt?$AAd?$AA?3?$AA?3?$AAv?$AAe?$AAc?$AAt?$AAo?$AAr?$AA?$DM?$AAs?$AAt?$AAr?$AAu?$AAc?$AAt?$AA?5?$AA_?$AAD?$AAe?$AAl?$AAa?$AAy?$AAI?$AAt?$AAe?$AAm?$AA?0?$AAc?$AAl@ 00480700     DialogFirst.obj
 0002:0000b7d0       ??_C@_1LG@IILAMNCI@?$AAs?$AAt?$AAd?$AA?3?$AA?3?$AAv?$AAe?$AAc?$AAt?$AAo?$AAr?$AA?$DM?$AAs?$AAt?$AAr?$AAu?$AAc?$AAt?$AA?5?$AA_?$AAR?$AAe?$AAs?$AAo?$AAu?$AAr?$AAc?$AAe?$AAI?$AAt?$AAe?$AAm@ 004807d0     DialogFirst.obj
 0002:0000b8b0       ??_C@_1KK@KMNALLEN@?$AAs?$AAt?$AAd?$AA?3?$AA?3?$AAv?$AAe?$AAc?$AAt?$AAo?$AAr?$AA?$DM?$AAs?$AAt?$AAr?$AAu?$AAc?$AAt?$AA?5?$AA_?$AAR?$AAe?$AAl?$AAo?$AAc?$AAI?$AAt?$AAe?$AAm?$AA?0?$AAc?$AAl@ 004808b0     DialogFirst.obj
 0002:0000b980       ??_C@_1KO@NAOMGGBC@?$AAs?$AAt?$AAd?$AA?3?$AA?3?$AAv?$AAe?$AAc?$AAt?$AAo?$AAr?$AA?$DM?$AAs?$AAt?$AAr?$AAu?$AAc?$AAt?$AA?5?$AA_?$AAI?$AAm?$AAp?$AAo?$AAr?$AAt?$AAI?$AAt?$AAe?$AAm?$AA?0?$AAc@ 00480980     DialogFirst.obj
 0002:0000ba50       ??_C@_1LG@MBAPNEF@?$AAs?$AAt?$AAd?$AA?3?$AA?3?$AAv?$AAe?$AAc?$AAt?$AAo?$AAr?$AA?$DM?$AAs?$AAt?$AAr?$AAu?$AAc?$AAt?$AA?5?$AA_?$AAO?$AAr?$AAd?$AAi?$AAn?$AAa?$AAl?$AAF?$AAu?$AAn?$AAc?$AAs@ 00480a50     DialogFirst.obj
 0002:0000bb54       ?classCDisaDialog@CDisaDialog@@2UCRuntimeClass@@B 00480b54     DisaDialog.obj
 0002:0000bb7c       ??_7CDisaDialog@@6B@       00480b7c     DisaDialog.obj
 0002:0000bd64       ??_C@_0M@HOPBCOLB@CDisaDialog?$AA@ 00480d64     DisaDialog.obj
 0002:0000bd74       ??_C@_07OKGCEFLI@DisaWin?$AA@ 00480d74     DisaDialog.obj
 0002:0000bd80       ??_C@_0BD@LAJAAAE@otherconfigure?4ini?$AA@ 00480d80     DisaDialog.obj
 0002:0000bd98       ??_C@_05EOKKEJDL@List1?$AA@ 00480d98     DisaDialog.obj
 0002:0000bda0       ??_C@_04HAGMALA@?W?$KC?J?M?$AA@ 00480da0     DisaDialog.obj
 0002:0000be08       ?classCEncryptDlg@CEncryptDlg@@2UCRuntimeClass@@B 00480e08     EncryptDlg.obj
 0002:0000be30       ??_7CEncryptDlg@@6B@       00480e30     EncryptDlg.obj
 0002:0000c018       ??_C@_0M@CBPKCIAK@CEncryptDlg?$AA@ 00481018     EncryptDlg.obj
 0002:0000c028       _IID_IInternalConnection   00481028     GlobeVar.obj
 0002:0000c03b       ?chDirSep@ATL@@3DB         0048103b     GlobeVar.obj
 0002:0000c03c       ?chRightBracket@ATL@@3DB   0048103c     GlobeVar.obj
 0002:0000c03d       ?chLeftBracket@ATL@@3DB    0048103d     GlobeVar.obj
 0002:0000c03e       ?chQuote@ATL@@3DB          0048103e     GlobeVar.obj
 0002:0000c03f       ?chEquals@ATL@@3DB         0048103f     GlobeVar.obj
 0002:0000c040       ?szStringVal@ATL@@3QBDB    00481040     GlobeVar.obj
 0002:0000c044       ??_C@_01CPLAODJH@S?$AA@    00481044     GlobeVar.obj
 0002:0000c048       ?multiszStringVal@ATL@@3QBDB 00481048     GlobeVar.obj
 0002:0000c04c       ??_C@_01PLPBNMEI@M?$AA@    0048104c     GlobeVar.obj
 0002:0000c050       ?szDwordVal@ATL@@3QBDB     00481050     GlobeVar.obj
 0002:0000c054       ??_C@_01CKDDGHAB@D?$AA@    00481054     GlobeVar.obj
 0002:0000c058       ?szBinaryVal@ATL@@3QBDB    00481058     GlobeVar.obj
 0002:0000c05c       ??_C@_01HMGJMAIH@B?$AA@    0048105c     GlobeVar.obj
 0002:0000c060       ?szValToken@ATL@@3QBDB     00481060     GlobeVar.obj
 0002:0000c064       ??_C@_03LAIAPFCB@Val?$AA@  00481064     GlobeVar.obj
 0002:0000c068       ?szForceRemove@ATL@@3QBDB  00481068     GlobeVar.obj
 0002:0000c06c       ??_C@_0M@DBGDLGLL@ForceRemove?$AA@ 0048106c     GlobeVar.obj
 0002:0000c07c       ?szNoRemove@ATL@@3QBDB     0048107c     GlobeVar.obj
 0002:0000c080       ??_C@_08KAAPDIAN@NoRemove?$AA@ 00481080     GlobeVar.obj
 0002:0000c08c       ?szDelete@ATL@@3QBDB       0048108c     GlobeVar.obj
 0002:0000c090       ??_C@_06JBKGCNBB@Delete?$AA@ 00481090     GlobeVar.obj
 0002:0000c098       _CLSID_Registrar           00481098     GlobeVar.obj
 0002:0000c0ac       _IID_IRegistrar            004810ac     GlobeVar.obj
 0002:0000c0c0       _LIBID_ATLLib              004810c0     GlobeVar.obj
 0002:0000c0d4       _IID_IDocHostUIHandlerDispatch 004810d4     GlobeVar.obj
 0002:0000c0e8       _IID_IAxWinHostWindow      004810e8     GlobeVar.obj
 0002:0000c0fc       ?szInvalidDateTime@ATL@@3QBDB 004810fc     GlobeVar.obj
 0002:0000c100       ??_C@_0BB@KEKMKJPM@Invalid?5DateTime?$AA@ 00481100     GlobeVar.obj
 0002:0000c114       ?szInvalidDateTimeSpan@ATL@@3QBDB 00481114     GlobeVar.obj
 0002:0000c118       ??_C@_0BF@GPPHKJFN@Invalid?5DateTimeSpan?$AA@ 00481118     GlobeVar.obj
 0002:0000c134       _IID_IAxWinHostWindowLic   00481134     GlobeVar.obj
 0002:0000c148       _IID_IAxWinAmbientDispatch 00481148     GlobeVar.obj
 0002:0000c15c       ?CLSID_WinFormsControl@@3U_GUID@@B 0048115c     GlobeVar.obj
 0002:0000c170       _IID_IAxWinAmbientDispatchEx 00481170     GlobeVar.obj
 0002:0000c184       ??_C@_13COJANIEC@?$AA0?$AA?$AA@ 00481184     GlobeVar.obj
 0002:0000c188       ??_C@_1KC@HIGAMOBK@?$AAc?$AA?3?$AA?2?$AAp?$AAr?$AAo?$AAg?$AAr?$AAa?$AAm?$AA?5?$AAf?$AAi?$AAl?$AAe?$AAs?$AA?5?$AA?$CI?$AAx?$AA8?$AA6?$AA?$CJ?$AA?2?$AAm?$AAi?$AAc?$AAr?$AAo?$AAs?$AAo?$AAf?$AAt@ 00481188     GlobeVar.obj
 0002:0000c24c       ??_C@_0BA@MKMIKKJB@atlTraceGeneral?$AA@ 0048124c     GlobeVar.obj
 0002:0000c260       ??_C@_0M@DGPFJEBB@atlTraceCOM?$AA@ 00481260     GlobeVar.obj
 0002:0000c270       ??_C@_0L@LHELAKBP@atlTraceQI?$AA@ 00481270     GlobeVar.obj
 0002:0000c280       ??_C@_0BC@MALHFBAO@atlTraceRegistrar?$AA@ 00481280     GlobeVar.obj
 0002:0000c298       ??_C@_0BB@ILPPDKFL@atlTraceRefcount?$AA@ 00481298     GlobeVar.obj
 0002:0000c2ac       ??_C@_0BC@DGHHNKDC@atlTraceWindowing?$AA@ 004812ac     GlobeVar.obj
 0002:0000c2c4       ??_C@_0BB@GHKJKKIE@atlTraceControls?$AA@ 004812c4     GlobeVar.obj
 0002:0000c2d8       ??_C@_0BA@DKOAAGGM@atlTraceHosting?$AA@ 004812d8     GlobeVar.obj
 0002:0000c2ec       ??_C@_0BB@BEBMGMDO@atlTraceDBClient?$AA@ 004812ec     GlobeVar.obj
 0002:0000c300       ??_C@_0BD@KOADKDIA@atlTraceDBProvider?$AA@ 00481300     GlobeVar.obj
 0002:0000c318       ??_C@_0P@LNEGBOLO@atlTraceSnapin?$AA@ 00481318     GlobeVar.obj
 0002:0000c32c       ??_C@_0BA@MCBFIDIC@atlTraceNotImpl?$AA@ 0048132c     GlobeVar.obj
 0002:0000c340       ??_C@_0BD@PJPCCAKP@atlTraceAllocation?$AA@ 00481340     GlobeVar.obj
 0002:0000c358       ??_C@_0N@BNNILHBE@atlTraceTime?$AA@ 00481358     GlobeVar.obj
 0002:0000c368       ??_C@_0O@MEOJAOKK@atlTraceCache?$AA@ 00481368     GlobeVar.obj
 0002:0000c378       ??_C@_0BA@IDBKCKK@atlTraceStencil?$AA@ 00481378     GlobeVar.obj
 0002:0000c38c       ??_C@_0P@MBNHGHMI@atlTraceString?$AA@ 0048138c     GlobeVar.obj
 0002:0000c3a0       ??_C@_0M@IOBBMAHG@atlTraceMap?$AA@ 004813a0     GlobeVar.obj
 0002:0000c3b0       ??_C@_0N@FEAAACHD@atlTraceUtil?$AA@ 004813b0     GlobeVar.obj
 0002:0000c3c0       ??_C@_0BB@DNJDADMG@atlTraceSecurity?$AA@ 004813c0     GlobeVar.obj
 0002:0000c3d4       ??_C@_0N@KLPNCFEE@atlTraceSync?$AA@ 004813d4     GlobeVar.obj
 0002:0000c3e4       ??_C@_0O@KHOBHOBJ@atlTraceISAPI?$AA@ 004813e4     GlobeVar.obj
 0002:0000c3f4       ??_C@_1O@LFNDFEBP@?$AA?$CF?$AAl?$AAs?$AA?5?$AA?9?$AA?5?$AA?$AA@ 004813f4     GlobeVar.obj
 0002:0000c404       ??_C@_1M@PGKOAACE@?$AA?$CF?$AAu?$AA?5?$AA?9?$AA?5?$AA?$AA@ 00481404     GlobeVar.obj
 0002:0000c414       ??_C@_1O@OAIPCDPO@?$AA?$CF?$AAl?$AAs?$AA?$CF?$AAl?$AAs?$AA?$AA@ 00481414     GlobeVar.obj
 0002:0000c424       ??_C@_1BM@GBBOFEAE@?$AA_?$AA_?$AAa?$AAt?$AAl?$AA_?$AAc?$AAo?$AAn?$AAd?$AAV?$AAa?$AAl?$AA?$AA@ 00481424     GlobeVar.obj
 0002:0000c44c       ??_7CWin32Heap@ATL@@6B@    0048144c     GlobeVar.obj
 0002:0000c464       ??_C@_1BG@CLPBKBHG@?$AAh?$AAH?$AAe?$AAa?$AAp?$AA?5?$AA?$CB?$AA?$DN?$AA?5?$AA0?$AA?$AA@ 00481464     GlobeVar.obj
 0002:0000c480       ??_C@_1JO@MDHCMBJF@?$AAc?$AA?3?$AA?2?$AAp?$AAr?$AAo?$AAg?$AAr?$AAa?$AAm?$AA?5?$AAf?$AAi?$AAl?$AAe?$AAs?$AA?5?$AA?$CI?$AAx?$AA8?$AA6?$AA?$CJ?$AA?2?$AAm?$AAi?$AAc?$AAr?$AAo?$AAs?$AAo?$AAf?$AAt@ 00481480     GlobeVar.obj
 0002:0000c540       ??_C@_1BC@PMINONJG@?$AAb?$AAS?$AAu?$AAc?$AAc?$AAe?$AAs?$AAs?$AA?$AA@ 00481540     GlobeVar.obj
 0002:0000c558       ??_C@_1BE@BLGCOAPB@?$AAn?$AAR?$AAe?$AAf?$AAs?$AA?5?$AA?$DO?$AA?5?$AA0?$AA?$AA@ 00481558     GlobeVar.obj
