 PETOOLS

 Timestamp is 5f57407c (Tue Sep  8 16:27:40 2020)

 Preferred load address is 00400000

 Start         Length     Name                   Class
 0001:00000000 00007a60H .text$di                CODE
 0001:00007a60 0006c200H .text$mn                CODE
 0001:00073c60 00006250H .text$x                 CODE
 0001:00079eb0 00001467H .text$yd                CODE
 0002:00000000 00000104H .CRT$XCA                DATA
 0002:00000104 00000104H .CRT$XCAA               DATA
 0002:00000208 0000010cH .CRT$XCL                DATA
 0002:00000314 0000018cH .CRT$XCU                DATA
 0002:000004a0 00000104H .CRT$XCZ                DATA
 0002:000005a4 00000104H .CRT$XIA                DATA
 0002:000006a8 00000104H .CRT$XIAA               DATA
 0002:000007ac 00000104H .CRT$XIAC               DATA
 0002:000008b0 00000104H .CRT$XIC                DATA
 0002:000009b4 00000104H .CRT$XIZ                DATA
 0002:00000ab8 00000004H .CRT$XLA                DATA
 0002:00000abc 00000004H .CRT$XLZ                DATA
 0002:00000ac0 00000104H .CRT$XPA                DATA
 0002:00000bc4 00000104H .CRT$XPZ                DATA
 0002:00000cc8 00000104H .CRT$XTA                DATA
 0002:00000dcc 00000104H .CRT$XTZ                DATA
 0002:00000ed0 000123b8H .rdata                  DATA
 0002:00013288 0000011cH .rdata$T                DATA
 0002:000133a4 000010acH .rdata$r                DATA
 0002:00014450 00000620H .rdata$sxdata           DATA
 0002:00014a70 0000016cH .rdata$zzzdbg           DATA
 0002:00014bdc 00000104H .rtc$IAA                DATA
 0002:00014ce0 000001a0H .rtc$IMZ                DATA
 0002:00014e80 00000104H .rtc$IZZ                DATA
 0002:00014f84 00000104H .rtc$TAA                DATA
 0002:00015088 000001a0H .rtc$TMZ                DATA
 0002:00015228 00000108H .rtc$TZZ                DATA
 0002:00015330 00004ca4H .xdata$x                DATA
 0002:00019fd4 00000104H ATL$__a                 DATA
 0002:0001a0d8 00000104H ATL$__z                 DATA
 0002:0001a1dc 00000000H .edata                  DATA
 0003:00000000 00000318H .data                   DATA
 0003:00000318 000006f0H .data$r                 DATA
 0003:00000a08 000045a4H .bss                    DATA
 0004:00000000 00000c80H .idata$5                DATA
 0004:00000c80 0000012cH .idata$2                DATA
 0004:00000dac 00000014H .idata$3                DATA
 0004:00000dc0 00000c80H .idata$4                DATA
 0004:00001a40 00001248H .idata$6                DATA
 0005:00000000 00000108H .tls                    DATA
 0005:00000108 00000139H .tls$                   DATA
 0005:00000241 00000101H .tls$ZZZ                DATA
 0006:00000000 00000239H .gfids$y                DATA
 0007:00000000 00000104H .00cfg                  DATA
 0008:00000000 00000104H .giats$y                DATA
 0009:00000000 00000a30H .rsrc$01                DATA
 0009:00000a30 00019dc3H .rsrc$02                DATA

  Address         Publics by Value              Rva+Base       Lib:Object

 0000:00000000       ___guard_fids_table        00000000     <absolute>
 0000:00000000       ___guard_fids_count        00000000     <absolute>
 0000:00000000       ___guard_iat_count         00000000     <absolute>
 0000:00000000       ___guard_iat_table         00000000     <absolute>
 0000:00000000       ___guard_longjmp_table     00000000     <absolute>
 0000:00000000       ___dynamic_value_reloc_table 00000000     <absolute>
 0000:00000000       ___guard_longjmp_count     00000000     <absolute>
 0000:0000002c       __tls_array                0000002c     <absolute>
 0000:00000100       ___guard_flags             00000100     <absolute>
 0000:00000111       ___safe_se_handler_count   00000111     <absolute>
 0000:00000000       ___ImageBase               00400000     <linker-defined>
 0001:00007a60       ??$__vcrt_va_start_verify_argument_type@QBD@@YAXXZ 00408a60 f i asmserv.obj
 0001:00007a90       ?Decodeaddress@@YAHKPADH0@Z 00408a90 f   asmserv.obj
 0001:00007ac0       ?Disassembleback@@YAKPADKKKH@Z 00408ac0 f   asmserv.obj
 0001:00007d70       ?Disassembleforward@@YAKPADKKKH@Z 00408d70 f   asmserv.obj
 0001:00007f00       ?Isfilling@@YAHKPADKK@Z    00408f00 f   asmserv.obj
 0001:00008200       ?Print3dnow@@YAHPAD0@Z     00409200 f   asmserv.obj
 0001:000082c0       ?Printfloat10@@YAHPADO@Z   004092c0 f   asmserv.obj
 0001:000086e0       ?Printfloat4@@YAHPADM@Z    004096e0 f   asmserv.obj
 0001:00008840       ?Printfloat8@@YAHPADN@Z    00409840 f   asmserv.obj
 0001:000089e0       ___local_stdio_printf_options 004099e0 f i asmserv.obj
 0001:00008a20       __vsnprintf_l              00409a20 f i asmserv.obj
 0001:00008ad0       __vsprintf_l               00409ad0 f i asmserv.obj
 0001:00008b30       _sprintf                   00409b30 f i asmserv.obj
 0001:00008bb0       ??$_strupr_s@$0BAA@@@YAHAAY0BAA@D@Z 00409bb0 f i assembl.obj
 0001:00008c10       ?Assemble@@YAHPADKPAUt_asmmodel@@HH0@Z 00409c10 f   assembl.obj
 0001:0000b960       ??0CPETOOLSDlg@@QAE@PAVCWnd@@@Z 0040c960 f   PETOOLSDlg.obj
 0001:0000c100       ?EnumChildProc@CPETOOLSDlg@@SGHPAUHWND__@@J@Z 0040d100 f   PETOOLSDlg.obj
 0001:0000c200       ?OnInitDialog@CPETOOLSDlg@@MAEHXZ 0040d200 f   PETOOLSDlg.obj
 0001:0000d1c0       ?SetControlUI@CPETOOLSDlg@@QAEXQADPAVCMFCButton@@PAD@Z 0040e1c0 f   PETOOLSDlg.obj
 0001:0000f360       _powl                      00410360 f i assembl.obj
 0001:0000f3d0       ??$__vcrt_va_start_verify_argument_type@PBD@@YAXXZ 004103d0 f i disasm.obj
 0001:0000f400       ??$sprintf_s@$0BAA@@@YAHAAY0BAA@DPBDZZ 00410400 f i disasm.obj
 0001:0000f470       ?Checkcondition@@YAHHK@Z   00410470 f   disasm.obj
 0001:00012360       ?Disasm@@YAKPADKKPAUt_disasm@@H@Z 00413360 f   disasm.obj
 0001:00014980       ??1CPETOOLSDlg@@UAE@XZ     00415980 f   PETOOLSDlg.obj
 0001:00015ad0       __vsprintf_s_l             00416ad0 f i disasm.obj
 0001:00015b80       _vsprintf_s                00416b80 f i disasm.obj
 0001:00015be0       ??0Ini@@QAE@XZ             00416be0 f   Ini.obj
 0001:00015c40       ??1Ini@@QAE@XZ             00416c40 f   Ini.obj
 0001:00015c80       ?GetIntKey@Ini@@QAEHPAD00@Z 00416c80 f   Ini.obj
 0001:00015d50       ?GetPath@Ini@@QAEPADXZ     00416d50 f   Ini.obj
 0001:00015d90       ?GetStrKey@Ini@@QAEXPAD000@Z 00416d90 f   Ini.obj
 0001:00015e70       ?strrchr@@YAPADQADH@Z      00416e70 f i Ini.obj
 0001:00015ed0       ??$?0AAU?$_Wrap_alloc@V?$allocator@D@std@@@std@@@?$_Wrap_alloc@V?$allocator@U_Container_proxy@std@@@std@@@std@@QAE@AAU?$_Wrap_alloc@V?$allocator@D@std@@@1@@Z 00416ed0 f i DebugLog.obj
 0001:00015f40       ??$?0D@?$allocator@U_Container_proxy@std@@@std@@QAE@ABV?$allocator@D@1@@Z 00416f40 f i DebugLog.obj
 0001:00015f80       ??$_Unfancy@D@std@@YAPADPAD@Z 00416f80 f i DebugLog.obj
 0001:00015fc0       ??$addressof@PAD@std@@YAPAPADAAPAD@Z 00416fc0 f i DebugLog.obj
 0001:00016000       ??$addressof@U_Container_proxy@std@@@std@@YAPAU_Container_proxy@0@AAU10@@Z 00417000 f i DebugLog.obj
 0001:00016040       ??$destroy@PAD@?$_Wrap_alloc@V?$allocator@D@std@@@std@@QAEXPAPAD@Z 00417040 f i DebugLog.obj
 0001:000160a0       ??$destroy@PAD@?$allocator@D@std@@QAEXPAPAD@Z 004170a0 f i DebugLog.obj
 0001:000160e0       ??$destroy@PAD@?$allocator_traits@V?$allocator@D@std@@@std@@SAXAAV?$allocator@D@1@PAPAD@Z 004170e0 f i DebugLog.obj
 0001:00016130       ??$destroy@U_Container_proxy@std@@@?$_Wrap_alloc@V?$allocator@U_Container_proxy@std@@@std@@@std@@QAEXPAU_Container_proxy@1@@Z 00417130 f i DebugLog.obj
 0001:00016190       ??$destroy@U_Container_proxy@std@@@?$allocator@U_Container_proxy@std@@@std@@QAEXPAU_Container_proxy@1@@Z 00417190 f i DebugLog.obj
 0001:000161d0       ??$destroy@U_Container_proxy@std@@@?$allocator_traits@V?$allocator@U_Container_proxy@std@@@std@@@std@@SAXAAV?$allocator@U_Container_proxy@std@@@1@PAU_Container_proxy@1@@Z 004171d0 f i DebugLog.obj
 0001:00016220       ??$forward@AAU?$_Wrap_alloc@V?$allocator@D@std@@@std@@@std@@YAAAU?$_Wrap_alloc@V?$allocator@D@std@@@0@AAU10@@Z 00417220 f i DebugLog.obj
 0001:00016260       ??1?$_Compressed_pair@U?$_Wrap_alloc@V?$allocator@D@std@@@std@@V?$_String_val@U?$_Simple_types@D@std@@@2@$00@std@@QAE@XZ 00417260 f i DebugLog.obj
 0001:000162b0       ??1?$_String_alloc@U?$_String_base_types@DV?$allocator@D@std@@@std@@@std@@QAE@XZ 004172b0 f i DebugLog.obj
 0001:00016340       ??1?$_String_val@U?$_Simple_types@D@std@@@std@@QAE@XZ 00417340 f i DebugLog.obj
 0001:000163a0       ??1?$basic_string@DU?$char_traits@D@std@@V?$allocator@D@2@@std@@QAE@XZ 004173a0 f i DebugLog.obj
 0001:00016440       ??1_Bxty@?$_String_val@U?$_Simple_types@D@std@@@std@@QAE@XZ 00417440 f i DebugLog.obj
 0001:00016480       ??1_Container_base12@std@@QAE@XZ 00417480 f i DebugLog.obj
 0001:00016510       ?DebugLog@SurrealDebugLog@@YAXABV?$basic_string@DU?$char_traits@D@std@@V?$allocator@D@2@@std@@@Z 00417510 f   DebugLog.obj
 0001:00016540       ?DebugLog@SurrealDebugLog@@YAXABV?$basic_string@DU?$char_traits@D@std@@V?$allocator@D@2@@std@@V23@@Z 00417540 f   DebugLog.obj
 0001:00016590       ?DebugLogHex@SurrealDebugLog@@YAXABV?$basic_string@DU?$char_traits@D@std@@V?$allocator@D@2@@std@@AAV23@I@Z 00417590 f   DebugLog.obj
 0001:000165c0       ?_Bx@?$_String_alloc@U?$_String_base_types@DV?$allocator@D@std@@@std@@@std@@QAEAAT_Bxty@?$_String_val@U?$_Simple_types@D@std@@@2@XZ 004175c0 f i DebugLog.obj
 0001:00016620       ?_Deallocate@std@@YAXPAXII@Z 00417620 f i DebugLog.obj
 0001:00016a40       ?_Eos@?$basic_string@DU?$char_traits@D@std@@V?$allocator@D@2@@std@@QAEXI@Z 00417a40 f i DebugLog.obj
 0001:00016ad0       ?_Free_proxy@?$_String_alloc@U?$_String_base_types@DV?$allocator@D@std@@@std@@@std@@QAEXXZ 00417ad0 f i DebugLog.obj
 0001:00016bc0       ?_Get_data@?$_String_alloc@U?$_String_base_types@DV?$allocator@D@std@@@std@@@std@@QAEAAV?$_String_val@U?$_Simple_types@D@std@@@2@XZ 00417bc0 f i DebugLog.obj
 0001:00016c10       ?_Get_first@?$_Compressed_pair@U?$_Wrap_alloc@V?$allocator@D@std@@@std@@V?$_String_val@U?$_Simple_types@D@std@@@2@$00@std@@QAEAAU?$_Wrap_alloc@V?$allocator@D@std@@@2@XZ 00417c10 f i DebugLog.obj
 0001:00016c50       ?_Get_second@?$_Compressed_pair@U?$_Wrap_alloc@V?$allocator@D@std@@@std@@V?$_String_val@U?$_Simple_types@D@std@@@2@$00@std@@QAEAAV?$_String_val@U?$_Simple_types@D@std@@@2@XZ 00417c50 f i DebugLog.obj
 0001:00016c90       ?_Getal@?$_String_alloc@U?$_String_base_types@DV?$allocator@D@std@@@std@@@std@@QAEAAU?$_Wrap_alloc@V?$allocator@D@std@@@2@XZ 00417c90 f i DebugLog.obj
 0001:00016ce0       ?_Myproxy@?$_String_alloc@U?$_String_base_types@DV?$allocator@D@std@@@std@@@std@@QAEAAPAU_Container_proxy@2@XZ 00417ce0 f i DebugLog.obj
 0001:00016d30       ?_Myptr@?$_String_val@U?$_Simple_types@D@std@@@std@@QAEPADXZ 00417d30 f i DebugLog.obj
 0001:00016dc0       ?_Myres@?$_String_alloc@U?$_String_base_types@DV?$allocator@D@std@@@std@@@std@@QAEAAIXZ 00417dc0 f i DebugLog.obj
 0001:00016e20       ?_Orphan_all@?$_String_alloc@U?$_String_base_types@DV?$allocator@D@std@@@std@@@std@@QAEXXZ 00417e20 f i DebugLog.obj
 0001:00016e80       ?_Orphan_all@_Container_base12@std@@QAEXXZ 00417e80 f i DebugLog.obj
 0001:00016f90       ?_Tidy@?$basic_string@DU?$char_traits@D@std@@V?$allocator@D@2@@std@@QAEX_NI@Z 00417f90 f i DebugLog.obj
 0001:000170b0       ?__empty_global_delete@@YAXPAX@Z 004180b0 f i DebugLog.obj
 0001:000170e0       ?__empty_global_delete@@YAXPAXI@Z 004180e0 f i DebugLog.obj
 0001:000170e0       ?__global_delete@@YAXPAXI@Z 004180e0 f i DebugLog.obj
 0001:00017110       ?address@?$_Wrap_alloc@V?$allocator@U_Container_proxy@std@@@std@@@std@@QBEPAU_Container_proxy@2@AAU32@@Z 00418110 f i DebugLog.obj
 0001:00017170       ?assign@?$char_traits@D@std@@SAXAADABD@Z 00418170 f i DebugLog.obj
 0001:000171b0       ?copy@?$char_traits@D@std@@SAPADPADPBDI@Z 004181b0 f i DebugLog.obj
 0001:00017230       ?deallocate@?$_Wrap_alloc@V?$allocator@D@std@@@std@@QAEXPADI@Z 00418230 f i DebugLog.obj
 0001:00017290       ?deallocate@?$_Wrap_alloc@V?$allocator@U_Container_proxy@std@@@std@@@std@@QAEXPAU_Container_proxy@2@I@Z 00418290 f i DebugLog.obj
 0001:000172f0       ?deallocate@?$allocator@D@std@@QAEXPADI@Z 004182f0 f i DebugLog.obj
 0001:00017350       ?deallocate@?$allocator@U_Container_proxy@std@@@std@@QAEXPAU_Container_proxy@2@I@Z 00418350 f i DebugLog.obj
 0001:000173b0       ?pointer_to@?$pointer_traits@PAU_Container_proxy@std@@@std@@SAPAU_Container_proxy@2@AAU32@@Z 004183b0 f i DebugLog.obj
 0001:00017400       ??$?0$$QAV?$basic_string@DU?$char_traits@D@std@@V?$allocator@D@2@@std@@$$Z$$V@?$pair@$$CBV?$basic_string@DU?$char_traits@D@std@@V?$allocator@D@2@@std@@H@std@@QAE@Upiecewise_construct_t@1@V?$tuple@$$QAV?$basic_string@DU?$char_traits@D@std@@V?$allocator@D@2@@std@@@1@V?$tuple@$$V@1@@Z 00418400 f i log4z.obj
 0001:00017480       ??$?0$$V@?$_Compressed_pair@U?$_Wrap_alloc@V?$allocator@D@std@@@std@@V?$_String_val@U?$_Simple_types@D@std@@@2@$00@std@@QAE@U_Zero_then_variadic_args_t@1@@Z 00418480 f i log4z.obj
 0001:000174e0       ??$?0$$V@?$_Compressed_pair@U?$_Wrap_alloc@V?$allocator@PAULogData@log4z@zsummer@@@std@@@std@@V?$_Deque_val@U?$_Deque_simple_types@PAULogData@log4z@zsummer@@@std@@@2@$00@std@@QAE@U_Zero_then_variadic_args_t@1@@Z 004184e0 f i log4z.obj
 0001:00017540       ??$?0$$V@?$_Compressed_pair@U?$_Wrap_alloc@V?$allocator@PAULogData@log4z@zsummer@@@std@@@std@@V?$_Vector_val@U?$_Simple_types@PAULogData@log4z@zsummer@@@std@@@2@$00@std@@QAE@U_Zero_then_variadic_args_t@1@@Z 00418540 f i log4z.obj
 0001:000175a0       ??$?0$$V@?$_Compressed_pair@U?$_Wrap_alloc@V?$allocator@U?$_List_node@U?$pair@_JV?$basic_string@DU?$char_traits@D@std@@V?$allocator@D@2@@std@@@std@@PAX@std@@@std@@@std@@V?$_List_val@U?$_List_simple_types@U?$pair@_JV?$basic_string@DU?$char_traits@D@std@@V?$allocator@D@2@@std@@@std@@@std@@@2@$00@std@@QAE@U_Zero_then_variadic_args_t@1@@Z 004185a0 f i log4z.obj
 0001:00017600       ??$?0$$V@?$_Compressed_pair@U?$_Wrap_alloc@V?$allocator@U?$_Tree_node@U?$pair@$$CBV?$basic_string@DU?$char_traits@D@std@@V?$allocator@D@2@@std@@H@std@@PAX@std@@@std@@@std@@V?$_Tree_val@U?$_Tree_simple_types@U?$pair@$$CBV?$basic_string@DU?$char_traits@D@std@@V?$allocator@D@2@@std@@H@std@@@std@@@2@$00@std@@QAE@U_Zero_then_variadic_args_t@1@@Z 00418600 f i log4z.obj
 0001:00017660       ??$?0$$V@?$_Compressed_pair@U?$_Wrap_alloc@V?$allocator@U?$_Tree_node@U?$pair@$$CBV?$basic_string@DU?$char_traits@D@std@@V?$allocator@D@2@@std@@ULoggerInfo@log4z@zsummer@@@std@@PAX@std@@@std@@@std@@V?$_Tree_val@U?$_Tree_simple_types@U?$pair@$$CBV?$basic_string@DU?$char_traits@D@std@@V?$allocator@D@2@@std@@ULoggerInfo@log4z@zsummer@@@std@@@std@@@2@$00@std@@QAE@U_Zero_then_variadic_args_t@1@@Z 00418660 f i log4z.obj
 0001:000176c0       ??$?0AAU?$_Wrap_alloc@V?$allocator@PAULogData@log4z@zsummer@@@std@@@std@@@?$_Wrap_alloc@V?$allocator@PAPAULogData@log4z@zsummer@@@std@@@std@@QAE@AAU?$_Wrap_alloc@V?$allocator@PAULogData@log4z@zsummer@@@std@@@1@@Z 004186c0 f i log4z.obj
 0001:00017730       ??$?0AAU?$_Wrap_alloc@V?$allocator@PAULogData@log4z@zsummer@@@std@@@std@@@?$_Wrap_alloc@V?$allocator@U_Container_proxy@std@@@std@@@std@@QAE@AAU?$_Wrap_alloc@V?$allocator@PAULogData@log4z@zsummer@@@std@@@1@@Z 00418730 f i log4z.obj
 0001:000177a0       ??$?0AAU?$_Wrap_alloc@V?$allocator@U?$_List_node@U?$pair@_JV?$basic_string@DU?$char_traits@D@std@@V?$allocator@D@2@@std@@@std@@PAX@std@@@std@@@std@@@?$_Wrap_alloc@V?$allocator@U_Container_proxy@std@@@std@@@std@@QAE@AAU?$_Wrap_alloc@V?$allocator@U?$_List_node@U?$pair@_JV?$basic_string@DU?$char_traits@D@std@@V?$allocator@D@2@@std@@@std@@PAX@std@@@std@@@1@@Z 004187a0 f i log4z.obj
 0001:00017810       ??$?0AAU?$_Wrap_alloc@V?$allocator@U?$_Tree_node@U?$pair@$$CBV?$basic_string@DU?$char_traits@D@std@@V?$allocator@D@2@@std@@H@std@@PAX@std@@@std@@@std@@@?$_Wrap_alloc@V?$allocator@U_Container_proxy@std@@@std@@@std@@QAE@AAU?$_Wrap_alloc@V?$allocator@U?$_Tree_node@U?$pair@$$CBV?$basic_string@DU?$char_traits@D@std@@V?$allocator@D@2@@std@@H@std@@PAX@std@@@std@@@1@@Z 00418810 f i log4z.obj
 0001:00017880       ??$?0AAU?$_Wrap_alloc@V?$allocator@U?$_Tree_node@U?$pair@$$CBV?$basic_string@DU?$char_traits@D@std@@V?$allocator@D@2@@std@@ULoggerInfo@log4z@zsummer@@@std@@PAX@std@@@std@@@std@@@?$_Wrap_alloc@V?$allocator@U_Container_proxy@std@@@std@@@std@@QAE@AAU?$_Wrap_alloc@V?$allocator@U?$_Tree_node@U?$pair@$$CBV?$basic_string@DU?$char_traits@D@std@@V?$allocator@D@2@@std@@ULoggerInfo@log4z@zsummer@@@std@@PAX@std@@@std@@@1@@Z 00418880 f i log4z.obj
 0001:000178f0       ??$?0AAV?$_Tree_iterator@V?$_Tree_val@U?$_Tree_simple_types@U?$pair@$$CBV?$basic_string@DU?$char_traits@D@std@@V?$allocator@D@2@@std@@H@std@@@std@@@std@@@std@@_NX$0A@@?$pair@V?$_Tree_iterator@V?$_Tree_val@U?$_Tree_simple_types@U?$pair@$$CBV?$basic_string@DU?$char_traits@D@std@@V?$allocator@D@2@@std@@H@std@@@std@@@std@@@std@@_N@std@@QAE@AAV?$_Tree_iterator@V?$_Tree_val@U?$_Tree_simple_types@U?$pair@$$CBV?$basic_string@DU?$char_traits@D@std@@V?$allocator@D@2@@std@@H@std@@@std@@@std@@@1@$$QA_N@Z 004188f0 f i log4z.obj
 0001:00017970       ??$?0AAV?$_Tree_iterator@V?$_Tree_val@U?$_Tree_simple_types@U?$pair@$$CBV?$basic_string@DU?$char_traits@D@std@@V?$allocator@D@2@@std@@ULoggerInfo@log4z@zsummer@@@std@@@std@@@std@@@std@@_NX$0A@@?$pair@V?$_Tree_iterator@V?$_Tree_val@U?$_Tree_simple_types@U?$pair@$$CBV?$basic_string@DU?$char_traits@D@std@@V?$allocator@D@2@@std@@ULoggerInfo@log4z@zsummer@@@std@@@std@@@std@@@std@@_N@std@@QAE@AAV?$_Tree_iterator@V?$_Tree_val@U?$_Tree_simple_types@U?$pair@$$CBV?$basic_string@DU?$char_traits@D@std@@V?$allocator@D@2@@std@@ULoggerInfo@log4z@zsummer@@@std@@@std@@@std@@@1@$$QA_N@Z 00418970 f i log4z.obj
 0001:000179f0       ??$?0AAV?$basic_string@DU?$char_traits@D@std@@V?$allocator@D@2@@std@@AAULoggerInfo@log4z@zsummer@@X$0A@@?$pair@V?$basic_string@DU?$char_traits@D@std@@V?$allocator@D@2@@std@@ULoggerInfo@log4z@zsummer@@@std@@QAE@AAV?$basic_string@DU?$char_traits@D@std@@V?$allocator@D@2@@1@AAULoggerInfo@log4z@zsummer@@@Z 004189f0 f i log4z.obj
 0001:00017ac0       ??$?0ABU?$less@V?$basic_string@DU?$char_traits@D@std@@V?$allocator@D@2@@std@@@std@@U_Zero_then_variadic_args_t@1@@?$_Compressed_pair@U?$less@V?$basic_string@DU?$char_traits@D@std@@V?$allocator@D@2@@std@@@std@@V?$_Compressed_pair@U?$_Wrap_alloc@V?$allocator@U?$_Tree_node@U?$pair@$$CBV?$basic_string@DU?$char_traits@D@std@@V?$allocator@D@2@@std@@H@std@@PAX@std@@@std@@@std@@V?$_Tree_val@U?$_Tree_simple_types@U?$pair@$$CBV?$basic_string@DU?$char_traits@D@std@@V?$allocator@D@2@@std@@H@std@@@std@@@2@$00@2@$00@std@@QAE@U_One_then_variadic_args_t@1@ABU?$less@V?$basic_string@DU?$char_traits@D@std@@V?$allocator@D@2@@std@@@1@$$QAU_Zero_then_variadic_args_t@1@@Z 00418ac0 f i log4z.obj
 0001:00017b40       ??$?0ABU?$less@V?$basic_string@DU?$char_traits@D@std@@V?$allocator@D@2@@std@@@std@@U_Zero_then_variadic_args_t@1@@?$_Compressed_pair@U?$less@V?$basic_string@DU?$char_traits@D@std@@V?$allocator@D@2@@std@@@std@@V?$_Compressed_pair@U?$_Wrap_alloc@V?$allocator@U?$_Tree_node@U?$pair@$$CBV?$basic_string@DU?$char_traits@D@std@@V?$allocator@D@2@@std@@ULoggerInfo@log4z@zsummer@@@std@@PAX@std@@@std@@@std@@V?$_Tree_val@U?$_Tree_simple_types@U?$pair@$$CBV?$basic_string@DU?$char_traits@D@std@@V?$allocator@D@2@@std@@ULoggerInfo@log4z@zsummer@@@std@@@std@@@2@$00@2@$00@std@@QAE@U_One_then_variadic_args_t@1@ABU?$less@V?$basic_string@DU?$char_traits@D@std@@V?$allocator@D@2@@std@@@1@$$QAU_Zero_then_variadic_args_t@1@@Z 00418b40 f i log4z.obj
 0001:00017bc0       ??$?0ABV?$allocator@D@std@@$$V@?$_Compressed_pair@U?$_Wrap_alloc@V?$allocator@D@std@@@std@@V?$_String_val@U?$_Simple_types@D@std@@@2@$00@std@@QAE@U_One_then_variadic_args_t@1@ABV?$allocator@D@1@@Z 00418bc0 f i log4z.obj
 0001:00017c30       ??$?0ABV?$allocator@D@std@@@?$_Wrap_alloc@V?$allocator@D@std@@@std@@QAE@ABV?$allocator@D@1@@Z 00418c30 f i log4z.obj
 0001:00017ca0       ??$?0ABV?$allocator@D@std@@X@?$_String_alloc@U?$_String_base_types@DV?$allocator@D@std@@@std@@@std@@QAE@ABV?$allocator@D@1@@Z 00418ca0 f i log4z.obj
 0001:00017d60       ??$?0ABV?$basic_string@DU?$char_traits@D@std@@V?$allocator@D@2@@std@@$$Z$$V@?$pair@$$CBV?$basic_string@DU?$char_traits@D@std@@V?$allocator@D@2@@std@@H@std@@QAE@Upiecewise_construct_t@1@V?$tuple@ABV?$basic_string@DU?$char_traits@D@std@@V?$allocator@D@2@@std@@@1@V?$tuple@$$V@1@@Z 00418d60 f i log4z.obj
 0001:00017de0       ??$?0ABV?$basic_string@DU?$char_traits@D@std@@V?$allocator@D@2@@std@@$0A@@?$tuple@ABV?$basic_string@DU?$char_traits@D@std@@V?$allocator@D@2@@std@@@std@@QAE@ABV?$basic_string@DU?$char_traits@D@std@@V?$allocator@D@2@@1@@Z 00418de0 f i log4z.obj
 0001:00017e60       ??$?0ABV?$basic_string@DU?$char_traits@D@std@@V?$allocator@D@2@@std@@@?$_Tuple_val@ABV?$basic_string@DU?$char_traits@D@std@@V?$allocator@D@2@@std@@@std@@QAE@ABV?$basic_string@DU?$char_traits@D@std@@V?$allocator@D@2@@1@@Z 00418e60 f i log4z.obj
 0001:00017ec0       ??$?0PAULogData@log4z@zsummer@@@?$allocator@PAPAULogData@log4z@zsummer@@@std@@QAE@ABV?$allocator@PAULogData@log4z@zsummer@@@1@@Z 00418ec0 f i log4z.obj
 0001:00017f00       ??$?0PAULogData@log4z@zsummer@@@?$allocator@U_Container_proxy@std@@@std@@QAE@ABV?$allocator@PAULogData@log4z@zsummer@@@1@@Z 00418f00 f i log4z.obj
 0001:00017f40       ??$?0U?$_List_node@U?$pair@_JV?$basic_string@DU?$char_traits@D@std@@V?$allocator@D@2@@std@@@std@@PAX@std@@@?$allocator@U_Container_proxy@std@@@std@@QAE@ABV?$allocator@U?$_List_node@U?$pair@_JV?$basic_string@DU?$char_traits@D@std@@V?$allocator@D@2@@std@@@std@@PAX@std@@@1@@Z 00418f40 f i log4z.obj
 0001:00017f80       ??$?0U?$_Tree_node@U?$pair@$$CBV?$basic_string@DU?$char_traits@D@std@@V?$allocator@D@2@@std@@H@std@@PAX@std@@@?$allocator@U_Container_proxy@std@@@std@@QAE@ABV?$allocator@U?$_Tree_node@U?$pair@$$CBV?$basic_string@DU?$char_traits@D@std@@V?$allocator@D@2@@std@@H@std@@PAX@std@@@1@@Z 00418f80 f i log4z.obj
 0001:00017fc0       ??$?0U?$_Tree_node@U?$pair@$$CBV?$basic_string@DU?$char_traits@D@std@@V?$allocator@D@2@@std@@ULoggerInfo@log4z@zsummer@@@std@@PAX@std@@@?$allocator@U_Container_proxy@std@@@std@@QAE@ABV?$allocator@U?$_Tree_node@U?$pair@$$CBV?$basic_string@DU?$char_traits@D@std@@V?$allocator@D@2@@std@@ULoggerInfo@log4z@zsummer@@@std@@PAX@std@@@1@@Z 00418fc0 f i log4z.obj
 0001:00018000       ??$?0U?$_Wrap_alloc@V?$allocator@D@std@@@std@@$$V@?$_Compressed_pair@U?$_Wrap_alloc@V?$allocator@D@std@@@std@@V?$_String_val@U?$_Simple_types@D@std@@@2@$00@std@@QAE@U_One_then_variadic_args_t@1@$$QAU?$_Wrap_alloc@V?$allocator@D@std@@@1@@Z 00419000 f i log4z.obj
 0001:00018070       ??$?0U?$_Wrap_alloc@V?$allocator@D@std@@@std@@X@?$_String_alloc@U?$_String_base_types@DV?$allocator@D@std@@@std@@@std@@QAE@$$QAU?$_Wrap_alloc@V?$allocator@D@std@@@1@@Z 00419070 f i log4z.obj
 0001:00018130       ??$?0U?$_Wrap_alloc@V?$allocator@U?$_List_node@U?$pair@_JV?$basic_string@DU?$char_traits@D@std@@V?$allocator@D@2@@std@@@std@@PAX@std@@@std@@@std@@$$V@?$_Compressed_pair@U?$_Wrap_alloc@V?$allocator@U?$_List_node@U?$pair@_JV?$basic_string@DU?$char_traits@D@std@@V?$allocator@D@2@@std@@@std@@PAX@std@@@std@@@std@@V?$_List_val@U?$_List_simple_types@U?$pair@_JV?$basic_string@DU?$char_traits@D@std@@V?$allocator@D@2@@std@@@std@@@std@@@2@$00@std@@QAE@U_One_then_variadic_args_t@1@$$QAU?$_Wrap_alloc@V?$allocator@U?$_List_node@U?$pair@_JV?$basic_string@DU?$char_traits@D@std@@V?$allocator@D@2@@std@@@std@@PAX@std@@@std@@@1@@Z 00419130 f i log4z.obj
 0001:000181a0       ??$?0U?$_Wrap_alloc@V?$allocator@U?$_List_node@U?$pair@_JV?$basic_string@DU?$char_traits@D@std@@V?$allocator@D@2@@std@@@std@@PAX@std@@@std@@@std@@X@?$_List_alloc@U?$_List_base_types@U?$pair@_JV?$basic_string@DU?$char_traits@D@std@@V?$allocator@D@2@@std@@@std@@V?$allocator@U?$pair@_JV?$basic_string@DU?$char_traits@D@std@@V?$allocator@D@2@@std@@@std@@@2@@std@@@std@@QAE@$$QAU?$_Wrap_alloc@V?$allocator@U?$_List_node@U?$pair@_JV?$basic_string@DU?$char_traits@D@std@@V?$allocator@D@2@@std@@@std@@PAX@std@@@std@@@1@@Z 004191a0 f i log4z.obj
 0001:000182d0       ??$?0U?$_Wrap_alloc@V?$allocator@U?$_List_node@U?$pair@_JV?$basic_string@DU?$char_traits@D@std@@V?$allocator@D@2@@std@@@std@@PAX@std@@@std@@@std@@X@?$_List_buy@U?$pair@_JV?$basic_string@DU?$char_traits@D@std@@V?$allocator@D@2@@std@@@std@@V?$allocator@U?$pair@_JV?$basic_string@DU?$char_traits@D@std@@V?$allocator@D@2@@std@@@std@@@2@@std@@QAE@$$QAU?$_Wrap_alloc@V?$allocator@U?$_List_node@U?$pair@_JV?$basic_string@DU?$char_traits@D@std@@V?$allocator@D@2@@std@@@std@@PAX@std@@@std@@@1@@Z 004192d0 f i log4z.obj
 0001:00018340       ??$?0U_Exact_args_t@std@@$0A@@?$tuple@$$V@std@@QAE@U_Exact_args_t@1@@Z 00419340 f i log4z.obj
 0001:00018380       ??$?0V?$_Tree_iterator@V?$_Tree_val@U?$_Tree_simple_types@U?$pair@$$CBV?$basic_string@DU?$char_traits@D@std@@V?$allocator@D@2@@std@@H@std@@@std@@@std@@@std@@_NX$0A@@?$pair@V?$_Tree_iterator@V?$_Tree_val@U?$_Tree_simple_types@U?$pair@$$CBV?$basic_string@DU?$char_traits@D@std@@V?$allocator@D@2@@std@@H@std@@@std@@@std@@@std@@_N@std@@QAE@$$QAV?$_Tree_iterator@V?$_Tree_val@U?$_Tree_simple_types@U?$pair@$$CBV?$basic_string@DU?$char_traits@D@std@@V?$allocator@D@2@@std@@H@std@@@std@@@std@@@1@$$QA_N@Z 00419380 f i log4z.obj
 0001:00018400       ??$?0V?$_Tree_iterator@V?$_Tree_val@U?$_Tree_simple_types@U?$pair@$$CBV?$basic_string@DU?$char_traits@D@std@@V?$allocator@D@2@@std@@ULoggerInfo@log4z@zsummer@@@std@@@std@@@std@@@std@@_NX$0A@@?$pair@V?$_Tree_iterator@V?$_Tree_val@U?$_Tree_simple_types@U?$pair@$$CBV?$basic_string@DU?$char_traits@D@std@@V?$allocator@D@2@@std@@ULoggerInfo@log4z@zsummer@@@std@@@std@@@std@@@std@@_N@std@@QAE@$$QAV?$_Tree_iterator@V?$_Tree_val@U?$_Tree_simple_types@U?$pair@$$CBV?$basic_string@DU?$char_traits@D@std@@V?$allocator@D@2@@std@@ULoggerInfo@log4z@zsummer@@@std@@@std@@@std@@@1@$$QA_N@Z 00419400 f i log4z.obj
 0001:00018480       ??$?0V?$allocator@D@std@@@?$_Wrap_alloc@V?$allocator@D@std@@@std@@QAE@$$QAV?$allocator@D@1@@Z 00419480 f i log4z.obj
 0001:000184f0       ??$?0V?$allocator@U?$_List_node@U?$pair@_JV?$basic_string@DU?$char_traits@D@std@@V?$allocator@D@2@@std@@@std@@PAX@std@@@std@@@?$_Wrap_alloc@V?$allocator@U?$_List_node@U?$pair@_JV?$basic_string@DU?$char_traits@D@std@@V?$allocator@D@2@@std@@@std@@PAX@std@@@std@@@std@@QAE@$$QAV?$allocator@U?$_List_node@U?$pair@_JV?$basic_string@DU?$char_traits@D@std@@V?$allocator@D@2@@std@@@std@@PAX@std@@@1@@Z 004194f0 f i log4z.obj
 0001:00018560       ??$?0V?$basic_string@DU?$char_traits@D@std@@V?$allocator@D@2@@std@@$$V$0A@@?$tuple@$$QAV?$basic_string@DU?$char_traits@D@std@@V?$allocator@D@2@@std@@@std@@QAE@$$QAV?$basic_string@DU?$char_traits@D@std@@V?$allocator@D@2@@1@@Z 00419560 f i log4z.obj
 0001:000185f0       ??$?0V?$basic_string@DU?$char_traits@D@std@@V?$allocator@D@2@@std@@@?$_Tuple_val@$$QAV?$basic_string@DU?$char_traits@D@std@@V?$allocator@D@2@@std@@@std@@QAE@$$QAV?$basic_string@DU?$char_traits@D@std@@V?$allocator@D@2@@1@@Z 004195f0 f i log4z.obj
 0001:00018650       ??$?0V?$basic_string@DU?$char_traits@D@std@@V?$allocator@D@2@@std@@PBDX$0A@@?$pair@V?$basic_string@DU?$char_traits@D@std@@V?$allocator@D@2@@std@@PBD@std@@QAE@ABV?$basic_string@DU?$char_traits@D@std@@V?$allocator@D@2@@1@ABQBD@Z 00419650 f i log4z.obj
 0001:000186c0       ??$?0V?$basic_string@DU?$char_traits@D@std@@V?$allocator@D@2@@std@@PBDX$0A@@?$pair@V?$basic_string@DU?$char_traits@D@std@@V?$allocator@D@2@@std@@V12@@std@@QAE@$$QAU?$pair@V?$basic_string@DU?$char_traits@D@std@@V?$allocator@D@2@@std@@PBD@1@@Z 004196c0 f i log4z.obj
 0001:00018790       ??$?0V?$basic_string@DU?$char_traits@D@std@@V?$allocator@D@2@@std@@ULoggerInfo@log4z@zsummer@@X$0A@@?$pair@$$CBV?$basic_string@DU?$char_traits@D@std@@V?$allocator@D@2@@std@@ULoggerInfo@log4z@zsummer@@@std@@QAE@$$QAU?$pair@V?$basic_string@DU?$char_traits@D@std@@V?$allocator@D@2@@std@@ULoggerInfo@log4z@zsummer@@@1@@Z 00419790 f i log4z.obj
 0001:00018860       ??$?0V?$basic_string@DU?$char_traits@D@std@@V?$allocator@D@2@@std@@V01@X$0A@@?$pair@V?$basic_string@DU?$char_traits@D@std@@V?$allocator@D@2@@std@@V12@@std@@QAE@$$QAV?$basic_string@DU?$char_traits@D@std@@V?$allocator@D@2@@1@0@Z 00419860 f i log4z.obj
 0001:000188f0       ??$?0V?$tuple@$$QAV?$basic_string@DU?$char_traits@D@std@@V?$allocator@D@2@@std@@@std@@V?$tuple@$$V@1@$0A@$$Z$S@?$pair@$$CBV?$basic_string@DU?$char_traits@D@std@@V?$allocator@D@2@@std@@H@std@@QAE@AAV?$tuple@$$QAV?$basic_string@DU?$char_traits@D@std@@V?$allocator@D@2@@std@@@1@AAV?$tuple@$$V@1@U?$integer_sequence@I$0A@@1@U?$integer_sequence@I$S@1@@Z 004198f0 f i log4z.obj
 0001:00018970       ??$?0V?$tuple@ABV?$basic_string@DU?$char_traits@D@std@@V?$allocator@D@2@@std@@@std@@V?$tuple@$$V@1@$0A@$$Z$S@?$pair@$$CBV?$basic_string@DU?$char_traits@D@std@@V?$allocator@D@2@@std@@H@std@@QAE@AAV?$tuple@ABV?$basic_string@DU?$char_traits@D@std@@V?$allocator@D@2@@std@@@1@AAV?$tuple@$$V@1@U?$integer_sequence@I$0A@@1@U?$integer_sequence@I$S@1@@Z 00419970 f i log4z.obj
 0001:000189f0       ??$?0_JAAV?$basic_string@DU?$char_traits@D@std@@V?$allocator@D@2@@std@@X$0A@@?$pair@_JV?$basic_string@DU?$char_traits@D@std@@V?$allocator@D@2@@std@@@std@@QAE@$$QA_JAAV?$basic_string@DU?$char_traits@D@std@@V?$allocator@D@2@@1@@Z 004199f0 f i log4z.obj
 0001:00018a80       ??$?6DU?$char_traits@D@std@@V?$allocator@D@1@@Log4zStream@log4z@zsummer@@QAEAAV012@ABV?$basic_string@DU?$char_traits@D@std@@V?$allocator@D@2@@std@@@Z 00419a80 f i log4z.obj
 0001:00018af0       ??$?8DD@std@@YA_NABV?$allocator@D@0@0@Z 00419af0 f i log4z.obj
 0001:00018b20       ??$?8DU?$char_traits@D@std@@V?$allocator@D@1@@std@@YA_NABV?$basic_string@DU?$char_traits@D@std@@V?$allocator@D@2@@0@0@Z 00419b20 f i log4z.obj
 0001:00018ba0       ??$?8DU?$char_traits@D@std@@V?$allocator@D@1@@std@@YA_NABV?$basic_string@DU?$char_traits@D@std@@V?$allocator@D@2@@0@PBD@Z 00419ba0 f i log4z.obj
 0001:00018c20       ??$?8PAULogData@log4z@zsummer@@PAU012@@std@@YA_NABV?$allocator@PAULogData@log4z@zsummer@@@0@0@Z 00419c20 f i log4z.obj
 0001:00018c50       ??$?8V?$allocator@D@std@@V01@@std@@YA_NABU?$_Wrap_alloc@V?$allocator@D@std@@@0@0@Z 00419c50 f i log4z.obj
 0001:00018cb0       ??$?8V?$allocator@PAULogData@log4z@zsummer@@@std@@V01@@std@@YA_NABU?$_Wrap_alloc@V?$allocator@PAULogData@log4z@zsummer@@@std@@@0@0@Z 00419cb0 f i log4z.obj
 0001:00018d10       ??$?9DU?$char_traits@D@std@@V?$allocator@D@1@@std@@YA_NABV?$basic_string@DU?$char_traits@D@std@@V?$allocator@D@2@@0@0@Z 00419d10 f i log4z.obj
 0001:00018d90       ??$?9V?$allocator@D@std@@V01@@std@@YA_NABU?$_Wrap_alloc@V?$allocator@D@std@@@0@0@Z 00419d90 f i log4z.obj
 0001:00018e10       ??$?9V?$allocator@PAULogData@log4z@zsummer@@@std@@V01@@std@@YA_NABU?$_Wrap_alloc@V?$allocator@PAULogData@log4z@zsummer@@@std@@@0@0@Z 00419e10 f i log4z.obj
 0001:00018e90       ??$?MDU?$char_traits@D@std@@V?$allocator@D@1@@std@@YA_NABV?$basic_string@DU?$char_traits@D@std@@V?$allocator@D@2@@0@0@Z 00419e90 f i log4z.obj
 0001:00018f10       ??$_Buynode@ABU?$pair@_JV?$basic_string@DU?$char_traits@D@std@@V?$allocator@D@2@@std@@@std@@@?$_List_buy@U?$pair@_JV?$basic_string@DU?$char_traits@D@std@@V?$allocator@D@2@@std@@@std@@V?$allocator@U?$pair@_JV?$basic_string@DU?$char_traits@D@std@@V?$allocator@D@2@@std@@@std@@@2@@std@@QAEPAU?$_List_node@U?$pair@_JV?$basic_string@DU?$char_traits@D@std@@V?$allocator@D@2@@std@@@std@@PAX@1@PAU21@0ABU?$pair@_JV?$basic_string@DU?$char_traits@D@std@@V?$allocator@D@2@@std@@@1@@Z 00419f10 f i log4z.obj
 0001:00019050       ??$_Buynode@ABUpiecewise_construct_t@std@@V?$tuple@$$QAV?$basic_string@DU?$char_traits@D@std@@V?$allocator@D@2@@std@@@2@V?$tuple@$$V@2@@?$_Tree_comp_alloc@V?$_Tmap_traits@V?$basic_string@DU?$char_traits@D@std@@V?$allocator@D@2@@std@@HU?$less@V?$basic_string@DU?$char_traits@D@std@@V?$allocator@D@2@@std@@@2@V?$allocator@U?$pair@$$CBV?$basic_string@DU?$char_traits@D@std@@V?$allocator@D@2@@std@@H@std@@@2@$0A@@std@@@std@@QAEPAU?$_Tree_node@U?$pair@$$CBV?$basic_string@DU?$char_traits@D@std@@V?$allocator@D@2@@std@@H@std@@PAX@1@ABUpiecewise_construct_t@1@$$QAV?$tuple@$$QAV?$basic_string@DU?$char_traits@D@std@@V?$allocator@D@2@@std@@@1@$$QAV?$tuple@$$V@1@@Z 0041a050 f i log4z.obj
 0001:000191c0       ??$_Buynode@ABUpiecewise_construct_t@std@@V?$tuple@ABV?$basic_string@DU?$char_traits@D@std@@V?$allocator@D@2@@std@@@2@V?$tuple@$$V@2@@?$_Tree_comp_alloc@V?$_Tmap_traits@V?$basic_string@DU?$char_traits@D@std@@V?$allocator@D@2@@std@@HU?$less@V?$basic_string@DU?$char_traits@D@std@@V?$allocator@D@2@@std@@@2@V?$allocator@U?$pair@$$CBV?$basic_string@DU?$char_traits@D@std@@V?$allocator@D@2@@std@@H@std@@@2@$0A@@std@@@std@@QAEPAU?$_Tree_node@U?$pair@$$CBV?$basic_string@DU?$char_traits@D@std@@V?$allocator@D@2@@std@@H@std@@PAX@1@ABUpiecewise_construct_t@1@$$QAV?$tuple@ABV?$basic_string@DU?$char_traits@D@std@@V?$allocator@D@2@@std@@@1@$$QAV?$tuple@$$V@1@@Z 0041a1c0 f i log4z.obj
 0001:00019330       ??$_Buynode@U?$pair@V?$basic_string@DU?$char_traits@D@std@@V?$allocator@D@2@@std@@ULoggerInfo@log4z@zsummer@@@std@@@?$_Tree_comp_alloc@V?$_Tmap_traits@V?$basic_string@DU?$char_traits@D@std@@V?$allocator@D@2@@std@@ULoggerInfo@log4z@zsummer@@U?$less@V?$basic_string@DU?$char_traits@D@std@@V?$allocator@D@2@@std@@@2@V?$allocator@U?$pair@$$CBV?$basic_string@DU?$char_traits@D@std@@V?$allocator@D@2@@std@@ULoggerInfo@log4z@zsummer@@@std@@@2@$0A@@std@@@std@@QAEPAU?$_Tree_node@U?$pair@$$CBV?$basic_string@DU?$char_traits@D@std@@V?$allocator@D@2@@std@@ULoggerInfo@log4z@zsummer@@@std@@PAX@1@$$QAU?$pair@V?$basic_string@DU?$char_traits@D@std@@V?$allocator@D@2@@std@@ULoggerInfo@log4z@zsummer@@@1@@Z 0041a330 f i log4z.obj
 0001:00019480       ??$_Buynode@U?$pair@_JV?$basic_string@DU?$char_traits@D@std@@V?$allocator@D@2@@std@@@std@@@?$_List_buy@U?$pair@_JV?$basic_string@DU?$char_traits@D@std@@V?$allocator@D@2@@std@@@std@@V?$allocator@U?$pair@_JV?$basic_string@DU?$char_traits@D@std@@V?$allocator@D@2@@std@@@std@@@2@@std@@QAEPAU?$_List_node@U?$pair@_JV?$basic_string@DU?$char_traits@D@std@@V?$allocator@D@2@@std@@@std@@PAX@1@PAU21@0$$QAU?$pair@_JV?$basic_string@DU?$char_traits@D@std@@V?$allocator@D@2@@std@@@1@@Z 0041a480 f i log4z.obj
 0001:000195c0       ??$_Buynode_if_nil@AAU?$pair@$$CBV?$basic_string@DU?$char_traits@D@std@@V?$allocator@D@2@@std@@H@std@@@?$_Tree@V?$_Tmap_traits@V?$basic_string@DU?$char_traits@D@std@@V?$allocator@D@2@@std@@HU?$less@V?$basic_string@DU?$char_traits@D@std@@V?$allocator@D@2@@std@@@2@V?$allocator@U?$pair@$$CBV?$basic_string@DU?$char_traits@D@std@@V?$allocator@D@2@@std@@H@std@@@2@$0A@@std@@@std@@IAEPAU?$_Tree_node@U?$pair@$$CBV?$basic_string@DU?$char_traits@D@std@@V?$allocator@D@2@@std@@H@std@@PAX@1@PAU21@AAU?$pair@$$CBV?$basic_string@DU?$char_traits@D@std@@V?$allocator@D@2@@std@@H@1@@Z 0041a5c0 f i log4z.obj
 0001:00019600       ??$_Buynode_if_nil@AAU?$pair@$$CBV?$basic_string@DU?$char_traits@D@std@@V?$allocator@D@2@@std@@ULoggerInfo@log4z@zsummer@@@std@@@?$_Tree@V?$_Tmap_traits@V?$basic_string@DU?$char_traits@D@std@@V?$allocator@D@2@@std@@ULoggerInfo@log4z@zsummer@@U?$less@V?$basic_string@DU?$char_traits@D@std@@V?$allocator@D@2@@std@@@2@V?$allocator@U?$pair@$$CBV?$basic_string@DU?$char_traits@D@std@@V?$allocator@D@2@@std@@ULoggerInfo@log4z@zsummer@@@std@@@2@$0A@@std@@@std@@IAEPAU?$_Tree_node@U?$pair@$$CBV?$basic_string@DU?$char_traits@D@std@@V?$allocator@D@2@@std@@ULoggerInfo@log4z@zsummer@@@std@@PAX@1@PAU21@AAU?$pair@$$CBV?$basic_string@DU?$char_traits@D@std@@V?$allocator@D@2@@std@@ULoggerInfo@log4z@zsummer@@@1@@Z 0041a600 f i log4z.obj
 0001:00019640       ??$_Const_cast@$$CBD@std@@YA@PBD@Z 0041a640 f i log4z.obj
 0001:00019680       ??$_Copy_memmove@PAPAPAULogData@log4z@zsummer@@PAPAPAU123@@std@@YAPAPAPAULogData@log4z@zsummer@@PAPAPAU123@00@Z 0041a680 f i log4z.obj
 0001:00019710       ??$_Copy_memmove@PAPAULogData@log4z@zsummer@@PAPAU123@@std@@YAPAPAULogData@log4z@zsummer@@PAPAU123@00@Z 0041a710 f i log4z.obj
 0001:000197a0       ??$_Debug_lt_pred@AAU?$less@V?$basic_string@DU?$char_traits@D@std@@V?$allocator@D@2@@std@@@std@@AAV?$basic_string@DU?$char_traits@D@std@@V?$allocator@D@2@@2@ABV32@@std@@YA_NAAU?$less@V?$basic_string@DU?$char_traits@D@std@@V?$allocator@D@2@@std@@@0@AAV?$basic_string@DU?$char_traits@D@std@@V?$allocator@D@2@@0@ABV20@PB_WI@Z 0041a7a0 f i log4z.obj
 0001:00019880       ??$_Debug_lt_pred@AAU?$less@V?$basic_string@DU?$char_traits@D@std@@V?$allocator@D@2@@std@@@std@@ABV?$basic_string@DU?$char_traits@D@std@@V?$allocator@D@2@@2@ABV32@@std@@YA_NAAU?$less@V?$basic_string@DU?$char_traits@D@std@@V?$allocator@D@2@@std@@@0@ABV?$basic_string@DU?$char_traits@D@std@@V?$allocator@D@2@@0@1PB_WI@Z 0041a880 f i log4z.obj
 0001:00019960       ??$_Debug_lt_pred@ABU?$less@V?$basic_string@DU?$char_traits@D@std@@V?$allocator@D@2@@std@@@std@@ABV?$basic_string@DU?$char_traits@D@std@@V?$allocator@D@2@@2@ABV32@@std@@YA_NABU?$less@V?$basic_string@DU?$char_traits@D@std@@V?$allocator@D@2@@std@@@0@ABV?$basic_string@DU?$char_traits@D@std@@V?$allocator@D@2@@0@1PB_WI@Z 0041a960 f i log4z.obj
 0001:00019a40       ??$_Debug_pointer@$$CBD@std@@YAXPBDPB_WI@Z 0041aa40 f i log4z.obj
 0001:00019ab0       ??$_Debug_pointer@V?$_String_iterator@V?$_String_val@U?$_Simple_types@D@std@@@std@@@std@@@std@@YAXAAV?$_String_iterator@V?$_String_val@U?$_Simple_types@D@std@@@std@@@0@PB_WI@Z 0041aab0 f i log4z.obj
 0001:00019ae0       ??$_Debug_pointer_if@$$A6AHH@Z@std@@YAX_NP6AHH@ZPB_WI@Z 0041aae0 f i log4z.obj
 0001:00019b60       ??$_Debug_pointer_if@$$CBD@std@@YAX_NPBDPB_WI@Z 0041ab60 f i log4z.obj
 0001:00019be0       ??$_Debug_range2@V?$_List_const_iterator@V?$_List_val@U?$_List_simple_types@U?$pair@_JV?$basic_string@DU?$char_traits@D@std@@V?$allocator@D@2@@std@@@std@@@std@@@std@@@std@@@std@@YAXV?$_List_const_iterator@V?$_List_val@U?$_List_simple_types@U?$pair@_JV?$basic_string@DU?$char_traits@D@std@@V?$allocator@D@2@@std@@@std@@@std@@@std@@@0@0PB_WIUinput_iterator_tag@0@@Z 0041abe0 f i log4z.obj
 0001:00019c90       ??$_Debug_range@V?$_List_const_iterator@V?$_List_val@U?$_List_simple_types@U?$pair@_JV?$basic_string@DU?$char_traits@D@std@@V?$allocator@D@2@@std@@@std@@@std@@@std@@@std@@@std@@YAXV?$_List_const_iterator@V?$_List_val@U?$_List_simple_types@U?$pair@_JV?$basic_string@DU?$char_traits@D@std@@V?$allocator@D@2@@std@@@std@@@std@@@std@@@0@0PB_WI@Z 0041ac90 f i log4z.obj
 0001:00019db0       ??$_Debug_range_ptr2@V?$_String_iterator@V?$_String_val@U?$_Simple_types@D@std@@@std@@@std@@V12@@std@@YAXV?$_String_iterator@V?$_String_val@U?$_Simple_types@D@std@@@std@@@0@0AAV10@PB_WIUrandom_access_iterator_tag@0@@Z 0041adb0 f i log4z.obj
 0001:00019ef0       ??$_Debug_range_ptr@V?$_String_iterator@V?$_String_val@U?$_Simple_types@D@std@@@std@@@std@@V12@@std@@YAXV?$_String_iterator@V?$_String_val@U?$_Simple_types@D@std@@@std@@@0@0AAV10@PB_WI@Z 0041aef0 f i log4z.obj
 0001:0001a020       ??$_Destroy_range1@V?$allocator@PAPAULogData@log4z@zsummer@@@std@@PAPAPAULogData@log4z@zsummer@@@std@@YAXPAPAPAULogData@log4z@zsummer@@0AAU?$_Wrap_alloc@V?$allocator@PAPAULogData@log4z@zsummer@@@std@@@0@U?$integral_constant@_N$00@0@@Z 0041b020 f i log4z.obj
 0001:0001a050       ??$_Destroy_range1@V?$allocator@PAULogData@log4z@zsummer@@@std@@PAPAULogData@log4z@zsummer@@@std@@YAXPAPAULogData@log4z@zsummer@@0AAU?$_Wrap_alloc@V?$allocator@PAULogData@log4z@zsummer@@@std@@@0@U?$integral_constant@_N$00@0@@Z 0041b050 f i log4z.obj
 0001:0001a080       ??$_Destroy_range@V?$allocator@PAPAULogData@log4z@zsummer@@@std@@PAPAPAULogData@log4z@zsummer@@@std@@YAXPAPAPAULogData@log4z@zsummer@@0AAU?$_Wrap_alloc@V?$allocator@PAPAULogData@log4z@zsummer@@@std@@@0@@Z 0041b080 f i log4z.obj
 0001:0001a0f0       ??$_Destroy_range@V?$allocator@PAULogData@log4z@zsummer@@@std@@PAPAULogData@log4z@zsummer@@@std@@YAXPAPAULogData@log4z@zsummer@@0AAU?$_Wrap_alloc@V?$allocator@PAULogData@log4z@zsummer@@@std@@@0@@Z 0041b0f0 f i log4z.obj
 0001:0001a160       ??$_Insert@ABU?$pair@_JV?$basic_string@DU?$char_traits@D@std@@V?$allocator@D@2@@std@@@std@@@?$list@U?$pair@_JV?$basic_string@DU?$char_traits@D@std@@V?$allocator@D@2@@std@@@std@@V?$allocator@U?$pair@_JV?$basic_string@DU?$char_traits@D@std@@V?$allocator@D@2@@std@@@std@@@2@@std@@QAEXV?$_List_unchecked_const_iterator@V?$_List_val@U?$_List_simple_types@U?$pair@_JV?$basic_string@DU?$char_traits@D@std@@V?$allocator@D@2@@std@@@std@@@std@@@std@@U_Iterator_base0@2@@1@ABU?$pair@_JV?$basic_string@DU?$char_traits@D@std@@V?$allocator@D@2@@std@@@1@@Z 0041b160 f i log4z.obj
 0001:0001a230       ??$_Insert@U?$pair@_JV?$basic_string@DU?$char_traits@D@std@@V?$allocator@D@2@@std@@@std@@@?$list@U?$pair@_JV?$basic_string@DU?$char_traits@D@std@@V?$allocator@D@2@@std@@@std@@V?$allocator@U?$pair@_JV?$basic_string@DU?$char_traits@D@std@@V?$allocator@D@2@@std@@@std@@@2@@std@@QAEXV?$_List_unchecked_const_iterator@V?$_List_val@U?$_List_simple_types@U?$pair@_JV?$basic_string@DU?$char_traits@D@std@@V?$allocator@D@2@@std@@@std@@@std@@@std@@U_Iterator_base0@2@@1@$$QAU?$pair@_JV?$basic_string@DU?$char_traits@D@std@@V?$allocator@D@2@@std@@@1@@Z 0041b230 f i log4z.obj
 0001:0001a300       ??$_Insert_at@AAU?$pair@$$CBV?$basic_string@DU?$char_traits@D@std@@V?$allocator@D@2@@std@@H@std@@PAU?$_Tree_node@U?$pair@$$CBV?$basic_string@DU?$char_traits@D@std@@V?$allocator@D@2@@std@@H@std@@PAX@2@@?$_Tree@V?$_Tmap_traits@V?$basic_string@DU?$char_traits@D@std@@V?$allocator@D@2@@std@@HU?$less@V?$basic_string@DU?$char_traits@D@std@@V?$allocator@D@2@@std@@@2@V?$allocator@U?$pair@$$CBV?$basic_string@DU?$char_traits@D@std@@V?$allocator@D@2@@std@@H@std@@@2@$0A@@std@@@std@@IAE?AV?$_Tree_iterator@V?$_Tree_val@U?$_Tree_simple_types@U?$pair@$$CBV?$basic_string@DU?$char_traits@D@std@@V?$allocator@D@2@@std@@H@std@@@std@@@std@@@1@_NPAU?$_Tree_node@U?$pair@$$CBV?$basic_string@DU?$char_traits@D@std@@V?$allocator@D@2@@std@@H@std@@PAX@1@AAU?$pair@$$CBV?$basic_string@DU?$char_traits@D@std@@V?$allocator@D@2@@std@@H@1@1@Z 0041b300 f i log4z.obj
 0001:0001a8c0       ??$_Insert_at@AAU?$pair@$$CBV?$basic_string@DU?$char_traits@D@std@@V?$allocator@D@2@@std@@ULoggerInfo@log4z@zsummer@@@std@@PAU?$_Tree_node@U?$pair@$$CBV?$basic_string@DU?$char_traits@D@std@@V?$allocator@D@2@@std@@ULoggerInfo@log4z@zsummer@@@std@@PAX@2@@?$_Tree@V?$_Tmap_traits@V?$basic_string@DU?$char_traits@D@std@@V?$allocator@D@2@@std@@ULoggerInfo@log4z@zsummer@@U?$less@V?$basic_string@DU?$char_traits@D@std@@V?$allocator@D@2@@std@@@2@V?$allocator@U?$pair@$$CBV?$basic_string@DU?$char_traits@D@std@@V?$allocator@D@2@@std@@ULoggerInfo@log4z@zsummer@@@std@@@2@$0A@@std@@@std@@IAE?AV?$_Tree_iterator@V?$_Tree_val@U?$_Tree_simple_types@U?$pair@$$CBV?$basic_string@DU?$char_traits@D@std@@V?$allocator@D@2@@std@@ULoggerInfo@log4z@zsummer@@@std@@@std@@@std@@@1@_NPAU?$_Tree_node@U?$pair@$$CBV?$basic_string@DU?$char_traits@D@std@@V?$allocator@D@2@@std@@ULoggerInfo@log4z@zsummer@@@std@@PAX@1@AAU?$pair@$$CBV?$basic_string@DU?$char_traits@D@std@@V?$allocator@D@2@@std@@ULoggerInfo@log4z@zsummer@@@1@1@Z 0041b8c0 f i log4z.obj
 0001:0001ae80       ??$_Insert_hint@AAU?$pair@$$CBV?$basic_string@DU?$char_traits@D@std@@V?$allocator@D@2@@std@@H@std@@PAU?$_Tree_node@U?$pair@$$CBV?$basic_string@DU?$char_traits@D@std@@V?$allocator@D@2@@std@@H@std@@PAX@2@@?$_Tree@V?$_Tmap_traits@V?$basic_string@DU?$char_traits@D@std@@V?$allocator@D@2@@std@@HU?$less@V?$basic_string@DU?$char_traits@D@std@@V?$allocator@D@2@@std@@@2@V?$allocator@U?$pair@$$CBV?$basic_string@DU?$char_traits@D@std@@V?$allocator@D@2@@std@@H@std@@@2@$0A@@std@@@std@@IAE?AV?$_Tree_iterator@V?$_Tree_val@U?$_Tree_simple_types@U?$pair@$$CBV?$basic_string@DU?$char_traits@D@std@@V?$allocator@D@2@@std@@H@std@@@std@@@std@@@1@V?$_Tree_const_iterator@V?$_Tree_val@U?$_Tree_simple_types@U?$pair@$$CBV?$basic_string@DU?$char_traits@D@std@@V?$allocator@D@2@@std@@H@std@@@std@@@std@@@1@AAU?$pair@$$CBV?$basic_string@DU?$char_traits@D@std@@V?$allocator@D@2@@std@@H@1@PAU?$_Tree_node@U?$pair@$$CBV?$basic_string@DU?$char_traits@D@std@@V?$allocator@D@2@@std@@H@std@@PAX@1@@Z 0041be80 f i log4z.obj
 0001:0001c3d0       ??$_Insert_nohint@AAU?$pair@$$CBV?$basic_string@DU?$char_traits@D@std@@V?$allocator@D@2@@std@@H@std@@PAU?$_Tree_node@U?$pair@$$CBV?$basic_string@DU?$char_traits@D@std@@V?$allocator@D@2@@std@@H@std@@PAX@2@@?$_Tree@V?$_Tmap_traits@V?$basic_string@DU?$char_traits@D@std@@V?$allocator@D@2@@std@@HU?$less@V?$basic_string@DU?$char_traits@D@std@@V?$allocator@D@2@@std@@@2@V?$allocator@U?$pair@$$CBV?$basic_string@DU?$char_traits@D@std@@V?$allocator@D@2@@std@@H@std@@@2@$0A@@std@@@std@@IAE?AU?$pair@V?$_Tree_iterator@V?$_Tree_val@U?$_Tree_simple_types@U?$pair@$$CBV?$basic_string@DU?$char_traits@D@std@@V?$allocator@D@2@@std@@H@std@@@std@@@std@@@std@@_N@1@_NAAU?$pair@$$CBV?$basic_string@DU?$char_traits@D@std@@V?$allocator@D@2@@std@@H@1@PAU?$_Tree_node@U?$pair@$$CBV?$basic_string@DU?$char_traits@D@std@@V?$allocator@D@2@@std@@H@std@@PAX@1@@Z 0041d3d0 f i log4z.obj
 0001:0001caa0       ??$_Insert_nohint@AAU?$pair@$$CBV?$basic_string@DU?$char_traits@D@std@@V?$allocator@D@2@@std@@ULoggerInfo@log4z@zsummer@@@std@@PAU?$_Tree_node@U?$pair@$$CBV?$basic_string@DU?$char_traits@D@std@@V?$allocator@D@2@@std@@ULoggerInfo@log4z@zsummer@@@std@@PAX@2@@?$_Tree@V?$_Tmap_traits@V?$basic_string@DU?$char_traits@D@std@@V?$allocator@D@2@@std@@ULoggerInfo@log4z@zsummer@@U?$less@V?$basic_string@DU?$char_traits@D@std@@V?$allocator@D@2@@std@@@2@V?$allocator@U?$pair@$$CBV?$basic_string@DU?$char_traits@D@std@@V?$allocator@D@2@@std@@ULoggerInfo@log4z@zsummer@@@std@@@2@$0A@@std@@@std@@IAE?AU?$pair@V?$_Tree_iterator@V?$_Tree_val@U?$_Tree_simple_types@U?$pair@$$CBV?$basic_string@DU?$char_traits@D@std@@V?$allocator@D@2@@std@@ULoggerInfo@log4z@zsummer@@@std@@@std@@@std@@@std@@_N@1@_NAAU?$pair@$$CBV?$basic_string@DU?$char_traits@D@std@@V?$allocator@D@2@@std@@ULoggerInfo@log4z@zsummer@@@1@PAU?$_Tree_node@U?$pair@$$CBV?$basic_string@DU?$char_traits@D@std@@V?$allocator@D@2@@std@@ULoggerInfo@log4z@zsummer@@@std@@PAX@1@@Z 0041daa0 f i log4z.obj
 0001:0001d170       ??$_Insert_range@V?$_List_const_iterator@V?$_List_val@U?$_List_simple_types@U?$pair@_JV?$basic_string@DU?$char_traits@D@std@@V?$allocator@D@2@@std@@@std@@@std@@@std@@@std@@@?$list@U?$pair@_JV?$basic_string@DU?$char_traits@D@std@@V?$allocator@D@2@@std@@@std@@V?$allocator@U?$pair@_JV?$basic_string@DU?$char_traits@D@std@@V?$allocator@D@2@@std@@@std@@@2@@std@@QAEXV?$_List_unchecked_const_iterator@V?$_List_val@U?$_List_simple_types@U?$pair@_JV?$basic_string@DU?$char_traits@D@std@@V?$allocator@D@2@@std@@@std@@@std@@@std@@U_Iterator_base0@2@@1@V?$_List_const_iterator@V?$_List_val@U?$_List_simple_types@U?$pair@_JV?$basic_string@DU?$char_traits@D@std@@V?$allocator@D@2@@std@@@std@@@std@@@std@@@1@1Uforward_iterator_tag@1@@Z 0041e170 f i log4z.obj
 0001:0001d3d0       ??$_Is_checked@V?$_String_iterator@V?$_String_val@U?$_Simple_types@D@std@@@std@@@std@@@std@@YA?AU?$integral_constant@_N$00@0@V?$_String_iterator@V?$_String_val@U?$_Simple_types@D@std@@@std@@@0@@Z 0041e3d0 f i log4z.obj
 0001:0001d440       ??$_Kfn@$$CBV?$basic_string@DU?$char_traits@D@std@@V?$allocator@D@2@@std@@H@?$_Tmap_traits@V?$basic_string@DU?$char_traits@D@std@@V?$allocator@D@2@@std@@HU?$less@V?$basic_string@DU?$char_traits@D@std@@V?$allocator@D@2@@std@@@2@V?$allocator@U?$pair@$$CBV?$basic_string@DU?$char_traits@D@std@@V?$allocator@D@2@@std@@H@std@@@2@$0A@@std@@SAABV?$basic_string@DU?$char_traits@D@std@@V?$allocator@D@2@@1@ABU?$pair@$$CBV?$basic_string@DU?$char_traits@D@std@@V?$allocator@D@2@@std@@H@1@@Z 0041e440 f i log4z.obj
 0001:0001d480       ??$_Kfn@$$CBV?$basic_string@DU?$char_traits@D@std@@V?$allocator@D@2@@std@@ULoggerInfo@log4z@zsummer@@@?$_Tmap_traits@V?$basic_string@DU?$char_traits@D@std@@V?$allocator@D@2@@std@@ULoggerInfo@log4z@zsummer@@U?$less@V?$basic_string@DU?$char_traits@D@std@@V?$allocator@D@2@@std@@@2@V?$allocator@U?$pair@$$CBV?$basic_string@DU?$char_traits@D@std@@V?$allocator@D@2@@std@@ULoggerInfo@log4z@zsummer@@@std@@@2@$0A@@std@@SAABV?$basic_string@DU?$char_traits@D@std@@V?$allocator@D@2@@1@ABU?$pair@$$CBV?$basic_string@DU?$char_traits@D@std@@V?$allocator@D@2@@std@@ULoggerInfo@log4z@zsummer@@@1@@Z 0041e480 f i log4z.obj
 0001:0001d4c0       ??$_Lbound@V?$basic_string@DU?$char_traits@D@std@@V?$allocator@D@2@@std@@@?$_Tree@V?$_Tmap_traits@V?$basic_string@DU?$char_traits@D@std@@V?$allocator@D@2@@std@@HU?$less@V?$basic_string@DU?$char_traits@D@std@@V?$allocator@D@2@@std@@@2@V?$allocator@U?$pair@$$CBV?$basic_string@DU?$char_traits@D@std@@V?$allocator@D@2@@std@@H@std@@@2@$0A@@std@@@std@@IBEPAU?$_Tree_node@U?$pair@$$CBV?$basic_string@DU?$char_traits@D@std@@V?$allocator@D@2@@std@@H@std@@PAX@1@ABV?$basic_string@DU?$char_traits@D@std@@V?$allocator@D@2@@1@@Z 0041e4c0 f i log4z.obj
 0001:0001d5b0       ??$_Lbound@V?$basic_string@DU?$char_traits@D@std@@V?$allocator@D@2@@std@@@?$_Tree@V?$_Tmap_traits@V?$basic_string@DU?$char_traits@D@std@@V?$allocator@D@2@@std@@ULoggerInfo@log4z@zsummer@@U?$less@V?$basic_string@DU?$char_traits@D@std@@V?$allocator@D@2@@std@@@2@V?$allocator@U?$pair@$$CBV?$basic_string@DU?$char_traits@D@std@@V?$allocator@D@2@@std@@ULoggerInfo@log4z@zsummer@@@std@@@2@$0A@@std@@@std@@IBEPAU?$_Tree_node@U?$pair@$$CBV?$basic_string@DU?$char_traits@D@std@@V?$allocator@D@2@@std@@ULoggerInfo@log4z@zsummer@@@std@@PAX@1@ABV?$basic_string@DU?$char_traits@D@std@@V?$allocator@D@2@@1@@Z 0041e5b0 f i log4z.obj
 0001:0001d6a0       ??$_Pocca@U?$_Wrap_alloc@V?$allocator@D@std@@@std@@@std@@YAXAAU?$_Wrap_alloc@V?$allocator@D@std@@@0@ABU10@@Z 0041e6a0 f i log4z.obj
 0001:0001d730       ??$_Pocca@U?$_Wrap_alloc@V?$allocator@D@std@@@std@@@std@@YAXAAU?$_Wrap_alloc@V?$allocator@D@std@@@0@ABU10@U?$integral_constant@_N$0A@@0@@Z 0041e730 f i log4z.obj
 0001:0001d760       ??$_Pocma@U?$_Wrap_alloc@V?$allocator@D@std@@@std@@@std@@YAXAAU?$_Wrap_alloc@V?$allocator@D@std@@@0@0@Z 0041e760 f i log4z.obj
 0001:0001d7f0       ??$_Pocma@U?$_Wrap_alloc@V?$allocator@D@std@@@std@@@std@@YAXAAU?$_Wrap_alloc@V?$allocator@D@std@@@0@0U?$integral_constant@_N$00@0@@Z 0041e7f0 f i log4z.obj
 0001:0001d880       ??$_Pocs@U?$_Wrap_alloc@V?$allocator@PAULogData@log4z@zsummer@@@std@@@std@@@std@@YAXAAU?$_Wrap_alloc@V?$allocator@PAULogData@log4z@zsummer@@@std@@@0@0@Z 0041e880 f i log4z.obj
 0001:0001d910       ??$_Pocs@U?$_Wrap_alloc@V?$allocator@PAULogData@log4z@zsummer@@@std@@@std@@@std@@YAXAAU?$_Wrap_alloc@V?$allocator@PAULogData@log4z@zsummer@@@std@@@0@0U?$integral_constant@_N$0A@@0@@Z 0041e910 f i log4z.obj
 0001:0001d9d0       ??$_Ptr_copy_cat@PAPAULogData@log4z@zsummer@@PAPAU123@@std@@YA?AU_Really_trivial_ptr_iterator_tag@0@ABQAPAPAULogData@log4z@zsummer@@0@Z 0041e9d0 f i log4z.obj
 0001:0001da10       ??$_Ptr_move_cat@PAULogData@log4z@zsummer@@PAU123@@std@@YA?AU_Really_trivial_ptr_iterator_tag@0@ABQAPAULogData@log4z@zsummer@@0@Z 0041ea10 f i log4z.obj
 0001:0001da50       ??$_Rechecked@PAPAPAULogData@log4z@zsummer@@PAPAPAU123@@std@@YAAAPAPAPAULogData@log4z@zsummer@@AAPAPAPAU123@PAPAPAU123@@Z 0041ea50 f i log4z.obj
 0001:0001da90       ??$_Rechecked@PAPAULogData@log4z@zsummer@@PAPAU123@@std@@YAAAPAPAULogData@log4z@zsummer@@AAPAPAU123@PAPAU123@@Z 0041ea90 f i log4z.obj
 0001:0001dad0       ??$_Rechecked@V?$_String_val@U?$_Simple_types@D@std@@@std@@@std@@YA?AV?$_String_iterator@V?$_String_val@U?$_Simple_types@D@std@@@std@@@0@AAV10@PAD@Z 0041ead0 f i log4z.obj
 0001:0001db50       ??$_Swap_adl@PAPAPAULogData@log4z@zsummer@@@std@@YAXAAPAPAPAULogData@log4z@zsummer@@0@Z 0041eb50 f i log4z.obj
 0001:0001dbb0       ??$_Swap_adl@PAU?$_List_node@U?$pair@_JV?$basic_string@DU?$char_traits@D@std@@V?$allocator@D@2@@std@@@std@@PAX@std@@@std@@YAXAAPAU?$_List_node@U?$pair@_JV?$basic_string@DU?$char_traits@D@std@@V?$allocator@D@2@@std@@@std@@PAX@0@0@Z 0041ebb0 f i log4z.obj
 0001:0001dc10       ??$_Transform_no_deprecate1@PADV?$_String_iterator@V?$_String_val@U?$_Simple_types@D@std@@@std@@@std@@P6AHH@Z@std@@YA?AV?$_String_iterator@V?$_String_val@U?$_Simple_types@D@std@@@std@@@0@PAD0V10@AAP6AHH@ZUrandom_access_iterator_tag@0@3@Z 0041ec10 f i log4z.obj
 0001:0001dd70       ??$_Transform_no_deprecate@V?$_String_iterator@V?$_String_val@U?$_Simple_types@D@std@@@std@@@std@@V12@P6AHH@Z@std@@YA?AV?$_String_iterator@V?$_String_val@U?$_Simple_types@D@std@@@std@@@0@V10@00AAP6AHH@Z@Z 0041ed70 f i log4z.obj
 0001:0001dfe0       ??$_Transform_unchecked@PADPADP6AHH@Z@std@@YAPADPAD00AAP6AHH@Z@Z 0041efe0 f i log4z.obj
 0001:0001e070       ??$_Try_emplace@ABV?$basic_string@DU?$char_traits@D@std@@V?$allocator@D@2@@std@@$$V@?$map@V?$basic_string@DU?$char_traits@D@std@@V?$allocator@D@2@@std@@HU?$less@V?$basic_string@DU?$char_traits@D@std@@V?$allocator@D@2@@std@@@2@V?$allocator@U?$pair@$$CBV?$basic_string@DU?$char_traits@D@std@@V?$allocator@D@2@@std@@H@std@@@2@@std@@QAE?AU?$pair@V?$_Tree_iterator@V?$_Tree_val@U?$_Tree_simple_types@U?$pair@$$CBV?$basic_string@DU?$char_traits@D@std@@V?$allocator@D@2@@std@@H@std@@@std@@@std@@@std@@_N@1@ABV?$basic_string@DU?$char_traits@D@std@@V?$allocator@D@2@@1@@Z 0041f070 f i log4z.obj
 0001:0001e3c0       ??$_Try_emplace@V?$basic_string@DU?$char_traits@D@std@@V?$allocator@D@2@@std@@$$V@?$map@V?$basic_string@DU?$char_traits@D@std@@V?$allocator@D@2@@std@@HU?$less@V?$basic_string@DU?$char_traits@D@std@@V?$allocator@D@2@@std@@@2@V?$allocator@U?$pair@$$CBV?$basic_string@DU?$char_traits@D@std@@V?$allocator@D@2@@std@@H@std@@@2@@std@@QAE?AU?$pair@V?$_Tree_iterator@V?$_Tree_val@U?$_Tree_simple_types@U?$pair@$$CBV?$basic_string@DU?$char_traits@D@std@@V?$allocator@D@2@@std@@H@std@@@std@@@std@@@std@@_N@1@$$QAV?$basic_string@DU?$char_traits@D@std@@V?$allocator@D@2@@1@@Z 0041f3c0 f i log4z.obj
 0001:0001e710       ??$_Umove@PAPAULogData@log4z@zsummer@@@?$vector@PAULogData@log4z@zsummer@@V?$allocator@PAULogData@log4z@zsummer@@@std@@@std@@IAEPAPAULogData@log4z@zsummer@@PAPAU234@00@Z 0041f710 f i log4z.obj
 0001:0001e780       ??$_Unchecked@PAPAPAULogData@log4z@zsummer@@@std@@YAPAPAPAULogData@log4z@zsummer@@PAPAPAU123@@Z 0041f780 f i log4z.obj
 0001:0001e7c0       ??$_Unchecked@PAPAULogData@log4z@zsummer@@@std@@YAPAPAULogData@log4z@zsummer@@PAPAU123@@Z 0041f7c0 f i log4z.obj
 0001:0001e800       ??$_Unchecked@V?$_String_val@U?$_Simple_types@D@std@@@std@@@std@@YAPADV?$_String_iterator@V?$_String_val@U?$_Simple_types@D@std@@@std@@@0@@Z 0041f800 f i log4z.obj
 0001:0001e8b0       ??$_Unfancy@$$CBD@std@@YAPBDPBD@Z 0041f8b0 f i log4z.obj
 0001:0001e8f0       ??$_Unfancy@PAULogData@log4z@zsummer@@@std@@YAPAPAULogData@log4z@zsummer@@PAPAU123@@Z 0041f8f0 f i log4z.obj
 0001:0001e930       ??$_Unfancy@U_Container_proxy@std@@@std@@YAPAU_Container_proxy@0@PAU10@@Z 0041f930 f i log4z.obj
 0001:0001e970       ??$_Uninitialized_copy@PAPAPAULogData@log4z@zsummer@@PAPAPAU123@V?$allocator@PAPAULogData@log4z@zsummer@@@std@@@std@@YAPAPAPAULogData@log4z@zsummer@@PAPAPAU123@00AAU?$_Wrap_alloc@V?$allocator@PAPAULogData@log4z@zsummer@@@std@@@0@@Z 0041f970 f i log4z.obj
 0001:0001ea10       ??$_Uninitialized_copy_al_unchecked1@PAPAULogData@log4z@zsummer@@PAPAU123@V?$allocator@PAPAULogData@log4z@zsummer@@@std@@@std@@YAPAPAPAULogData@log4z@zsummer@@PAPAPAU123@00AAU?$_Wrap_alloc@V?$allocator@PAPAULogData@log4z@zsummer@@@std@@@0@U_Really_trivial_ptr_iterator_tag@0@U?$integral_constant@_N$00@0@@Z 0041fa10 f i log4z.obj
 0001:0001ea70       ??$_Uninitialized_copy_al_unchecked@PAPAPAULogData@log4z@zsummer@@PAPAPAU123@V?$allocator@PAPAULogData@log4z@zsummer@@@std@@@std@@YAPAPAPAULogData@log4z@zsummer@@PAPAPAU123@00AAU?$_Wrap_alloc@V?$allocator@PAPAULogData@log4z@zsummer@@@std@@@0@@Z 0041fa70 f i log4z.obj
 0001:0001eb00       ??$_Uninitialized_default_fill_n1@PAPAPAULogData@log4z@zsummer@@IV?$allocator@PAPAULogData@log4z@zsummer@@@std@@@std@@YAXPAPAPAULogData@log4z@zsummer@@IAAU?$_Wrap_alloc@V?$allocator@PAPAULogData@log4z@zsummer@@@std@@@0@U?$integral_constant@_N$00@0@@Z 0041fb00 f i log4z.obj
 0001:0001eb60       ??$_Uninitialized_default_fill_n@PAPAPAULogData@log4z@zsummer@@IV?$allocator@PAPAULogData@log4z@zsummer@@@std@@@std@@YAXPAPAPAULogData@log4z@zsummer@@IAAU?$_Wrap_alloc@V?$allocator@PAPAULogData@log4z@zsummer@@@std@@@0@@Z 0041fb60 f i log4z.obj
 0001:0001ebd0       ??$_Uninitialized_move@PAPAULogData@log4z@zsummer@@PAPAU123@V?$allocator@PAULogData@log4z@zsummer@@@std@@@std@@YAPAPAULogData@log4z@zsummer@@PAPAU123@00AAU?$_Wrap_alloc@V?$allocator@PAULogData@log4z@zsummer@@@std@@@0@@Z 0041fbd0 f i log4z.obj
 0001:0001ec70       ??$_Uninitialized_move_al_unchecked1@PAULogData@log4z@zsummer@@PAU123@V?$allocator@PAULogData@log4z@zsummer@@@std@@@std@@YAPAPAULogData@log4z@zsummer@@PAPAU123@00AAU?$_Wrap_alloc@V?$allocator@PAULogData@log4z@zsummer@@@std@@@0@U_Really_trivial_ptr_iterator_tag@0@U?$integral_constant@_N$00@0@@Z 0041fc70 f i log4z.obj
 0001:0001ecd0       ??$_Uninitialized_move_al_unchecked@PAPAULogData@log4z@zsummer@@PAPAU123@V?$allocator@PAULogData@log4z@zsummer@@@std@@@std@@YAPAPAULogData@log4z@zsummer@@PAPAU123@00AAU?$_Wrap_alloc@V?$allocator@PAULogData@log4z@zsummer@@@std@@@0@@Z 0041fcd0 f i log4z.obj
 0001:0001ed60       ??$addressof@D@std@@YAPADAAD@Z 0041fd60 f i log4z.obj
 0001:0001eda0       ??$addressof@PAPAULogData@log4z@zsummer@@@std@@YAPAPAPAULogData@log4z@zsummer@@AAPAPAU123@@Z 0041fda0 f i log4z.obj
 0001:0001ede0       ??$addressof@PAU?$_List_node@U?$pair@_JV?$basic_string@DU?$char_traits@D@std@@V?$allocator@D@2@@std@@@std@@PAX@std@@@std@@YAPAPAU?$_List_node@U?$pair@_JV?$basic_string@DU?$char_traits@D@std@@V?$allocator@D@2@@std@@@std@@PAX@0@AAPAU10@@Z 0041fde0 f i log4z.obj
 0001:0001ee20       ??$addressof@PAU?$_Tree_node@U?$pair@$$CBV?$basic_string@DU?$char_traits@D@std@@V?$allocator@D@2@@std@@H@std@@PAX@std@@@std@@YAPAPAU?$_Tree_node@U?$pair@$$CBV?$basic_string@DU?$char_traits@D@std@@V?$allocator@D@2@@std@@H@std@@PAX@0@AAPAU10@@Z 0041fe20 f i log4z.obj
 0001:0001ee60       ??$addressof@PAU?$_Tree_node@U?$pair@$$CBV?$basic_string@DU?$char_traits@D@std@@V?$allocator@D@2@@std@@ULoggerInfo@log4z@zsummer@@@std@@PAX@std@@@std@@YAPAPAU?$_Tree_node@U?$pair@$$CBV?$basic_string@DU?$char_traits@D@std@@V?$allocator@D@2@@std@@ULoggerInfo@log4z@zsummer@@@std@@PAX@0@AAPAU10@@Z 0041fe60 f i log4z.obj
 0001:0001eea0       ??$addressof@QAULogData@log4z@zsummer@@@std@@YAPBQAULogData@log4z@zsummer@@ABQAU123@@Z 0041fea0 f i log4z.obj
 0001:0001eee0       ??$addressof@U?$pair@$$CBV?$basic_string@DU?$char_traits@D@std@@V?$allocator@D@2@@std@@H@std@@@std@@YAPAU?$pair@$$CBV?$basic_string@DU?$char_traits@D@std@@V?$allocator@D@2@@std@@H@0@AAU10@@Z 0041fee0 f i log4z.obj
 0001:0001ef20       ??$addressof@U?$pair@$$CBV?$basic_string@DU?$char_traits@D@std@@V?$allocator@D@2@@std@@ULoggerInfo@log4z@zsummer@@@std@@@std@@YAPAU?$pair@$$CBV?$basic_string@DU?$char_traits@D@std@@V?$allocator@D@2@@std@@ULoggerInfo@log4z@zsummer@@@0@AAU10@@Z 0041ff20 f i log4z.obj
 0001:0001ef60       ??$addressof@U?$pair@_JV?$basic_string@DU?$char_traits@D@std@@V?$allocator@D@2@@std@@@std@@@std@@YAPAU?$pair@_JV?$basic_string@DU?$char_traits@D@std@@V?$allocator@D@2@@std@@@0@AAU10@@Z 0041ff60 f i log4z.obj
 0001:0001efa0       ??$assign@V?$_String_iterator@V?$_String_val@U?$_Simple_types@D@std@@@std@@@std@@@?$basic_string@DU?$char_traits@D@std@@V?$allocator@D@2@@std@@QAEAAV01@V?$_String_iterator@V?$_String_val@U?$_Simple_types@D@std@@@std@@@1@0@Z 0041ffa0 f i log4z.obj
 0001:0001f1c0       ??$construct@PADAAPAD@?$_Wrap_alloc@V?$allocator@D@std@@@std@@QAEXPAPADAAPAD@Z 004201c0 f i log4z.obj
 0001:0001f230       ??$construct@PADAAPAD@?$allocator@D@std@@QAEXPAPADAAPAD@Z 00420230 f i log4z.obj
 0001:0001f2e0       ??$construct@PADAAPAD@?$allocator_traits@V?$allocator@D@std@@@std@@SAXAAV?$allocator@D@1@PAPADAAPAD@Z 004202e0 f i log4z.obj
 0001:0001f340       ??$construct@PAU?$_List_node@U?$pair@_JV?$basic_string@DU?$char_traits@D@std@@V?$allocator@D@2@@std@@@std@@PAX@std@@AAPAU12@@?$_Wrap_alloc@V?$allocator@U?$_List_node@U?$pair@_JV?$basic_string@DU?$char_traits@D@std@@V?$allocator@D@2@@std@@@std@@PAX@std@@@std@@@std@@QAEXPAPAU?$_List_node@U?$pair@_JV?$basic_string@DU?$char_traits@D@std@@V?$allocator@D@2@@std@@@std@@PAX@1@AAPAU21@@Z 00420340 f i log4z.obj
 0001:0001f3b0       ??$construct@PAU?$_List_node@U?$pair@_JV?$basic_string@DU?$char_traits@D@std@@V?$allocator@D@2@@std@@@std@@PAX@std@@AAPAU12@@?$allocator@U?$_List_node@U?$pair@_JV?$basic_string@DU?$char_traits@D@std@@V?$allocator@D@2@@std@@@std@@PAX@std@@@std@@QAEXPAPAU?$_List_node@U?$pair@_JV?$basic_string@DU?$char_traits@D@std@@V?$allocator@D@2@@std@@@std@@PAX@1@AAPAU21@@Z 004203b0 f i log4z.obj
 0001:0001f460       ??$construct@PAU?$_List_node@U?$pair@_JV?$basic_string@DU?$char_traits@D@std@@V?$allocator@D@2@@std@@@std@@PAX@std@@AAPAU12@@?$allocator_traits@V?$allocator@U?$_List_node@U?$pair@_JV?$basic_string@DU?$char_traits@D@std@@V?$allocator@D@2@@std@@@std@@PAX@std@@@std@@@std@@SAXAAV?$allocator@U?$_List_node@U?$pair@_JV?$basic_string@DU?$char_traits@D@std@@V?$allocator@D@2@@std@@@std@@PAX@std@@@1@PAPAU?$_List_node@U?$pair@_JV?$basic_string@DU?$char_traits@D@std@@V?$allocator@D@2@@std@@@std@@PAX@1@AAPAU31@@Z 00420460 f i log4z.obj
 0001:0001f4c0       ??$construct@PAU?$_Tree_node@U?$pair@$$CBV?$basic_string@DU?$char_traits@D@std@@V?$allocator@D@2@@std@@H@std@@PAX@std@@AAPAU12@@?$_Wrap_alloc@V?$allocator@U?$_Tree_node@U?$pair@$$CBV?$basic_string@DU?$char_traits@D@std@@V?$allocator@D@2@@std@@H@std@@PAX@std@@@std@@@std@@QAEXPAPAU?$_Tree_node@U?$pair@$$CBV?$basic_string@DU?$char_traits@D@std@@V?$allocator@D@2@@std@@H@std@@PAX@1@AAPAU21@@Z 004204c0 f i log4z.obj
 0001:0001f530       ??$construct@PAU?$_Tree_node@U?$pair@$$CBV?$basic_string@DU?$char_traits@D@std@@V?$allocator@D@2@@std@@H@std@@PAX@std@@AAPAU12@@?$allocator@U?$_Tree_node@U?$pair@$$CBV?$basic_string@DU?$char_traits@D@std@@V?$allocator@D@2@@std@@H@std@@PAX@std@@@std@@QAEXPAPAU?$_Tree_node@U?$pair@$$CBV?$basic_string@DU?$char_traits@D@std@@V?$allocator@D@2@@std@@H@std@@PAX@1@AAPAU21@@Z 00420530 f i log4z.obj
 0001:0001f5e0       ??$construct@PAU?$_Tree_node@U?$pair@$$CBV?$basic_string@DU?$char_traits@D@std@@V?$allocator@D@2@@std@@H@std@@PAX@std@@AAPAU12@@?$allocator_traits@V?$allocator@U?$_Tree_node@U?$pair@$$CBV?$basic_string@DU?$char_traits@D@std@@V?$allocator@D@2@@std@@H@std@@PAX@std@@@std@@@std@@SAXAAV?$allocator@U?$_Tree_node@U?$pair@$$CBV?$basic_string@DU?$char_traits@D@std@@V?$allocator@D@2@@std@@H@std@@PAX@std@@@1@PAPAU?$_Tree_node@U?$pair@$$CBV?$basic_string@DU?$char_traits@D@std@@V?$allocator@D@2@@std@@H@std@@PAX@1@AAPAU31@@Z 004205e0 f i log4z.obj
 0001:0001f640       ??$construct@PAU?$_Tree_node@U?$pair@$$CBV?$basic_string@DU?$char_traits@D@std@@V?$allocator@D@2@@std@@ULoggerInfo@log4z@zsummer@@@std@@PAX@std@@AAPAU12@@?$_Wrap_alloc@V?$allocator@U?$_Tree_node@U?$pair@$$CBV?$basic_string@DU?$char_traits@D@std@@V?$allocator@D@2@@std@@ULoggerInfo@log4z@zsummer@@@std@@PAX@std@@@std@@@std@@QAEXPAPAU?$_Tree_node@U?$pair@$$CBV?$basic_string@DU?$char_traits@D@std@@V?$allocator@D@2@@std@@ULoggerInfo@log4z@zsummer@@@std@@PAX@1@AAPAU21@@Z 00420640 f i log4z.obj
 0001:0001f6b0       ??$construct@PAU?$_Tree_node@U?$pair@$$CBV?$basic_string@DU?$char_traits@D@std@@V?$allocator@D@2@@std@@ULoggerInfo@log4z@zsummer@@@std@@PAX@std@@AAPAU12@@?$allocator@U?$_Tree_node@U?$pair@$$CBV?$basic_string@DU?$char_traits@D@std@@V?$allocator@D@2@@std@@ULoggerInfo@log4z@zsummer@@@std@@PAX@std@@@std@@QAEXPAPAU?$_Tree_node@U?$pair@$$CBV?$basic_string@DU?$char_traits@D@std@@V?$allocator@D@2@@std@@ULoggerInfo@log4z@zsummer@@@std@@PAX@1@AAPAU21@@Z 004206b0 f i log4z.obj
 0001:0001f760       ??$construct@PAU?$_Tree_node@U?$pair@$$CBV?$basic_string@DU?$char_traits@D@std@@V?$allocator@D@2@@std@@ULoggerInfo@log4z@zsummer@@@std@@PAX@std@@AAPAU12@@?$allocator_traits@V?$allocator@U?$_Tree_node@U?$pair@$$CBV?$basic_string@DU?$char_traits@D@std@@V?$allocator@D@2@@std@@ULoggerInfo@log4z@zsummer@@@std@@PAX@std@@@std@@@std@@SAXAAV?$allocator@U?$_Tree_node@U?$pair@$$CBV?$basic_string@DU?$char_traits@D@std@@V?$allocator@D@2@@std@@ULoggerInfo@log4z@zsummer@@@std@@PAX@std@@@1@PAPAU?$_Tree_node@U?$pair@$$CBV?$basic_string@DU?$char_traits@D@std@@V?$allocator@D@2@@std@@ULoggerInfo@log4z@zsummer@@@std@@PAX@1@AAPAU31@@Z 00420760 f i log4z.obj
 0001:0001f7c0       ??$construct@PAULogData@log4z@zsummer@@AAPAU123@@?$_Wrap_alloc@V?$allocator@PAULogData@log4z@zsummer@@@std@@@std@@QAEXPAPAULogData@log4z@zsummer@@AAPAU234@@Z 004207c0 f i log4z.obj
 0001:0001f830       ??$construct@PAULogData@log4z@zsummer@@AAPAU123@@?$allocator@PAULogData@log4z@zsummer@@@std@@QAEXPAPAULogData@log4z@zsummer@@AAPAU234@@Z 00420830 f i log4z.obj
 0001:0001f8e0       ??$construct@PAULogData@log4z@zsummer@@AAPAU123@@?$allocator_traits@V?$allocator@PAULogData@log4z@zsummer@@@std@@@std@@SAXAAV?$allocator@PAULogData@log4z@zsummer@@@1@PAPAULogData@log4z@zsummer@@AAPAU345@@Z 004208e0 f i log4z.obj
 0001:0001f940       ??$construct@PAULogData@log4z@zsummer@@ABQAU123@@?$_Wrap_alloc@V?$allocator@PAULogData@log4z@zsummer@@@std@@@std@@QAEXPAPAULogData@log4z@zsummer@@ABQAU234@@Z 00420940 f i log4z.obj
 0001:0001f9b0       ??$construct@PAULogData@log4z@zsummer@@ABQAU123@@?$allocator@PAULogData@log4z@zsummer@@@std@@QAEXPAPAULogData@log4z@zsummer@@ABQAU234@@Z 004209b0 f i log4z.obj
 0001:0001fa60       ??$construct@PAULogData@log4z@zsummer@@ABQAU123@@?$allocator_traits@V?$allocator@PAULogData@log4z@zsummer@@@std@@@std@@SAXAAV?$allocator@PAULogData@log4z@zsummer@@@1@PAPAULogData@log4z@zsummer@@ABQAU345@@Z 00420a60 f i log4z.obj
 0001:0001fac0       ??$construct@U?$pair@$$CBV?$basic_string@DU?$char_traits@D@std@@V?$allocator@D@2@@std@@H@std@@ABUpiecewise_construct_t@2@V?$tuple@$$QAV?$basic_string@DU?$char_traits@D@std@@V?$allocator@D@2@@std@@@2@V?$tuple@$$V@2@@?$_Wrap_alloc@V?$allocator@U?$_Tree_node@U?$pair@$$CBV?$basic_string@DU?$char_traits@D@std@@V?$allocator@D@2@@std@@H@std@@PAX@std@@@std@@@std@@QAEXPAU?$pair@$$CBV?$basic_string@DU?$char_traits@D@std@@V?$allocator@D@2@@std@@H@1@ABUpiecewise_construct_t@1@$$QAV?$tuple@$$QAV?$basic_string@DU?$char_traits@D@std@@V?$allocator@D@2@@std@@@1@$$QAV?$tuple@$$V@1@@Z 00420ac0 f i log4z.obj
 0001:0001fb50       ??$construct@U?$pair@$$CBV?$basic_string@DU?$char_traits@D@std@@V?$allocator@D@2@@std@@H@std@@ABUpiecewise_construct_t@2@V?$tuple@$$QAV?$basic_string@DU?$char_traits@D@std@@V?$allocator@D@2@@std@@@2@V?$tuple@$$V@2@@?$allocator@U?$_Tree_node@U?$pair@$$CBV?$basic_string@DU?$char_traits@D@std@@V?$allocator@D@2@@std@@H@std@@PAX@std@@@std@@QAEXPAU?$pair@$$CBV?$basic_string@DU?$char_traits@D@std@@V?$allocator@D@2@@std@@H@1@ABUpiecewise_construct_t@1@$$QAV?$tuple@$$QAV?$basic_string@DU?$char_traits@D@std@@V?$allocator@D@2@@std@@@1@$$QAV?$tuple@$$V@1@@Z 00420b50 f i log4z.obj
 0001:0001fc90       ??$construct@U?$pair@$$CBV?$basic_string@DU?$char_traits@D@std@@V?$allocator@D@2@@std@@H@std@@ABUpiecewise_construct_t@2@V?$tuple@$$QAV?$basic_string@DU?$char_traits@D@std@@V?$allocator@D@2@@std@@@2@V?$tuple@$$V@2@@?$allocator_traits@V?$allocator@U?$_Tree_node@U?$pair@$$CBV?$basic_string@DU?$char_traits@D@std@@V?$allocator@D@2@@std@@H@std@@PAX@std@@@std@@@std@@SAXAAV?$allocator@U?$_Tree_node@U?$pair@$$CBV?$basic_string@DU?$char_traits@D@std@@V?$allocator@D@2@@std@@H@std@@PAX@std@@@1@PAU?$pair@$$CBV?$basic_string@DU?$char_traits@D@std@@V?$allocator@D@2@@std@@H@1@ABUpiecewise_construct_t@1@$$QAV?$tuple@$$QAV?$basic_string@DU?$char_traits@D@std@@V?$allocator@D@2@@std@@@1@$$QAV?$tuple@$$V@1@@Z 00420c90 f i log4z.obj
 0001:0001fd10       ??$construct@U?$pair@$$CBV?$basic_string@DU?$char_traits@D@std@@V?$allocator@D@2@@std@@H@std@@ABUpiecewise_construct_t@2@V?$tuple@ABV?$basic_string@DU?$char_traits@D@std@@V?$allocator@D@2@@std@@@2@V?$tuple@$$V@2@@?$_Wrap_alloc@V?$allocator@U?$_Tree_node@U?$pair@$$CBV?$basic_string@DU?$char_traits@D@std@@V?$allocator@D@2@@std@@H@std@@PAX@std@@@std@@@std@@QAEXPAU?$pair@$$CBV?$basic_string@DU?$char_traits@D@std@@V?$allocator@D@2@@std@@H@1@ABUpiecewise_construct_t@1@$$QAV?$tuple@ABV?$basic_string@DU?$char_traits@D@std@@V?$allocator@D@2@@std@@@1@$$QAV?$tuple@$$V@1@@Z 00420d10 f i log4z.obj
 0001:0001fda0       ??$construct@U?$pair@$$CBV?$basic_string@DU?$char_traits@D@std@@V?$allocator@D@2@@std@@H@std@@ABUpiecewise_construct_t@2@V?$tuple@ABV?$basic_string@DU?$char_traits@D@std@@V?$allocator@D@2@@std@@@2@V?$tuple@$$V@2@@?$allocator@U?$_Tree_node@U?$pair@$$CBV?$basic_string@DU?$char_traits@D@std@@V?$allocator@D@2@@std@@H@std@@PAX@std@@@std@@QAEXPAU?$pair@$$CBV?$basic_string@DU?$char_traits@D@std@@V?$allocator@D@2@@std@@H@1@ABUpiecewise_construct_t@1@$$QAV?$tuple@ABV?$basic_string@DU?$char_traits@D@std@@V?$allocator@D@2@@std@@@1@$$QAV?$tuple@$$V@1@@Z 00420da0 f i log4z.obj
 0001:0001fee0       ??$construct@U?$pair@$$CBV?$basic_string@DU?$char_traits@D@std@@V?$allocator@D@2@@std@@H@std@@ABUpiecewise_construct_t@2@V?$tuple@ABV?$basic_string@DU?$char_traits@D@std@@V?$allocator@D@2@@std@@@2@V?$tuple@$$V@2@@?$allocator_traits@V?$allocator@U?$_Tree_node@U?$pair@$$CBV?$basic_string@DU?$char_traits@D@std@@V?$allocator@D@2@@std@@H@std@@PAX@std@@@std@@@std@@SAXAAV?$allocator@U?$_Tree_node@U?$pair@$$CBV?$basic_string@DU?$char_traits@D@std@@V?$allocator@D@2@@std@@H@std@@PAX@std@@@1@PAU?$pair@$$CBV?$basic_string@DU?$char_traits@D@std@@V?$allocator@D@2@@std@@H@1@ABUpiecewise_construct_t@1@$$QAV?$tuple@ABV?$basic_string@DU?$char_traits@D@std@@V?$allocator@D@2@@std@@@1@$$QAV?$tuple@$$V@1@@Z 00420ee0 f i log4z.obj
 0001:0001ff60       ??$construct@U?$pair@$$CBV?$basic_string@DU?$char_traits@D@std@@V?$allocator@D@2@@std@@ULoggerInfo@log4z@zsummer@@@std@@U?$pair@V?$basic_string@DU?$char_traits@D@std@@V?$allocator@D@2@@std@@ULoggerInfo@log4z@zsummer@@@2@@?$_Wrap_alloc@V?$allocator@U?$_Tree_node@U?$pair@$$CBV?$basic_string@DU?$char_traits@D@std@@V?$allocator@D@2@@std@@ULoggerInfo@log4z@zsummer@@@std@@PAX@std@@@std@@@std@@QAEXPAU?$pair@$$CBV?$basic_string@DU?$char_traits@D@std@@V?$allocator@D@2@@std@@ULoggerInfo@log4z@zsummer@@@1@$$QAU?$pair@V?$basic_string@DU?$char_traits@D@std@@V?$allocator@D@2@@std@@ULoggerInfo@log4z@zsummer@@@1@@Z 00420f60 f i log4z.obj
 0001:0001ffd0       ??$construct@U?$pair@$$CBV?$basic_string@DU?$char_traits@D@std@@V?$allocator@D@2@@std@@ULoggerInfo@log4z@zsummer@@@std@@U?$pair@V?$basic_string@DU?$char_traits@D@std@@V?$allocator@D@2@@std@@ULoggerInfo@log4z@zsummer@@@2@@?$allocator@U?$_Tree_node@U?$pair@$$CBV?$basic_string@DU?$char_traits@D@std@@V?$allocator@D@2@@std@@ULoggerInfo@log4z@zsummer@@@std@@PAX@std@@@std@@QAEXPAU?$pair@$$CBV?$basic_string@DU?$char_traits@D@std@@V?$allocator@D@2@@std@@ULoggerInfo@log4z@zsummer@@@1@$$QAU?$pair@V?$basic_string@DU?$char_traits@D@std@@V?$allocator@D@2@@std@@ULoggerInfo@log4z@zsummer@@@1@@Z 00420fd0 f i log4z.obj
 0001:000200d0       ??$construct@U?$pair@$$CBV?$basic_string@DU?$char_traits@D@std@@V?$allocator@D@2@@std@@ULoggerInfo@log4z@zsummer@@@std@@U?$pair@V?$basic_string@DU?$char_traits@D@std@@V?$allocator@D@2@@std@@ULoggerInfo@log4z@zsummer@@@2@@?$allocator_traits@V?$allocator@U?$_Tree_node@U?$pair@$$CBV?$basic_string@DU?$char_traits@D@std@@V?$allocator@D@2@@std@@ULoggerInfo@log4z@zsummer@@@std@@PAX@std@@@std@@@std@@SAXAAV?$allocator@U?$_Tree_node@U?$pair@$$CBV?$basic_string@DU?$char_traits@D@std@@V?$allocator@D@2@@std@@ULoggerInfo@log4z@zsummer@@@std@@PAX@std@@@1@PAU?$pair@$$CBV?$basic_string@DU?$char_traits@D@std@@V?$allocator@D@2@@std@@ULoggerInfo@log4z@zsummer@@@1@$$QAU?$pair@V?$basic_string@DU?$char_traits@D@std@@V?$allocator@D@2@@std@@ULoggerInfo@log4z@zsummer@@@1@@Z 004210d0 f i log4z.obj
 0001:00020130       ??$construct@U?$pair@_JV?$basic_string@DU?$char_traits@D@std@@V?$allocator@D@2@@std@@@std@@ABU12@@?$_Wrap_alloc@V?$allocator@U?$_List_node@U?$pair@_JV?$basic_string@DU?$char_traits@D@std@@V?$allocator@D@2@@std@@@std@@PAX@std@@@std@@@std@@QAEXPAU?$pair@_JV?$basic_string@DU?$char_traits@D@std@@V?$allocator@D@2@@std@@@1@ABU21@@Z 00421130 f i log4z.obj
 0001:000201a0       ??$construct@U?$pair@_JV?$basic_string@DU?$char_traits@D@std@@V?$allocator@D@2@@std@@@std@@ABU12@@?$allocator@U?$_List_node@U?$pair@_JV?$basic_string@DU?$char_traits@D@std@@V?$allocator@D@2@@std@@@std@@PAX@std@@@std@@QAEXPAU?$pair@_JV?$basic_string@DU?$char_traits@D@std@@V?$allocator@D@2@@std@@@1@ABU21@@Z 004211a0 f i log4z.obj
 0001:000202a0       ??$construct@U?$pair@_JV?$basic_string@DU?$char_traits@D@std@@V?$allocator@D@2@@std@@@std@@ABU12@@?$allocator_traits@V?$allocator@U?$_List_node@U?$pair@_JV?$basic_string@DU?$char_traits@D@std@@V?$allocator@D@2@@std@@@std@@PAX@std@@@std@@@std@@SAXAAV?$allocator@U?$_List_node@U?$pair@_JV?$basic_string@DU?$char_traits@D@std@@V?$allocator@D@2@@std@@@std@@PAX@std@@@1@PAU?$pair@_JV?$basic_string@DU?$char_traits@D@std@@V?$allocator@D@2@@std@@@1@ABU31@@Z 004212a0 f i log4z.obj
 0001:00020300       ??$construct@U?$pair@_JV?$basic_string@DU?$char_traits@D@std@@V?$allocator@D@2@@std@@@std@@U12@@?$_Wrap_alloc@V?$allocator@U?$_List_node@U?$pair@_JV?$basic_string@DU?$char_traits@D@std@@V?$allocator@D@2@@std@@@std@@PAX@std@@@std@@@std@@QAEXPAU?$pair@_JV?$basic_string@DU?$char_traits@D@std@@V?$allocator@D@2@@std@@@1@$$QAU21@@Z 00421300 f i log4z.obj
 0001:00020370       ??$construct@U?$pair@_JV?$basic_string@DU?$char_traits@D@std@@V?$allocator@D@2@@std@@@std@@U12@@?$allocator@U?$_List_node@U?$pair@_JV?$basic_string@DU?$char_traits@D@std@@V?$allocator@D@2@@std@@@std@@PAX@std@@@std@@QAEXPAU?$pair@_JV?$basic_string@DU?$char_traits@D@std@@V?$allocator@D@2@@std@@@1@$$QAU21@@Z 00421370 f i log4z.obj
 0001:00020410       ??$construct@U?$pair@_JV?$basic_string@DU?$char_traits@D@std@@V?$allocator@D@2@@std@@@std@@U12@@?$allocator_traits@V?$allocator@U?$_List_node@U?$pair@_JV?$basic_string@DU?$char_traits@D@std@@V?$allocator@D@2@@std@@@std@@PAX@std@@@std@@@std@@SAXAAV?$allocator@U?$_List_node@U?$pair@_JV?$basic_string@DU?$char_traits@D@std@@V?$allocator@D@2@@std@@@std@@PAX@std@@@1@PAU?$pair@_JV?$basic_string@DU?$char_traits@D@std@@V?$allocator@D@2@@std@@@1@$$QAU31@@Z 00421410 f i log4z.obj
 0001:00020470       ??$construct@U_Container_proxy@std@@U12@@?$_Wrap_alloc@V?$allocator@U_Container_proxy@std@@@std@@@std@@QAEXPAU_Container_proxy@1@$$QAU21@@Z 00421470 f i log4z.obj
 0001:000204e0       ??$construct@U_Container_proxy@std@@U12@@?$allocator@U_Container_proxy@std@@@std@@QAEXPAU_Container_proxy@1@$$QAU21@@Z 004214e0 f i log4z.obj
 0001:00020590       ??$construct@U_Container_proxy@std@@U12@@?$allocator_traits@V?$allocator@U_Container_proxy@std@@@std@@@std@@SAXAAV?$allocator@U_Container_proxy@std@@@1@PAU_Container_proxy@1@$$QAU31@@Z 00421590 f i log4z.obj
 0001:000205f0       ??$destroy@PAPAULogData@log4z@zsummer@@@?$_Wrap_alloc@V?$allocator@PAULogData@log4z@zsummer@@@std@@@std@@QAEXPAPAPAULogData@log4z@zsummer@@@Z 004215f0 f i log4z.obj
 0001:00020650       ??$destroy@PAPAULogData@log4z@zsummer@@@?$allocator@PAULogData@log4z@zsummer@@@std@@QAEXPAPAPAULogData@log4z@zsummer@@@Z 00421650 f i log4z.obj
 0001:00020690       ??$destroy@PAPAULogData@log4z@zsummer@@@?$allocator_traits@V?$allocator@PAULogData@log4z@zsummer@@@std@@@std@@SAXAAV?$allocator@PAULogData@log4z@zsummer@@@1@PAPAPAULogData@log4z@zsummer@@@Z 00421690 f i log4z.obj
 0001:000206e0       ??$destroy@PAU?$_List_node@U?$pair@_JV?$basic_string@DU?$char_traits@D@std@@V?$allocator@D@2@@std@@@std@@PAX@std@@@?$_Wrap_alloc@V?$allocator@U?$_List_node@U?$pair@_JV?$basic_string@DU?$char_traits@D@std@@V?$allocator@D@2@@std@@@std@@PAX@std@@@std@@@std@@QAEXPAPAU?$_List_node@U?$pair@_JV?$basic_string@DU?$char_traits@D@std@@V?$allocator@D@2@@std@@@std@@PAX@1@@Z 004216e0 f i log4z.obj
 0001:00020740       ??$destroy@PAU?$_List_node@U?$pair@_JV?$basic_string@DU?$char_traits@D@std@@V?$allocator@D@2@@std@@@std@@PAX@std@@@?$allocator@U?$_List_node@U?$pair@_JV?$basic_string@DU?$char_traits@D@std@@V?$allocator@D@2@@std@@@std@@PAX@std@@@std@@QAEXPAPAU?$_List_node@U?$pair@_JV?$basic_string@DU?$char_traits@D@std@@V?$allocator@D@2@@std@@@std@@PAX@1@@Z 00421740 f i log4z.obj
 0001:00020780       ??$destroy@PAU?$_List_node@U?$pair@_JV?$basic_string@DU?$char_traits@D@std@@V?$allocator@D@2@@std@@@std@@PAX@std@@@?$allocator_traits@V?$allocator@U?$_List_node@U?$pair@_JV?$basic_string@DU?$char_traits@D@std@@V?$allocator@D@2@@std@@@std@@PAX@std@@@std@@@std@@SAXAAV?$allocator@U?$_List_node@U?$pair@_JV?$basic_string@DU?$char_traits@D@std@@V?$allocator@D@2@@std@@@std@@PAX@std@@@1@PAPAU?$_List_node@U?$pair@_JV?$basic_string@DU?$char_traits@D@std@@V?$allocator@D@2@@std@@@std@@PAX@1@@Z 00421780 f i log4z.obj
 0001:000207d0       ??$destroy@PAU?$_Tree_node@U?$pair@$$CBV?$basic_string@DU?$char_traits@D@std@@V?$allocator@D@2@@std@@H@std@@PAX@std@@@?$_Wrap_alloc@V?$allocator@U?$_Tree_node@U?$pair@$$CBV?$basic_string@DU?$char_traits@D@std@@V?$allocator@D@2@@std@@H@std@@PAX@std@@@std@@@std@@QAEXPAPAU?$_Tree_node@U?$pair@$$CBV?$basic_string@DU?$char_traits@D@std@@V?$allocator@D@2@@std@@H@std@@PAX@1@@Z 004217d0 f i log4z.obj
 0001:00020830       ??$destroy@PAU?$_Tree_node@U?$pair@$$CBV?$basic_string@DU?$char_traits@D@std@@V?$allocator@D@2@@std@@H@std@@PAX@std@@@?$allocator@U?$_Tree_node@U?$pair@$$CBV?$basic_string@DU?$char_traits@D@std@@V?$allocator@D@2@@std@@H@std@@PAX@std@@@std@@QAEXPAPAU?$_Tree_node@U?$pair@$$CBV?$basic_string@DU?$char_traits@D@std@@V?$allocator@D@2@@std@@H@std@@PAX@1@@Z 00421830 f i log4z.obj
 0001:00020870       ??$destroy@PAU?$_Tree_node@U?$pair@$$CBV?$basic_string@DU?$char_traits@D@std@@V?$allocator@D@2@@std@@H@std@@PAX@std@@@?$allocator_traits@V?$allocator@U?$_Tree_node@U?$pair@$$CBV?$basic_string@DU?$char_traits@D@std@@V?$allocator@D@2@@std@@H@std@@PAX@std@@@std@@@std@@SAXAAV?$allocator@U?$_Tree_node@U?$pair@$$CBV?$basic_string@DU?$char_traits@D@std@@V?$allocator@D@2@@std@@H@std@@PAX@std@@@1@PAPAU?$_Tree_node@U?$pair@$$CBV?$basic_string@DU?$char_traits@D@std@@V?$allocator@D@2@@std@@H@std@@PAX@1@@Z 00421870 f i log4z.obj
 0001:000208c0       ??$destroy@PAU?$_Tree_node@U?$pair@$$CBV?$basic_string@DU?$char_traits@D@std@@V?$allocator@D@2@@std@@ULoggerInfo@log4z@zsummer@@@std@@PAX@std@@@?$_Wrap_alloc@V?$allocator@U?$_Tree_node@U?$pair@$$CBV?$basic_string@DU?$char_traits@D@std@@V?$allocator@D@2@@std@@ULoggerInfo@log4z@zsummer@@@std@@PAX@std@@@std@@@std@@QAEXPAPAU?$_Tree_node@U?$pair@$$CBV?$basic_string@DU?$char_traits@D@std@@V?$allocator@D@2@@std@@ULoggerInfo@log4z@zsummer@@@std@@PAX@1@@Z 004218c0 f i log4z.obj
 0001:00020920       ??$destroy@PAU?$_Tree_node@U?$pair@$$CBV?$basic_string@DU?$char_traits@D@std@@V?$allocator@D@2@@std@@ULoggerInfo@log4z@zsummer@@@std@@PAX@std@@@?$allocator@U?$_Tree_node@U?$pair@$$CBV?$basic_string@DU?$char_traits@D@std@@V?$allocator@D@2@@std@@ULoggerInfo@log4z@zsummer@@@std@@PAX@std@@@std@@QAEXPAPAU?$_Tree_node@U?$pair@$$CBV?$basic_string@DU?$char_traits@D@std@@V?$allocator@D@2@@std@@ULoggerInfo@log4z@zsummer@@@std@@PAX@1@@Z 00421920 f i log4z.obj
 0001:00020960       ??$destroy@PAU?$_Tree_node@U?$pair@$$CBV?$basic_string@DU?$char_traits@D@std@@V?$allocator@D@2@@std@@ULoggerInfo@log4z@zsummer@@@std@@PAX@std@@@?$allocator_traits@V?$allocator@U?$_Tree_node@U?$pair@$$CBV?$basic_string@DU?$char_traits@D@std@@V?$allocator@D@2@@std@@ULoggerInfo@log4z@zsummer@@@std@@PAX@std@@@std@@@std@@SAXAAV?$allocator@U?$_Tree_node@U?$pair@$$CBV?$basic_string@DU?$char_traits@D@std@@V?$allocator@D@2@@std@@ULoggerInfo@log4z@zsummer@@@std@@PAX@std@@@1@PAPAU?$_Tree_node@U?$pair@$$CBV?$basic_string@DU?$char_traits@D@std@@V?$allocator@D@2@@std@@ULoggerInfo@log4z@zsummer@@@std@@PAX@1@@Z 00421960 f i log4z.obj
 0001:000209b0       ??$destroy@PAULogData@log4z@zsummer@@@?$_Wrap_alloc@V?$allocator@PAULogData@log4z@zsummer@@@std@@@std@@QAEXPAPAULogData@log4z@zsummer@@@Z 004219b0 f i log4z.obj
 0001:00020a10       ??$destroy@PAULogData@log4z@zsummer@@@?$allocator@PAULogData@log4z@zsummer@@@std@@QAEXPAPAULogData@log4z@zsummer@@@Z 00421a10 f i log4z.obj
 0001:00020a50       ??$destroy@PAULogData@log4z@zsummer@@@?$allocator_traits@V?$allocator@PAULogData@log4z@zsummer@@@std@@@std@@SAXAAV?$allocator@PAULogData@log4z@zsummer@@@1@PAPAULogData@log4z@zsummer@@@Z 00421a50 f i log4z.obj
 0001:00020aa0       ??$destroy@U?$pair@$$CBV?$basic_string@DU?$char_traits@D@std@@V?$allocator@D@2@@std@@H@std@@@?$_Wrap_alloc@V?$allocator@U?$_Tree_node@U?$pair@$$CBV?$basic_string@DU?$char_traits@D@std@@V?$allocator@D@2@@std@@H@std@@PAX@std@@@std@@@std@@QAEXPAU?$pair@$$CBV?$basic_string@DU?$char_traits@D@std@@V?$allocator@D@2@@std@@H@1@@Z 00421aa0 f i log4z.obj
 0001:00020b00       ??$destroy@U?$pair@$$CBV?$basic_string@DU?$char_traits@D@std@@V?$allocator@D@2@@std@@H@std@@@?$allocator@U?$_Tree_node@U?$pair@$$CBV?$basic_string@DU?$char_traits@D@std@@V?$allocator@D@2@@std@@H@std@@PAX@std@@@std@@QAEXPAU?$pair@$$CBV?$basic_string@DU?$char_traits@D@std@@V?$allocator@D@2@@std@@H@1@@Z 00421b00 f i log4z.obj
 0001:00020b60       ??$destroy@U?$pair@$$CBV?$basic_string@DU?$char_traits@D@std@@V?$allocator@D@2@@std@@H@std@@@?$allocator_traits@V?$allocator@U?$_Tree_node@U?$pair@$$CBV?$basic_string@DU?$char_traits@D@std@@V?$allocator@D@2@@std@@H@std@@PAX@std@@@std@@@std@@SAXAAV?$allocator@U?$_Tree_node@U?$pair@$$CBV?$basic_string@DU?$char_traits@D@std@@V?$allocator@D@2@@std@@H@std@@PAX@std@@@1@PAU?$pair@$$CBV?$basic_string@DU?$char_traits@D@std@@V?$allocator@D@2@@std@@H@1@@Z 00421b60 f i log4z.obj
 0001:00020bb0       ??$destroy@U?$pair@$$CBV?$basic_string@DU?$char_traits@D@std@@V?$allocator@D@2@@std@@ULoggerInfo@log4z@zsummer@@@std@@@?$_Wrap_alloc@V?$allocator@U?$_Tree_node@U?$pair@$$CBV?$basic_string@DU?$char_traits@D@std@@V?$allocator@D@2@@std@@ULoggerInfo@log4z@zsummer@@@std@@PAX@std@@@std@@@std@@QAEXPAU?$pair@$$CBV?$basic_string@DU?$char_traits@D@std@@V?$allocator@D@2@@std@@ULoggerInfo@log4z@zsummer@@@1@@Z 00421bb0 f i log4z.obj
 0001:00020c10       ??$destroy@U?$pair@$$CBV?$basic_string@DU?$char_traits@D@std@@V?$allocator@D@2@@std@@ULoggerInfo@log4z@zsummer@@@std@@@?$allocator@U?$_Tree_node@U?$pair@$$CBV?$basic_string@DU?$char_traits@D@std@@V?$allocator@D@2@@std@@ULoggerInfo@log4z@zsummer@@@std@@PAX@std@@@std@@QAEXPAU?$pair@$$CBV?$basic_string@DU?$char_traits@D@std@@V?$allocator@D@2@@std@@ULoggerInfo@log4z@zsummer@@@1@@Z 00421c10 f i log4z.obj
 0001:00020c70       ??$destroy@U?$pair@$$CBV?$basic_string@DU?$char_traits@D@std@@V?$allocator@D@2@@std@@ULoggerInfo@log4z@zsummer@@@std@@@?$allocator_traits@V?$allocator@U?$_Tree_node@U?$pair@$$CBV?$basic_string@DU?$char_traits@D@std@@V?$allocator@D@2@@std@@ULoggerInfo@log4z@zsummer@@@std@@PAX@std@@@std@@@std@@SAXAAV?$allocator@U?$_Tree_node@U?$pair@$$CBV?$basic_string@DU?$char_traits@D@std@@V?$allocator@D@2@@std@@ULoggerInfo@log4z@zsummer@@@std@@PAX@std@@@1@PAU?$pair@$$CBV?$basic_string@DU?$char_traits@D@std@@V?$allocator@D@2@@std@@ULoggerInfo@log4z@zsummer@@@1@@Z 00421c70 f i log4z.obj
 0001:00020cc0       ??$destroy@U?$pair@_JV?$basic_string@DU?$char_traits@D@std@@V?$allocator@D@2@@std@@@std@@@?$_Wrap_alloc@V?$allocator@U?$_List_node@U?$pair@_JV?$basic_string@DU?$char_traits@D@std@@V?$allocator@D@2@@std@@@std@@PAX@std@@@std@@@std@@QAEXPAU?$pair@_JV?$basic_string@DU?$char_traits@D@std@@V?$allocator@D@2@@std@@@1@@Z 00421cc0 f i log4z.obj
 0001:00020d20       ??$destroy@U?$pair@_JV?$basic_string@DU?$char_traits@D@std@@V?$allocator@D@2@@std@@@std@@@?$allocator@U?$_List_node@U?$pair@_JV?$basic_string@DU?$char_traits@D@std@@V?$allocator@D@2@@std@@@std@@PAX@std@@@std@@QAEXPAU?$pair@_JV?$basic_string@DU?$char_traits@D@std@@V?$allocator@D@2@@std@@@1@@Z 00421d20 f i log4z.obj
 0001:00020d80       ??$destroy@U?$pair@_JV?$basic_string@DU?$char_traits@D@std@@V?$allocator@D@2@@std@@@std@@@?$allocator_traits@V?$allocator@U?$_List_node@U?$pair@_JV?$basic_string@DU?$char_traits@D@std@@V?$allocator@D@2@@std@@@std@@PAX@std@@@std@@@std@@SAXAAV?$allocator@U?$_List_node@U?$pair@_JV?$basic_string@DU?$char_traits@D@std@@V?$allocator@D@2@@std@@@std@@PAX@std@@@1@PAU?$pair@_JV?$basic_string@DU?$char_traits@D@std@@V?$allocator@D@2@@std@@@1@@Z 00421d80 f i log4z.obj
 0001:00020dd0       ??$emplace@U?$pair@V?$basic_string@DU?$char_traits@D@std@@V?$allocator@D@2@@std@@ULoggerInfo@log4z@zsummer@@@std@@@?$_Tree@V?$_Tmap_traits@V?$basic_string@DU?$char_traits@D@std@@V?$allocator@D@2@@std@@ULoggerInfo@log4z@zsummer@@U?$less@V?$basic_string@DU?$char_traits@D@std@@V?$allocator@D@2@@std@@@2@V?$allocator@U?$pair@$$CBV?$basic_string@DU?$char_traits@D@std@@V?$allocator@D@2@@std@@ULoggerInfo@log4z@zsummer@@@std@@@2@$0A@@std@@@std@@QAE?AU?$pair@V?$_Tree_iterator@V?$_Tree_val@U?$_Tree_simple_types@U?$pair@$$CBV?$basic_string@DU?$char_traits@D@std@@V?$allocator@D@2@@std@@ULoggerInfo@log4z@zsummer@@@std@@@std@@@std@@@std@@_N@1@$$QAU?$pair@V?$basic_string@DU?$char_traits@D@std@@V?$allocator@D@2@@std@@ULoggerInfo@log4z@zsummer@@@1@@Z 00421dd0 f i log4z.obj
 0001:00020e80       ??$emplace_hint@ABUpiecewise_construct_t@std@@V?$tuple@$$QAV?$basic_string@DU?$char_traits@D@std@@V?$allocator@D@2@@std@@@2@V?$tuple@$$V@2@@?$_Tree@V?$_Tmap_traits@V?$basic_string@DU?$char_traits@D@std@@V?$allocator@D@2@@std@@HU?$less@V?$basic_string@DU?$char_traits@D@std@@V?$allocator@D@2@@std@@@2@V?$allocator@U?$pair@$$CBV?$basic_string@DU?$char_traits@D@std@@V?$allocator@D@2@@std@@H@std@@@2@$0A@@std@@@std@@QAE?AV?$_Tree_iterator@V?$_Tree_val@U?$_Tree_simple_types@U?$pair@$$CBV?$basic_string@DU?$char_traits@D@std@@V?$allocator@D@2@@std@@H@std@@@std@@@std@@@1@V?$_Tree_const_iterator@V?$_Tree_val@U?$_Tree_simple_types@U?$pair@$$CBV?$basic_string@DU?$char_traits@D@std@@V?$allocator@D@2@@std@@H@std@@@std@@@std@@@1@ABUpiecewise_construct_t@1@$$QAV?$tuple@$$QAV?$basic_string@DU?$char_traits@D@std@@V?$allocator@D@2@@std@@@1@$$QAV?$tuple@$$V@1@@Z 00421e80 f i log4z.obj
 0001:00020fd0       ??$emplace_hint@ABUpiecewise_construct_t@std@@V?$tuple@ABV?$basic_string@DU?$char_traits@D@std@@V?$allocator@D@2@@std@@@2@V?$tuple@$$V@2@@?$_Tree@V?$_Tmap_traits@V?$basic_string@DU?$char_traits@D@std@@V?$allocator@D@2@@std@@HU?$less@V?$basic_string@DU?$char_traits@D@std@@V?$allocator@D@2@@std@@@2@V?$allocator@U?$pair@$$CBV?$basic_string@DU?$char_traits@D@std@@V?$allocator@D@2@@std@@H@std@@@2@$0A@@std@@@std@@QAE?AV?$_Tree_iterator@V?$_Tree_val@U?$_Tree_simple_types@U?$pair@$$CBV?$basic_string@DU?$char_traits@D@std@@V?$allocator@D@2@@std@@H@std@@@std@@@std@@@1@V?$_Tree_const_iterator@V?$_Tree_val@U?$_Tree_simple_types@U?$pair@$$CBV?$basic_string@DU?$char_traits@D@std@@V?$allocator@D@2@@std@@H@std@@@std@@@std@@@1@ABUpiecewise_construct_t@1@$$QAV?$tuple@ABV?$basic_string@DU?$char_traits@D@std@@V?$allocator@D@2@@std@@@1@$$QAV?$tuple@$$V@1@@Z 00421fd0 f i log4z.obj
 0001:00021120       ??$forward@$$QAV?$basic_string@DU?$char_traits@D@std@@V?$allocator@D@2@@std@@@std@@YA$$QAV?$basic_string@DU?$char_traits@D@std@@V?$allocator@D@2@@0@AAV10@@Z 00422120 f i log4z.obj
 0001:00021160       ??$forward@AAPAD@std@@YAAAPADAAPAD@Z 00422160 f i log4z.obj
 0001:000211a0       ??$forward@AAPAU?$_List_node@U?$pair@_JV?$basic_string@DU?$char_traits@D@std@@V?$allocator@D@2@@std@@@std@@PAX@std@@@std@@YAAAPAU?$_List_node@U?$pair@_JV?$basic_string@DU?$char_traits@D@std@@V?$allocator@D@2@@std@@@std@@PAX@0@AAPAU10@@Z 004221a0 f i log4z.obj
 0001:000211e0       ??$forward@AAPAU?$_Tree_node@U?$pair@$$CBV?$basic_string@DU?$char_traits@D@std@@V?$allocator@D@2@@std@@H@std@@PAX@std@@@std@@YAAAPAU?$_Tree_node@U?$pair@$$CBV?$basic_string@DU?$char_traits@D@std@@V?$allocator@D@2@@std@@H@std@@PAX@0@AAPAU10@@Z 004221e0 f i log4z.obj
 0001:00021220       ??$forward@AAPAU?$_Tree_node@U?$pair@$$CBV?$basic_string@DU?$char_traits@D@std@@V?$allocator@D@2@@std@@ULoggerInfo@log4z@zsummer@@@std@@PAX@std@@@std@@YAAAPAU?$_Tree_node@U?$pair@$$CBV?$basic_string@DU?$char_traits@D@std@@V?$allocator@D@2@@std@@ULoggerInfo@log4z@zsummer@@@std@@PAX@0@AAPAU10@@Z 00422220 f i log4z.obj
 0001:00021260       ??$forward@AAPAULogData@log4z@zsummer@@@std@@YAAAPAULogData@log4z@zsummer@@AAPAU123@@Z 00422260 f i log4z.obj
 0001:000212a0       ??$forward@AAU?$_Wrap_alloc@V?$allocator@PAULogData@log4z@zsummer@@@std@@@std@@@std@@YAAAU?$_Wrap_alloc@V?$allocator@PAULogData@log4z@zsummer@@@std@@@0@AAU10@@Z 004222a0 f i log4z.obj
 0001:000212e0       ??$forward@AAU?$_Wrap_alloc@V?$allocator@U?$_List_node@U?$pair@_JV?$basic_string@DU?$char_traits@D@std@@V?$allocator@D@2@@std@@@std@@PAX@std@@@std@@@std@@@std@@YAAAU?$_Wrap_alloc@V?$allocator@U?$_List_node@U?$pair@_JV?$basic_string@DU?$char_traits@D@std@@V?$allocator@D@2@@std@@@std@@PAX@std@@@std@@@0@AAU10@@Z 004222e0 f i log4z.obj
 0001:00021320       ??$forward@AAU?$_Wrap_alloc@V?$allocator@U?$_Tree_node@U?$pair@$$CBV?$basic_string@DU?$char_traits@D@std@@V?$allocator@D@2@@std@@H@std@@PAX@std@@@std@@@std@@@std@@YAAAU?$_Wrap_alloc@V?$allocator@U?$_Tree_node@U?$pair@$$CBV?$basic_string@DU?$char_traits@D@std@@V?$allocator@D@2@@std@@H@std@@PAX@std@@@std@@@0@AAU10@@Z 00422320 f i log4z.obj
 0001:00021360       ??$forward@AAU?$_Wrap_alloc@V?$allocator@U?$_Tree_node@U?$pair@$$CBV?$basic_string@DU?$char_traits@D@std@@V?$allocator@D@2@@std@@ULoggerInfo@log4z@zsummer@@@std@@PAX@std@@@std@@@std@@@std@@YAAAU?$_Wrap_alloc@V?$allocator@U?$_Tree_node@U?$pair@$$CBV?$basic_string@DU?$char_traits@D@std@@V?$allocator@D@2@@std@@ULoggerInfo@log4z@zsummer@@@std@@PAX@std@@@std@@@0@AAU10@@Z 00422360 f i log4z.obj
 0001:000213a0       ??$forward@AAU?$pair@$$CBV?$basic_string@DU?$char_traits@D@std@@V?$allocator@D@2@@std@@H@std@@@std@@YAAAU?$pair@$$CBV?$basic_string@DU?$char_traits@D@std@@V?$allocator@D@2@@std@@H@0@AAU10@@Z 004223a0 f i log4z.obj
 0001:000213e0       ??$forward@AAU?$pair@$$CBV?$basic_string@DU?$char_traits@D@std@@V?$allocator@D@2@@std@@ULoggerInfo@log4z@zsummer@@@std@@@std@@YAAAU?$pair@$$CBV?$basic_string@DU?$char_traits@D@std@@V?$allocator@D@2@@std@@ULoggerInfo@log4z@zsummer@@@0@AAU10@@Z 004223e0 f i log4z.obj
 0001:00021420       ??$forward@AAULoggerInfo@log4z@zsummer@@@std@@YAAAULoggerInfo@log4z@zsummer@@AAU123@@Z 00422420 f i log4z.obj
 0001:00021460       ??$forward@AAV?$_Tree_iterator@V?$_Tree_val@U?$_Tree_simple_types@U?$pair@$$CBV?$basic_string@DU?$char_traits@D@std@@V?$allocator@D@2@@std@@H@std@@@std@@@std@@@std@@@std@@YAAAV?$_Tree_iterator@V?$_Tree_val@U?$_Tree_simple_types@U?$pair@$$CBV?$basic_string@DU?$char_traits@D@std@@V?$allocator@D@2@@std@@H@std@@@std@@@std@@@0@AAV10@@Z 00422460 f i log4z.obj
 0001:000214a0       ??$forward@AAV?$_Tree_iterator@V?$_Tree_val@U?$_Tree_simple_types@U?$pair@$$CBV?$basic_string@DU?$char_traits@D@std@@V?$allocator@D@2@@std@@ULoggerInfo@log4z@zsummer@@@std@@@std@@@std@@@std@@@std@@YAAAV?$_Tree_iterator@V?$_Tree_val@U?$_Tree_simple_types@U?$pair@$$CBV?$basic_string@DU?$char_traits@D@std@@V?$allocator@D@2@@std@@ULoggerInfo@log4z@zsummer@@@std@@@std@@@std@@@0@AAV10@@Z 004224a0 f i log4z.obj
 0001:000214e0       ??$forward@AAV?$basic_string@DU?$char_traits@D@std@@V?$allocator@D@2@@std@@@std@@YAAAV?$basic_string@DU?$char_traits@D@std@@V?$allocator@D@2@@0@AAV10@@Z 004224e0 f i log4z.obj
 0001:00021520       ??$forward@AAY00$$CBD@std@@YAAAY00$$CBDAAY00$$CBD@Z 00422520 f i log4z.obj
 0001:00021560       ??$forward@ABQAULogData@log4z@zsummer@@@std@@YAABQAULogData@log4z@zsummer@@ABQAU123@@Z 00422560 f i log4z.obj
 0001:000215a0       ??$forward@ABU?$less@V?$basic_string@DU?$char_traits@D@std@@V?$allocator@D@2@@std@@@std@@@std@@YAABU?$less@V?$basic_string@DU?$char_traits@D@std@@V?$allocator@D@2@@std@@@0@ABU10@@Z 004225a0 f i log4z.obj
 0001:000215e0       ??$forward@ABU?$pair@_JV?$basic_string@DU?$char_traits@D@std@@V?$allocator@D@2@@std@@@std@@@std@@YAABU?$pair@_JV?$basic_string@DU?$char_traits@D@std@@V?$allocator@D@2@@std@@@0@ABU10@@Z 004225e0 f i log4z.obj
 0001:00021620       ??$forward@ABUpiecewise_construct_t@std@@@std@@YAABUpiecewise_construct_t@0@ABU10@@Z 00422620 f i log4z.obj
 0001:00021660       ??$forward@ABV?$allocator@D@std@@@std@@YAABV?$allocator@D@0@ABV10@@Z 00422660 f i log4z.obj
 0001:000216a0       ??$forward@ABV?$basic_string@DU?$char_traits@D@std@@V?$allocator@D@2@@std@@@std@@YAABV?$basic_string@DU?$char_traits@D@std@@V?$allocator@D@2@@0@ABV10@@Z 004226a0 f i log4z.obj
 0001:000216e0       ??$forward@PBD@std@@YA$$QAPBDAAPBD@Z 004226e0 f i log4z.obj
 0001:00021720       ??$forward@U?$_Wrap_alloc@V?$allocator@D@std@@@std@@@std@@YA$$QAU?$_Wrap_alloc@V?$allocator@D@std@@@0@AAU10@@Z 00422720 f i log4z.obj
 0001:00021760       ??$forward@U?$_Wrap_alloc@V?$allocator@U?$_List_node@U?$pair@_JV?$basic_string@DU?$char_traits@D@std@@V?$allocator@D@2@@std@@@std@@PAX@std@@@std@@@std@@@std@@YA$$QAU?$_Wrap_alloc@V?$allocator@U?$_List_node@U?$pair@_JV?$basic_string@DU?$char_traits@D@std@@V?$allocator@D@2@@std@@@std@@PAX@std@@@std@@@0@AAU10@@Z 00422760 f i log4z.obj
 0001:000217a0       ??$forward@U?$pair@V?$basic_string@DU?$char_traits@D@std@@V?$allocator@D@2@@std@@ULoggerInfo@log4z@zsummer@@@std@@@std@@YA$$QAU?$pair@V?$basic_string@DU?$char_traits@D@std@@V?$allocator@D@2@@std@@ULoggerInfo@log4z@zsummer@@@0@AAU10@@Z 004227a0 f i log4z.obj
 0001:000217e0       ??$forward@U?$pair@_JV?$basic_string@DU?$char_traits@D@std@@V?$allocator@D@2@@std@@@std@@@std@@YA$$QAU?$pair@_JV?$basic_string@DU?$char_traits@D@std@@V?$allocator@D@2@@std@@@0@AAU10@@Z 004227e0 f i log4z.obj
 0001:00021820       ??$forward@ULoggerInfo@log4z@zsummer@@@std@@YA$$QAULoggerInfo@log4z@zsummer@@AAU123@@Z 00422820 f i log4z.obj
 0001:00021860       ??$forward@U_Container_proxy@std@@@std@@YA$$QAU_Container_proxy@0@AAU10@@Z 00422860 f i log4z.obj
 0001:000218a0       ??$forward@U_Zero_then_variadic_args_t@std@@@std@@YA$$QAU_Zero_then_variadic_args_t@0@AAU10@@Z 004228a0 f i log4z.obj
 0001:000218e0       ??$forward@V?$_Tree_iterator@V?$_Tree_val@U?$_Tree_simple_types@U?$pair@$$CBV?$basic_string@DU?$char_traits@D@std@@V?$allocator@D@2@@std@@H@std@@@std@@@std@@@std@@@std@@YA$$QAV?$_Tree_iterator@V?$_Tree_val@U?$_Tree_simple_types@U?$pair@$$CBV?$basic_string@DU?$char_traits@D@std@@V?$allocator@D@2@@std@@H@std@@@std@@@std@@@0@AAV10@@Z 004228e0 f i log4z.obj
 0001:00021920       ??$forward@V?$_Tree_iterator@V?$_Tree_val@U?$_Tree_simple_types@U?$pair@$$CBV?$basic_string@DU?$char_traits@D@std@@V?$allocator@D@2@@std@@ULoggerInfo@log4z@zsummer@@@std@@@std@@@std@@@std@@@std@@YA$$QAV?$_Tree_iterator@V?$_Tree_val@U?$_Tree_simple_types@U?$pair@$$CBV?$basic_string@DU?$char_traits@D@std@@V?$allocator@D@2@@std@@ULoggerInfo@log4z@zsummer@@@std@@@std@@@std@@@0@AAV10@@Z 00422920 f i log4z.obj
 0001:00021960       ??$forward@V?$allocator@D@std@@@std@@YA$$QAV?$allocator@D@0@AAV10@@Z 00422960 f i log4z.obj
 0001:000219a0       ??$forward@V?$allocator@U?$_List_node@U?$pair@_JV?$basic_string@DU?$char_traits@D@std@@V?$allocator@D@2@@std@@@std@@PAX@std@@@std@@@std@@YA$$QAV?$allocator@U?$_List_node@U?$pair@_JV?$basic_string@DU?$char_traits@D@std@@V?$allocator@D@2@@std@@@std@@PAX@std@@@0@AAV10@@Z 004229a0 f i log4z.obj
 0001:000219e0       ??$forward@V?$basic_string@DU?$char_traits@D@std@@V?$allocator@D@2@@std@@@std@@YA$$QAV?$basic_string@DU?$char_traits@D@std@@V?$allocator@D@2@@0@AAV10@@Z 004229e0 f i log4z.obj
 0001:00021a20       ??$forward@V?$list@U?$pair@_JV?$basic_string@DU?$char_traits@D@std@@V?$allocator@D@2@@std@@@std@@V?$allocator@U?$pair@_JV?$basic_string@DU?$char_traits@D@std@@V?$allocator@D@2@@std@@@std@@@2@@std@@@std@@YA$$QAV?$list@U?$pair@_JV?$basic_string@DU?$char_traits@D@std@@V?$allocator@D@2@@std@@@std@@V?$allocator@U?$pair@_JV?$basic_string@DU?$char_traits@D@std@@V?$allocator@D@2@@std@@@std@@@2@@0@AAV10@@Z 00422a20 f i log4z.obj
 0001:00021a60       ??$forward@V?$tuple@$$QAV?$basic_string@DU?$char_traits@D@std@@V?$allocator@D@2@@std@@@std@@@std@@YA$$QAV?$tuple@$$QAV?$basic_string@DU?$char_traits@D@std@@V?$allocator@D@2@@std@@@0@AAV10@@Z 00422a60 f i log4z.obj
 0001:00021aa0       ??$forward@V?$tuple@$$V@std@@@std@@YA$$QAV?$tuple@$$V@0@AAV10@@Z 00422aa0 f i log4z.obj
 0001:00021ae0       ??$forward@V?$tuple@ABV?$basic_string@DU?$char_traits@D@std@@V?$allocator@D@2@@std@@@std@@@std@@YA$$QAV?$tuple@ABV?$basic_string@DU?$char_traits@D@std@@V?$allocator@D@2@@std@@@0@AAV10@@Z 00422ae0 f i log4z.obj
 0001:00021b20       ??$forward@_J@std@@YA$$QA_JAA_J@Z 00422b20 f i log4z.obj
 0001:00021b60       ??$forward@_N@std@@YA$$QA_NAA_N@Z 00422b60 f i log4z.obj
 0001:00021ba0       ??$forward_as_tuple@$$V@std@@YA?AV?$tuple@$$V@0@XZ 00422ba0 f i log4z.obj
 0001:00021bf0       ??$forward_as_tuple@ABV?$basic_string@DU?$char_traits@D@std@@V?$allocator@D@2@@std@@@std@@YA?AV?$tuple@ABV?$basic_string@DU?$char_traits@D@std@@V?$allocator@D@2@@std@@@0@ABV?$basic_string@DU?$char_traits@D@std@@V?$allocator@D@2@@0@@Z 00422bf0 f i log4z.obj
 0001:00021c90       ??$forward_as_tuple@V?$basic_string@DU?$char_traits@D@std@@V?$allocator@D@2@@std@@@std@@YA?AV?$tuple@$$QAV?$basic_string@DU?$char_traits@D@std@@V?$allocator@D@2@@std@@@0@$$QAV?$basic_string@DU?$char_traits@D@std@@V?$allocator@D@2@@0@@Z 00422c90 f i log4z.obj
 0001:00021d30       ??$get@$0A@$$QAV?$basic_string@DU?$char_traits@D@std@@V?$allocator@D@2@@std@@@std@@YA$$QAV?$basic_string@DU?$char_traits@D@std@@V?$allocator@D@2@@0@$$QAV?$tuple@$$QAV?$basic_string@DU?$char_traits@D@std@@V?$allocator@D@2@@std@@@0@@Z 00422d30 f i log4z.obj
 0001:00021d80       ??$get@$0A@ABV?$basic_string@DU?$char_traits@D@std@@V?$allocator@D@2@@std@@@std@@YAABV?$basic_string@DU?$char_traits@D@std@@V?$allocator@D@2@@0@$$QAV?$tuple@ABV?$basic_string@DU?$char_traits@D@std@@V?$allocator@D@2@@std@@@0@@Z 00422d80 f i log4z.obj
 0001:00021dd0       ??$insert@U?$pair@V?$basic_string@DU?$char_traits@D@std@@V?$allocator@D@2@@std@@ULoggerInfo@log4z@zsummer@@@std@@X@?$map@V?$basic_string@DU?$char_traits@D@std@@V?$allocator@D@2@@std@@ULoggerInfo@log4z@zsummer@@U?$less@V?$basic_string@DU?$char_traits@D@std@@V?$allocator@D@2@@std@@@2@V?$allocator@U?$pair@$$CBV?$basic_string@DU?$char_traits@D@std@@V?$allocator@D@2@@std@@ULoggerInfo@log4z@zsummer@@@std@@@2@@std@@QAE?AU?$pair@V?$_Tree_iterator@V?$_Tree_val@U?$_Tree_simple_types@U?$pair@$$CBV?$basic_string@DU?$char_traits@D@std@@V?$allocator@D@2@@std@@ULoggerInfo@log4z@zsummer@@@std@@@std@@@std@@@std@@_N@1@$$QAU?$pair@V?$basic_string@DU?$char_traits@D@std@@V?$allocator@D@2@@std@@ULoggerInfo@log4z@zsummer@@@1@@Z 00422dd0 f i log4z.obj
 0001:00021e60       ??$insert@V?$_List_const_iterator@V?$_List_val@U?$_List_simple_types@U?$pair@_JV?$basic_string@DU?$char_traits@D@std@@V?$allocator@D@2@@std@@@std@@@std@@@std@@@std@@@?$list@U?$pair@_JV?$basic_string@DU?$char_traits@D@std@@V?$allocator@D@2@@std@@@std@@V?$allocator@U?$pair@_JV?$basic_string@DU?$char_traits@D@std@@V?$allocator@D@2@@std@@@std@@@2@@std@@QAE?AV?$_List_iterator@V?$_List_val@U?$_List_simple_types@U?$pair@_JV?$basic_string@DU?$char_traits@D@std@@V?$allocator@D@2@@std@@@std@@@std@@@std@@@1@V?$_List_const_iterator@V?$_List_val@U?$_List_simple_types@U?$pair@_JV?$basic_string@DU?$char_traits@D@std@@V?$allocator@D@2@@std@@@std@@@std@@@std@@@1@00@Z 00422e60 f i log4z.obj
 0001:000222b0       ??$make_pair@AAV?$basic_string@DU?$char_traits@D@std@@V?$allocator@D@2@@std@@AAULoggerInfo@log4z@zsummer@@@std@@YA?AU?$pair@V?$basic_string@DU?$char_traits@D@std@@V?$allocator@D@2@@std@@ULoggerInfo@log4z@zsummer@@@0@AAV?$basic_string@DU?$char_traits@D@std@@V?$allocator@D@2@@0@AAULoggerInfo@log4z@zsummer@@@Z 004232b0 f i log4z.obj
 0001:00022340       ??$make_pair@ABV?$basic_string@DU?$char_traits@D@std@@V?$allocator@D@2@@std@@AAY00$$CBD@std@@YA?AU?$pair@V?$basic_string@DU?$char_traits@D@std@@V?$allocator@D@2@@std@@PBD@0@ABV?$basic_string@DU?$char_traits@D@std@@V?$allocator@D@2@@0@AAY00$$CBD@Z 00423340 f i log4z.obj
 0001:000223e0       ??$make_pair@V?$basic_string@DU?$char_traits@D@std@@V?$allocator@D@2@@std@@V12@@std@@YA?AU?$pair@V?$basic_string@DU?$char_traits@D@std@@V?$allocator@D@2@@std@@V12@@0@$$QAV?$basic_string@DU?$char_traits@D@std@@V?$allocator@D@2@@0@0@Z 004233e0 f i log4z.obj
 0001:00022470       ??$make_pair@_JAAV?$basic_string@DU?$char_traits@D@std@@V?$allocator@D@2@@std@@@std@@YA?AU?$pair@_JV?$basic_string@DU?$char_traits@D@std@@V?$allocator@D@2@@std@@@0@$$QA_JAAV?$basic_string@DU?$char_traits@D@std@@V?$allocator@D@2@@0@@Z 00423470 f i log4z.obj
 0001:00022500       ??$move@AAD@std@@YA$$QADAAD@Z 00423500 f i log4z.obj
 0001:00022540       ??$move@AAI@std@@YA$$QAIAAI@Z 00423540 f i log4z.obj
 0001:00022580       ??$move@AAPAPAPAULogData@log4z@zsummer@@@std@@YA$$QAPAPAPAULogData@log4z@zsummer@@AAPAPAPAU123@@Z 00423580 f i log4z.obj
 0001:000225c0       ??$move@AAPAU?$_List_node@U?$pair@_JV?$basic_string@DU?$char_traits@D@std@@V?$allocator@D@2@@std@@@std@@PAX@std@@@std@@YA$$QAPAU?$_List_node@U?$pair@_JV?$basic_string@DU?$char_traits@D@std@@V?$allocator@D@2@@std@@@std@@PAX@0@AAPAU10@@Z 004235c0 f i log4z.obj
 0001:00022600       ??$move@AAU?$_Wrap_alloc@V?$allocator@D@std@@@std@@@std@@YA$$QAU?$_Wrap_alloc@V?$allocator@D@std@@@0@AAU10@@Z 00423600 f i log4z.obj
 0001:00022640       ??$move@AAU?$_Wrap_alloc@V?$allocator@U?$_List_node@U?$pair@_JV?$basic_string@DU?$char_traits@D@std@@V?$allocator@D@2@@std@@@std@@PAX@std@@@std@@@std@@@std@@YA$$QAU?$_Wrap_alloc@V?$allocator@U?$_List_node@U?$pair@_JV?$basic_string@DU?$char_traits@D@std@@V?$allocator@D@2@@std@@@std@@PAX@std@@@std@@@0@AAU10@@Z 00423640 f i log4z.obj
 0001:00022680       ??$move@AAV?$basic_string@DU?$char_traits@D@std@@V?$allocator@D@2@@std@@@std@@YA$$QAV?$basic_string@DU?$char_traits@D@std@@V?$allocator@D@2@@0@AAV10@@Z 00423680 f i log4z.obj
 0001:000226c0       ??$move@AAV?$tuple@$$QAV?$basic_string@DU?$char_traits@D@std@@V?$allocator@D@2@@std@@@std@@@std@@YA$$QAV?$tuple@$$QAV?$basic_string@DU?$char_traits@D@std@@V?$allocator@D@2@@std@@@0@AAV10@@Z 004236c0 f i log4z.obj
 0001:00022700       ??$move@AAV?$tuple@ABV?$basic_string@DU?$char_traits@D@std@@V?$allocator@D@2@@std@@@std@@@std@@YA$$QAV?$tuple@ABV?$basic_string@DU?$char_traits@D@std@@V?$allocator@D@2@@std@@@0@AAV10@@Z 00423700 f i log4z.obj
 0001:00022740       ??$swap@DX@std@@YAXAAD0@Z  00423740 f i log4z.obj
 0001:00022800       ??$swap@IX@std@@YAXAAI0@Z  00423800 f i log4z.obj
 0001:000228c0       ??$swap@PAPAPAULogData@log4z@zsummer@@X@std@@YAXAAPAPAPAULogData@log4z@zsummer@@0@Z 004238c0 f i log4z.obj
 0001:00022980       ??$swap@PAU?$_List_node@U?$pair@_JV?$basic_string@DU?$char_traits@D@std@@V?$allocator@D@2@@std@@@std@@PAX@std@@X@std@@YAXAAPAU?$_List_node@U?$pair@_JV?$basic_string@DU?$char_traits@D@std@@V?$allocator@D@2@@std@@@std@@PAX@0@0@Z 00423980 f i log4z.obj
 0001:00022a40       ??$transform@V?$_String_iterator@V?$_String_val@U?$_Simple_types@D@std@@@std@@@std@@V12@P6AHH@Z@std@@YA?AV?$_String_iterator@V?$_String_val@U?$_Simple_types@D@std@@@std@@@0@V10@00P6AHH@Z@Z 00423a40 f i log4z.obj
 0001:00022c10       ??$try_emplace@$$V@?$map@V?$basic_string@DU?$char_traits@D@std@@V?$allocator@D@2@@std@@HU?$less@V?$basic_string@DU?$char_traits@D@std@@V?$allocator@D@2@@std@@@2@V?$allocator@U?$pair@$$CBV?$basic_string@DU?$char_traits@D@std@@V?$allocator@D@2@@std@@H@std@@@2@@std@@QAE?AU?$pair@V?$_Tree_iterator@V?$_Tree_val@U?$_Tree_simple_types@U?$pair@$$CBV?$basic_string@DU?$char_traits@D@std@@V?$allocator@D@2@@std@@H@std@@@std@@@std@@@std@@_N@1@$$QAV?$basic_string@DU?$char_traits@D@std@@V?$allocator@D@2@@1@@Z 00423c10 f i log4z.obj
 0001:00022ca0       ??$try_emplace@$$V@?$map@V?$basic_string@DU?$char_traits@D@std@@V?$allocator@D@2@@std@@HU?$less@V?$basic_string@DU?$char_traits@D@std@@V?$allocator@D@2@@std@@@2@V?$allocator@U?$pair@$$CBV?$basic_string@DU?$char_traits@D@std@@V?$allocator@D@2@@std@@H@std@@@2@@std@@QAE?AU?$pair@V?$_Tree_iterator@V?$_Tree_val@U?$_Tree_simple_types@U?$pair@$$CBV?$basic_string@DU?$char_traits@D@std@@V?$allocator@D@2@@std@@H@std@@@std@@@std@@@std@@_N@1@ABV?$basic_string@DU?$char_traits@D@std@@V?$allocator@D@2@@1@@Z 00423ca0 f i log4z.obj
 0001:00022d20       ??0?$_Deque_alloc@U?$_Deque_base_types@PAULogData@log4z@zsummer@@V?$allocator@PAULogData@log4z@zsummer@@@std@@@std@@@std@@QAE@XZ 00423d20 f i log4z.obj
 0001:00022dd0       ??0?$_Deque_const_iterator@V?$_Deque_val@U?$_Deque_simple_types@PAULogData@log4z@zsummer@@@std@@@std@@@std@@QAE@IPBU_Container_base12@1@@Z 00423dd0 f i log4z.obj
 0001:00022e90       ??0?$_Deque_iterator@V?$_Deque_val@U?$_Deque_simple_types@PAULogData@log4z@zsummer@@@std@@@std@@@std@@QAE@IPBU_Container_base12@1@@Z 00423e90 f i log4z.obj
 0001:00022ef0       ??0?$_Deque_val@U?$_Deque_simple_types@PAULogData@log4z@zsummer@@@std@@@std@@QAE@XZ 00423ef0 f i log4z.obj
 0001:00022f80       ??0?$_Iterator012@Ubidirectional_iterator_tag@std@@U?$pair@$$CBV?$basic_string@DU?$char_traits@D@std@@V?$allocator@D@2@@std@@H@2@HPBU32@ABU32@U_Iterator_base12@2@@std@@QAE@$$QAU01@@Z 00423f80 f i log4z.obj
 0001:00022fe0       ??0?$_Iterator012@Ubidirectional_iterator_tag@std@@U?$pair@$$CBV?$basic_string@DU?$char_traits@D@std@@V?$allocator@D@2@@std@@H@2@HPBU32@ABU32@U_Iterator_base12@2@@std@@QAE@ABU01@@Z 00423fe0 f i log4z.obj
 0001:00023040       ??0?$_Iterator012@Ubidirectional_iterator_tag@std@@U?$pair@$$CBV?$basic_string@DU?$char_traits@D@std@@V?$allocator@D@2@@std@@H@2@HPBU32@ABU32@U_Iterator_base12@2@@std@@QAE@XZ 00424040 f i log4z.obj
 0001:000230a0       ??0?$_Iterator012@Ubidirectional_iterator_tag@std@@U?$pair@$$CBV?$basic_string@DU?$char_traits@D@std@@V?$allocator@D@2@@std@@ULoggerInfo@log4z@zsummer@@@2@HPBU32@ABU32@U_Iterator_base12@2@@std@@QAE@$$QAU01@@Z 004240a0 f i log4z.obj
 0001:00023100       ??0?$_Iterator012@Ubidirectional_iterator_tag@std@@U?$pair@$$CBV?$basic_string@DU?$char_traits@D@std@@V?$allocator@D@2@@std@@ULoggerInfo@log4z@zsummer@@@2@HPBU32@ABU32@U_Iterator_base12@2@@std@@QAE@ABU01@@Z 00424100 f i log4z.obj
 0001:00023160       ??0?$_Iterator012@Ubidirectional_iterator_tag@std@@U?$pair@$$CBV?$basic_string@DU?$char_traits@D@std@@V?$allocator@D@2@@std@@ULoggerInfo@log4z@zsummer@@@2@HPBU32@ABU32@U_Iterator_base12@2@@std@@QAE@XZ 00424160 f i log4z.obj
 0001:000231c0       ??0?$_Iterator012@Ubidirectional_iterator_tag@std@@U?$pair@_JV?$basic_string@DU?$char_traits@D@std@@V?$allocator@D@2@@std@@@2@HPBU32@ABU32@U_Iterator_base12@2@@std@@QAE@$$QAU01@@Z 004241c0 f i log4z.obj
 0001:00023220       ??0?$_Iterator012@Ubidirectional_iterator_tag@std@@U?$pair@_JV?$basic_string@DU?$char_traits@D@std@@V?$allocator@D@2@@std@@@2@HPBU32@ABU32@U_Iterator_base12@2@@std@@QAE@ABU01@@Z 00424220 f i log4z.obj
 0001:00023280       ??0?$_Iterator012@Ubidirectional_iterator_tag@std@@U?$pair@_JV?$basic_string@DU?$char_traits@D@std@@V?$allocator@D@2@@std@@@2@HPBU32@ABU32@U_Iterator_base12@2@@std@@QAE@XZ 00424280 f i log4z.obj
 0001:000232e0       ??0?$_Iterator012@Urandom_access_iterator_tag@std@@DHPBDABDU_Iterator_base12@2@@std@@QAE@$$QAU01@@Z 004242e0 f i log4z.obj
 0001:00023340       ??0?$_Iterator012@Urandom_access_iterator_tag@std@@DHPBDABDU_Iterator_base12@2@@std@@QAE@ABU01@@Z 00424340 f i log4z.obj
 0001:000233a0       ??0?$_Iterator012@Urandom_access_iterator_tag@std@@DHPBDABDU_Iterator_base12@2@@std@@QAE@XZ 004243a0 f i log4z.obj
 0001:00023400       ??0?$_Iterator012@Urandom_access_iterator_tag@std@@PAULogData@log4z@zsummer@@HPBQAU345@ABQAU345@U_Iterator_base12@2@@std@@QAE@ABU01@@Z 00424400 f i log4z.obj
 0001:00023460       ??0?$_Iterator012@Urandom_access_iterator_tag@std@@PAULogData@log4z@zsummer@@HPBQAU345@ABQAU345@U_Iterator_base12@2@@std@@QAE@XZ 00424460 f i log4z.obj
 0001:000234c0       ??0?$_List_alloc@U?$_List_base_types@U?$pair@_JV?$basic_string@DU?$char_traits@D@std@@V?$allocator@D@2@@std@@@std@@V?$allocator@U?$pair@_JV?$basic_string@DU?$char_traits@D@std@@V?$allocator@D@2@@std@@@std@@@2@@std@@@std@@QAE@XZ 004244c0 f i log4z.obj
 0001:000235d0       ??0?$_List_buy@U?$pair@_JV?$basic_string@DU?$char_traits@D@std@@V?$allocator@D@2@@std@@@std@@V?$allocator@U?$pair@_JV?$basic_string@DU?$char_traits@D@std@@V?$allocator@D@2@@std@@@std@@@2@@std@@QAE@XZ 004245d0 f i log4z.obj
 0001:00023630       ??0?$_List_const_iterator@V?$_List_val@U?$_List_simple_types@U?$pair@_JV?$basic_string@DU?$char_traits@D@std@@V?$allocator@D@2@@std@@@std@@@std@@@std@@@std@@QAE@$$QAV01@@Z 00424630 f i log4z.obj
 0001:00023690       ??0?$_List_const_iterator@V?$_List_val@U?$_List_simple_types@U?$pair@_JV?$basic_string@DU?$char_traits@D@std@@V?$allocator@D@2@@std@@@std@@@std@@@std@@@std@@QAE@ABV01@@Z 00424690 f i log4z.obj
 0001:000236f0       ??0?$_List_const_iterator@V?$_List_val@U?$_List_simple_types@U?$pair@_JV?$basic_string@DU?$char_traits@D@std@@V?$allocator@D@2@@std@@@std@@@std@@@std@@@std@@QAE@PAU?$_List_node@U?$pair@_JV?$basic_string@DU?$char_traits@D@std@@V?$allocator@D@2@@std@@@std@@PAX@1@PBV?$_List_val@U?$_List_simple_types@U?$pair@_JV?$basic_string@DU?$char_traits@D@std@@V?$allocator@D@2@@std@@@std@@@std@@@1@@Z 004246f0 f i log4z.obj
 0001:00023750       ??0?$_List_iterator@V?$_List_val@U?$_List_simple_types@U?$pair@_JV?$basic_string@DU?$char_traits@D@std@@V?$allocator@D@2@@std@@@std@@@std@@@std@@@std@@QAE@ABV01@@Z 00424750 f i log4z.obj
 0001:000237b0       ??0?$_List_iterator@V?$_List_val@U?$_List_simple_types@U?$pair@_JV?$basic_string@DU?$char_traits@D@std@@V?$allocator@D@2@@std@@@std@@@std@@@std@@@std@@QAE@PAU?$_List_node@U?$pair@_JV?$basic_string@DU?$char_traits@D@std@@V?$allocator@D@2@@std@@@std@@PAX@1@PBV?$_List_val@U?$_List_simple_types@U?$pair@_JV?$basic_string@DU?$char_traits@D@std@@V?$allocator@D@2@@std@@@std@@@std@@@1@@Z 004247b0 f i log4z.obj
 0001:00023810       ??0?$_List_unchecked_const_iterator@V?$_List_val@U?$_List_simple_types@U?$pair@_JV?$basic_string@DU?$char_traits@D@std@@V?$allocator@D@2@@std@@@std@@@std@@@std@@U_Iterator_base0@2@@std@@QAE@PAU?$_List_node@U?$pair@_JV?$basic_string@DU?$char_traits@D@std@@V?$allocator@D@2@@std@@@std@@PAX@1@PBV?$_List_val@U?$_List_simple_types@U?$pair@_JV?$basic_string@DU?$char_traits@D@std@@V?$allocator@D@2@@std@@@std@@@std@@@1@@Z 00424810 f i log4z.obj
 0001:00023880       ??0?$_List_unchecked_const_iterator@V?$_List_val@U?$_List_simple_types@U?$pair@_JV?$basic_string@DU?$char_traits@D@std@@V?$allocator@D@2@@std@@@std@@@std@@@std@@U_Iterator_base12@2@@std@@QAE@$$QAV01@@Z 00424880 f i log4z.obj
 0001:000238f0       ??0?$_List_unchecked_const_iterator@V?$_List_val@U?$_List_simple_types@U?$pair@_JV?$basic_string@DU?$char_traits@D@std@@V?$allocator@D@2@@std@@@std@@@std@@@std@@U_Iterator_base12@2@@std@@QAE@ABV01@@Z 004248f0 f i log4z.obj
 0001:00023960       ??0?$_List_unchecked_const_iterator@V?$_List_val@U?$_List_simple_types@U?$pair@_JV?$basic_string@DU?$char_traits@D@std@@V?$allocator@D@2@@std@@@std@@@std@@@std@@U_Iterator_base12@2@@std@@QAE@PAU?$_List_node@U?$pair@_JV?$basic_string@DU?$char_traits@D@std@@V?$allocator@D@2@@std@@@std@@PAX@1@PBV?$_List_val@U?$_List_simple_types@U?$pair@_JV?$basic_string@DU?$char_traits@D@std@@V?$allocator@D@2@@std@@@std@@@std@@@1@@Z 00424960 f i log4z.obj
 0001:00023a20       ??0?$_List_unchecked_iterator@V?$_List_val@U?$_List_simple_types@U?$pair@_JV?$basic_string@DU?$char_traits@D@std@@V?$allocator@D@2@@std@@@std@@@std@@@std@@@std@@QAE@PAU?$_List_node@U?$pair@_JV?$basic_string@DU?$char_traits@D@std@@V?$allocator@D@2@@std@@@std@@PAX@1@PBV?$_List_val@U?$_List_simple_types@U?$pair@_JV?$basic_string@DU?$char_traits@D@std@@V?$allocator@D@2@@std@@@std@@@std@@@1@@Z 00424a20 f i log4z.obj
 0001:00023a80       ??0?$_List_val@U?$_List_simple_types@U?$pair@_JV?$basic_string@DU?$char_traits@D@std@@V?$allocator@D@2@@std@@@std@@@std@@@std@@QAE@XZ 00424a80 f i log4z.obj
 0001:00023af0       ??0?$_String_alloc@U?$_String_base_types@DV?$allocator@D@std@@@std@@@std@@QAE@XZ 00424af0 f i log4z.obj
 0001:00023ba0       ??0?$_String_const_iterator@V?$_String_val@U?$_Simple_types@D@std@@@std@@@std@@QAE@$$QAV01@@Z 00424ba0 f i log4z.obj
 0001:00023c10       ??0?$_String_const_iterator@V?$_String_val@U?$_Simple_types@D@std@@@std@@@std@@QAE@ABV01@@Z 00424c10 f i log4z.obj
 0001:00023c80       ??0?$_String_const_iterator@V?$_String_val@U?$_Simple_types@D@std@@@std@@@std@@QAE@PBDPBU_Container_base12@1@@Z 00424c80 f i log4z.obj
 0001:00023d40       ??0?$_String_iterator@V?$_String_val@U?$_Simple_types@D@std@@@std@@@std@@QAE@ABV01@@Z 00424d40 f i log4z.obj
 0001:00023da0       ??0?$_String_iterator@V?$_String_val@U?$_Simple_types@D@std@@@std@@@std@@QAE@PADPBU_Container_base12@1@@Z 00424da0 f i log4z.obj
 0001:00023e00       ??0?$_String_val@U?$_Simple_types@D@std@@@std@@QAE@XZ 00424e00 f i log4z.obj
 0001:00023ec0       ??0?$_Tree@V?$_Tmap_traits@V?$basic_string@DU?$char_traits@D@std@@V?$allocator@D@2@@std@@HU?$less@V?$basic_string@DU?$char_traits@D@std@@V?$allocator@D@2@@std@@@2@V?$allocator@U?$pair@$$CBV?$basic_string@DU?$char_traits@D@std@@V?$allocator@D@2@@std@@H@std@@@2@$0A@@std@@@std@@QAE@ABU?$less@V?$basic_string@DU?$char_traits@D@std@@V?$allocator@D@2@@std@@@1@@Z 00424ec0 f i log4z.obj
 0001:00023f20       ??0?$_Tree@V?$_Tmap_traits@V?$basic_string@DU?$char_traits@D@std@@V?$allocator@D@2@@std@@ULoggerInfo@log4z@zsummer@@U?$less@V?$basic_string@DU?$char_traits@D@std@@V?$allocator@D@2@@std@@@2@V?$allocator@U?$pair@$$CBV?$basic_string@DU?$char_traits@D@std@@V?$allocator@D@2@@std@@ULoggerInfo@log4z@zsummer@@@std@@@2@$0A@@std@@@std@@QAE@ABU?$less@V?$basic_string@DU?$char_traits@D@std@@V?$allocator@D@2@@std@@@1@@Z 00424f20 f i log4z.obj
 0001:00023f80       ??0?$_Tree_comp_alloc@V?$_Tmap_traits@V?$basic_string@DU?$char_traits@D@std@@V?$allocator@D@2@@std@@HU?$less@V?$basic_string@DU?$char_traits@D@std@@V?$allocator@D@2@@std@@@2@V?$allocator@U?$pair@$$CBV?$basic_string@DU?$char_traits@D@std@@V?$allocator@D@2@@std@@H@std@@@2@$0A@@std@@@std@@QAE@ABU?$less@V?$basic_string@DU?$char_traits@D@std@@V?$allocator@D@2@@std@@@1@@Z 00424f80 f i log4z.obj
 0001:00024040       ??0?$_Tree_comp_alloc@V?$_Tmap_traits@V?$basic_string@DU?$char_traits@D@std@@V?$allocator@D@2@@std@@ULoggerInfo@log4z@zsummer@@U?$less@V?$basic_string@DU?$char_traits@D@std@@V?$allocator@D@2@@std@@@2@V?$allocator@U?$pair@$$CBV?$basic_string@DU?$char_traits@D@std@@V?$allocator@D@2@@std@@ULoggerInfo@log4z@zsummer@@@std@@@2@$0A@@std@@@std@@QAE@ABU?$less@V?$basic_string@DU?$char_traits@D@std@@V?$allocator@D@2@@std@@@1@@Z 00425040 f i log4z.obj
 0001:00024100       ??0?$_Tree_const_iterator@V?$_Tree_val@U?$_Tree_simple_types@U?$pair@$$CBV?$basic_string@DU?$char_traits@D@std@@V?$allocator@D@2@@std@@H@std@@@std@@@std@@@std@@QAE@$$QAV01@@Z 00425100 f i log4z.obj
 0001:00024160       ??0?$_Tree_const_iterator@V?$_Tree_val@U?$_Tree_simple_types@U?$pair@$$CBV?$basic_string@DU?$char_traits@D@std@@V?$allocator@D@2@@std@@H@std@@@std@@@std@@@std@@QAE@ABV01@@Z 00425160 f i log4z.obj
 0001:000241c0       ??0?$_Tree_const_iterator@V?$_Tree_val@U?$_Tree_simple_types@U?$pair@$$CBV?$basic_string@DU?$char_traits@D@std@@V?$allocator@D@2@@std@@H@std@@@std@@@std@@@std@@QAE@PAU?$_Tree_node@U?$pair@$$CBV?$basic_string@DU?$char_traits@D@std@@V?$allocator@D@2@@std@@H@std@@PAX@1@PBV?$_Tree_val@U?$_Tree_simple_types@U?$pair@$$CBV?$basic_string@DU?$char_traits@D@std@@V?$allocator@D@2@@std@@H@std@@@std@@@1@@Z 004251c0 f i log4z.obj
 0001:00024220       ??0?$_Tree_const_iterator@V?$_Tree_val@U?$_Tree_simple_types@U?$pair@$$CBV?$basic_string@DU?$char_traits@D@std@@V?$allocator@D@2@@std@@H@std@@@std@@@std@@@std@@QAE@XZ 00425220 f i log4z.obj
 0001:00024280       ??0?$_Tree_const_iterator@V?$_Tree_val@U?$_Tree_simple_types@U?$pair@$$CBV?$basic_string@DU?$char_traits@D@std@@V?$allocator@D@2@@std@@ULoggerInfo@log4z@zsummer@@@std@@@std@@@std@@@std@@QAE@$$QAV01@@Z 00425280 f i log4z.obj
 0001:000242e0       ??0?$_Tree_const_iterator@V?$_Tree_val@U?$_Tree_simple_types@U?$pair@$$CBV?$basic_string@DU?$char_traits@D@std@@V?$allocator@D@2@@std@@ULoggerInfo@log4z@zsummer@@@std@@@std@@@std@@@std@@QAE@ABV01@@Z 004252e0 f i log4z.obj
 0001:00024340       ??0?$_Tree_const_iterator@V?$_Tree_val@U?$_Tree_simple_types@U?$pair@$$CBV?$basic_string@DU?$char_traits@D@std@@V?$allocator@D@2@@std@@ULoggerInfo@log4z@zsummer@@@std@@@std@@@std@@@std@@QAE@PAU?$_Tree_node@U?$pair@$$CBV?$basic_string@DU?$char_traits@D@std@@V?$allocator@D@2@@std@@ULoggerInfo@log4z@zsummer@@@std@@PAX@1@PBV?$_Tree_val@U?$_Tree_simple_types@U?$pair@$$CBV?$basic_string@DU?$char_traits@D@std@@V?$allocator@D@2@@std@@ULoggerInfo@log4z@zsummer@@@std@@@std@@@1@@Z 00425340 f i log4z.obj
 0001:000243a0       ??0?$_Tree_iterator@V?$_Tree_val@U?$_Tree_simple_types@U?$pair@$$CBV?$basic_string@DU?$char_traits@D@std@@V?$allocator@D@2@@std@@H@std@@@std@@@std@@@std@@QAE@$$QAV01@@Z 004253a0 f i log4z.obj
 0001:00024400       ??0?$_Tree_iterator@V?$_Tree_val@U?$_Tree_simple_types@U?$pair@$$CBV?$basic_string@DU?$char_traits@D@std@@V?$allocator@D@2@@std@@H@std@@@std@@@std@@@std@@QAE@ABV01@@Z 00425400 f i log4z.obj
 0001:00024460       ??0?$_Tree_iterator@V?$_Tree_val@U?$_Tree_simple_types@U?$pair@$$CBV?$basic_string@DU?$char_traits@D@std@@V?$allocator@D@2@@std@@H@std@@@std@@@std@@@std@@QAE@PAU?$_Tree_node@U?$pair@$$CBV?$basic_string@DU?$char_traits@D@std@@V?$allocator@D@2@@std@@H@std@@PAX@1@PBV?$_Tree_val@U?$_Tree_simple_types@U?$pair@$$CBV?$basic_string@DU?$char_traits@D@std@@V?$allocator@D@2@@std@@H@std@@@std@@@1@@Z 00425460 f i log4z.obj
 0001:000244c0       ??0?$_Tree_iterator@V?$_Tree_val@U?$_Tree_simple_types@U?$pair@$$CBV?$basic_string@DU?$char_traits@D@std@@V?$allocator@D@2@@std@@H@std@@@std@@@std@@@std@@QAE@XZ 004254c0 f i log4z.obj
 0001:00024520       ??0?$_Tree_iterator@V?$_Tree_val@U?$_Tree_simple_types@U?$pair@$$CBV?$basic_string@DU?$char_traits@D@std@@V?$allocator@D@2@@std@@ULoggerInfo@log4z@zsummer@@@std@@@std@@@std@@@std@@QAE@$$QAV01@@Z 00425520 f i log4z.obj
 0001:00024580       ??0?$_Tree_iterator@V?$_Tree_val@U?$_Tree_simple_types@U?$pair@$$CBV?$basic_string@DU?$char_traits@D@std@@V?$allocator@D@2@@std@@ULoggerInfo@log4z@zsummer@@@std@@@std@@@std@@@std@@QAE@ABV01@@Z 00425580 f i log4z.obj
 0001:000245e0       ??0?$_Tree_iterator@V?$_Tree_val@U?$_Tree_simple_types@U?$pair@$$CBV?$basic_string@DU?$char_traits@D@std@@V?$allocator@D@2@@std@@ULoggerInfo@log4z@zsummer@@@std@@@std@@@std@@@std@@QAE@PAU?$_Tree_node@U?$pair@$$CBV?$basic_string@DU?$char_traits@D@std@@V?$allocator@D@2@@std@@ULoggerInfo@log4z@zsummer@@@std@@PAX@1@PBV?$_Tree_val@U?$_Tree_simple_types@U?$pair@$$CBV?$basic_string@DU?$char_traits@D@std@@V?$allocator@D@2@@std@@ULoggerInfo@log4z@zsummer@@@std@@@std@@@1@@Z 004255e0 f i log4z.obj
 0001:00024640       ??0?$_Tree_unchecked_const_iterator@V?$_Tree_val@U?$_Tree_simple_types@U?$pair@$$CBV?$basic_string@DU?$char_traits@D@std@@V?$allocator@D@2@@std@@H@std@@@std@@@std@@U_Iterator_base12@2@@std@@QAE@$$QAV01@@Z 00425640 f i log4z.obj
 0001:000246b0       ??0?$_Tree_unchecked_const_iterator@V?$_Tree_val@U?$_Tree_simple_types@U?$pair@$$CBV?$basic_string@DU?$char_traits@D@std@@V?$allocator@D@2@@std@@H@std@@@std@@@std@@U_Iterator_base12@2@@std@@QAE@ABV01@@Z 004256b0 f i log4z.obj
 0001:00024720       ??0?$_Tree_unchecked_const_iterator@V?$_Tree_val@U?$_Tree_simple_types@U?$pair@$$CBV?$basic_string@DU?$char_traits@D@std@@V?$allocator@D@2@@std@@H@std@@@std@@@std@@U_Iterator_base12@2@@std@@QAE@PAU?$_Tree_node@U?$pair@$$CBV?$basic_string@DU?$char_traits@D@std@@V?$allocator@D@2@@std@@H@std@@PAX@1@PBV?$_Tree_val@U?$_Tree_simple_types@U?$pair@$$CBV?$basic_string@DU?$char_traits@D@std@@V?$allocator@D@2@@std@@H@std@@@std@@@1@@Z 00425720 f i log4z.obj
 0001:000247e0       ??0?$_Tree_unchecked_const_iterator@V?$_Tree_val@U?$_Tree_simple_types@U?$pair@$$CBV?$basic_string@DU?$char_traits@D@std@@V?$allocator@D@2@@std@@H@std@@@std@@@std@@U_Iterator_base12@2@@std@@QAE@XZ 004257e0 f i log4z.obj
 0001:00024840       ??0?$_Tree_unchecked_const_iterator@V?$_Tree_val@U?$_Tree_simple_types@U?$pair@$$CBV?$basic_string@DU?$char_traits@D@std@@V?$allocator@D@2@@std@@ULoggerInfo@log4z@zsummer@@@std@@@std@@@std@@U_Iterator_base12@2@@std@@QAE@$$QAV01@@Z 00425840 f i log4z.obj
 0001:000248b0       ??0?$_Tree_unchecked_const_iterator@V?$_Tree_val@U?$_Tree_simple_types@U?$pair@$$CBV?$basic_string@DU?$char_traits@D@std@@V?$allocator@D@2@@std@@ULoggerInfo@log4z@zsummer@@@std@@@std@@@std@@U_Iterator_base12@2@@std@@QAE@ABV01@@Z 004258b0 f i log4z.obj
 0001:00024920       ??0?$_Tree_unchecked_const_iterator@V?$_Tree_val@U?$_Tree_simple_types@U?$pair@$$CBV?$basic_string@DU?$char_traits@D@std@@V?$allocator@D@2@@std@@ULoggerInfo@log4z@zsummer@@@std@@@std@@@std@@U_Iterator_base12@2@@std@@QAE@PAU?$_Tree_node@U?$pair@$$CBV?$basic_string@DU?$char_traits@D@std@@V?$allocator@D@2@@std@@ULoggerInfo@log4z@zsummer@@@std@@PAX@1@PBV?$_Tree_val@U?$_Tree_simple_types@U?$pair@$$CBV?$basic_string@DU?$char_traits@D@std@@V?$allocator@D@2@@std@@ULoggerInfo@log4z@zsummer@@@std@@@std@@@1@@Z 00425920 f i log4z.obj
 0001:000249e0       ??0?$_Tree_val@U?$_Tree_simple_types@U?$pair@$$CBV?$basic_string@DU?$char_traits@D@std@@V?$allocator@D@2@@std@@H@std@@@std@@@std@@QAE@XZ 004259e0 f i log4z.obj
 0001:00024a50       ??0?$_Tree_val@U?$_Tree_simple_types@U?$pair@$$CBV?$basic_string@DU?$char_traits@D@std@@V?$allocator@D@2@@std@@ULoggerInfo@log4z@zsummer@@@std@@@std@@@std@@QAE@XZ 00425a50 f i log4z.obj
 0001:00024ac0       ??0?$_Vector_alloc@U?$_Vec_base_types@PAULogData@log4z@zsummer@@V?$allocator@PAULogData@log4z@zsummer@@@std@@@std@@@std@@QAE@XZ 00425ac0 f i log4z.obj
 0001:00024b70       ??0?$_Vector_const_iterator@V?$_Vector_val@U?$_Simple_types@PAULogData@log4z@zsummer@@@std@@@std@@@std@@QAE@ABV01@@Z 00425b70 f i log4z.obj
 0001:00024be0       ??0?$_Vector_const_iterator@V?$_Vector_val@U?$_Simple_types@PAULogData@log4z@zsummer@@@std@@@std@@@std@@QAE@PAPAULogData@log4z@zsummer@@PBU_Container_base12@1@@Z 00425be0 f i log4z.obj
 0001:00024ca0       ??0?$_Vector_iterator@V?$_Vector_val@U?$_Simple_types@PAULogData@log4z@zsummer@@@std@@@std@@@std@@QAE@ABV01@@Z 00425ca0 f i log4z.obj
 0001:00024d00       ??0?$_Vector_iterator@V?$_Vector_val@U?$_Simple_types@PAULogData@log4z@zsummer@@@std@@@std@@@std@@QAE@PAPAULogData@log4z@zsummer@@PBU_Container_base12@1@@Z 00425d00 f i log4z.obj
 0001:00024d60       ??0?$_Vector_val@U?$_Simple_types@PAULogData@log4z@zsummer@@@std@@@std@@QAE@XZ 00425d60 f i log4z.obj
 0001:00024de0       ??0?$_Wrap_alloc@V?$allocator@D@std@@@std@@QAE@$$QAU01@@Z 00425de0 f i log4z.obj
 0001:00024e50       ??0?$_Wrap_alloc@V?$allocator@D@std@@@std@@QAE@XZ 00425e50 f i log4z.obj
 0001:00024eb0       ??0?$_Wrap_alloc@V?$allocator@PAULogData@log4z@zsummer@@@std@@@std@@QAE@XZ 00425eb0 f i log4z.obj
 0001:00024f10       ??0?$_Wrap_alloc@V?$allocator@U?$_List_node@U?$pair@_JV?$basic_string@DU?$char_traits@D@std@@V?$allocator@D@2@@std@@@std@@PAX@std@@@std@@@std@@QAE@$$QAU01@@Z 00425f10 f i log4z.obj
 0001:00024f80       ??0?$_Wrap_alloc@V?$allocator@U?$_List_node@U?$pair@_JV?$basic_string@DU?$char_traits@D@std@@V?$allocator@D@2@@std@@@std@@PAX@std@@@std@@@std@@QAE@XZ 00425f80 f i log4z.obj
 0001:00024fe0       ??0?$_Wrap_alloc@V?$allocator@U?$_Tree_node@U?$pair@$$CBV?$basic_string@DU?$char_traits@D@std@@V?$allocator@D@2@@std@@H@std@@PAX@std@@@std@@@std@@QAE@XZ 00425fe0 f i log4z.obj
 0001:00025040       ??0?$_Wrap_alloc@V?$allocator@U?$_Tree_node@U?$pair@$$CBV?$basic_string@DU?$char_traits@D@std@@V?$allocator@D@2@@std@@ULoggerInfo@log4z@zsummer@@@std@@PAX@std@@@std@@@std@@QAE@XZ 00426040 f i log4z.obj
 0001:000250a0       ??0?$allocator@D@std@@QAE@ABV01@@Z 004260a0 f i log4z.obj
 0001:000250e0       ??0?$allocator@D@std@@QAE@XZ 004260e0 f i log4z.obj
 0001:00025120       ??0?$allocator@PAULogData@log4z@zsummer@@@std@@QAE@XZ 00426120 f i log4z.obj
 0001:00025160       ??0?$allocator@U?$_List_node@U?$pair@_JV?$basic_string@DU?$char_traits@D@std@@V?$allocator@D@2@@std@@@std@@PAX@std@@@std@@QAE@ABV01@@Z 00426160 f i log4z.obj
 0001:000251a0       ??0?$allocator@U?$_List_node@U?$pair@_JV?$basic_string@DU?$char_traits@D@std@@V?$allocator@D@2@@std@@@std@@PAX@std@@@std@@QAE@XZ 004261a0 f i log4z.obj
 0001:000251e0       ??0?$allocator@U?$_Tree_node@U?$pair@$$CBV?$basic_string@DU?$char_traits@D@std@@V?$allocator@D@2@@std@@H@std@@PAX@std@@@std@@QAE@XZ 004261e0 f i log4z.obj
 0001:00025220       ??0?$allocator@U?$_Tree_node@U?$pair@$$CBV?$basic_string@DU?$char_traits@D@std@@V?$allocator@D@2@@std@@ULoggerInfo@log4z@zsummer@@@std@@PAX@std@@@std@@QAE@XZ 00426220 f i log4z.obj
 0001:00025260       ??0?$basic_string@DU?$char_traits@D@std@@V?$allocator@D@2@@std@@QAE@$$QAV01@@Z 00426260 f i log4z.obj
 0001:00025330       ??0?$basic_string@DU?$char_traits@D@std@@V?$allocator@D@2@@std@@QAE@ABV01@@Z 00426330 f i log4z.obj
 0001:00025420       ??0?$basic_string@DU?$char_traits@D@std@@V?$allocator@D@2@@std@@QAE@ABV01@IIABV?$allocator@D@1@@Z 00426420 f i log4z.obj
 0001:000254f0       ??0?$basic_string@DU?$char_traits@D@std@@V?$allocator@D@2@@std@@QAE@PBD@Z 004264f0 f i log4z.obj
 0001:000255b0       ??0?$basic_string@DU?$char_traits@D@std@@V?$allocator@D@2@@std@@QAE@PBDI@Z 004265b0 f i log4z.obj
 0001:00025670       ??0?$basic_string@DU?$char_traits@D@std@@V?$allocator@D@2@@std@@QAE@XZ 00426670 f i log4z.obj
 0001:00025710       ??0?$deque@PAULogData@log4z@zsummer@@V?$allocator@PAULogData@log4z@zsummer@@@std@@@std@@QAE@XZ 00426710 f i log4z.obj
 0001:00025770       ??0?$list@U?$pair@_JV?$basic_string@DU?$char_traits@D@std@@V?$allocator@D@2@@std@@@std@@V?$allocator@U?$pair@_JV?$basic_string@DU?$char_traits@D@std@@V?$allocator@D@2@@std@@@std@@@2@@std@@QAE@$$QAV01@@Z 00426770 f i log4z.obj
 0001:00025840       ??0?$list@U?$pair@_JV?$basic_string@DU?$char_traits@D@std@@V?$allocator@D@2@@std@@@std@@V?$allocator@U?$pair@_JV?$basic_string@DU?$char_traits@D@std@@V?$allocator@D@2@@std@@@std@@@2@@std@@QAE@ABV01@@Z 00426840 f i log4z.obj
 0001:00025a40       ??0?$list@U?$pair@_JV?$basic_string@DU?$char_traits@D@std@@V?$allocator@D@2@@std@@@std@@V?$allocator@U?$pair@_JV?$basic_string@DU?$char_traits@D@std@@V?$allocator@D@2@@std@@@std@@@2@@std@@QAE@XZ 00426a40 f i log4z.obj
 0001:00025aa0       ??0?$map@V?$basic_string@DU?$char_traits@D@std@@V?$allocator@D@2@@std@@HU?$less@V?$basic_string@DU?$char_traits@D@std@@V?$allocator@D@2@@std@@@2@V?$allocator@U?$pair@$$CBV?$basic_string@DU?$char_traits@D@std@@V?$allocator@D@2@@std@@H@std@@@2@@std@@QAE@XZ 00426aa0 f i log4z.obj
 0001:00025b00       ??0?$map@V?$basic_string@DU?$char_traits@D@std@@V?$allocator@D@2@@std@@ULoggerInfo@log4z@zsummer@@U?$less@V?$basic_string@DU?$char_traits@D@std@@V?$allocator@D@2@@std@@@2@V?$allocator@U?$pair@$$CBV?$basic_string@DU?$char_traits@D@std@@V?$allocator@D@2@@std@@ULoggerInfo@log4z@zsummer@@@std@@@2@@std@@QAE@XZ 00426b00 f i log4z.obj
 0001:00025b60       ??0?$pair@_JV?$basic_string@DU?$char_traits@D@std@@V?$allocator@D@2@@std@@@std@@QAE@$$QAU01@@Z 00426b60 f i log4z.obj
 0001:00025be0       ??0?$pair@_JV?$basic_string@DU?$char_traits@D@std@@V?$allocator@D@2@@std@@@std@@QAE@ABU01@@Z 00426be0 f i log4z.obj
 0001:00025c60       ??0?$tuple@$$QAV?$basic_string@DU?$char_traits@D@std@@V?$allocator@D@2@@std@@@std@@QAE@$$QAV01@@Z 00426c60 f i log4z.obj
 0001:00025cd0       ??0?$tuple@$$V@std@@QAE@ABV01@@Z 00426cd0 f i log4z.obj
 0001:00025d10       ??0?$tuple@$$V@std@@QAE@XZ 00426d10 f i log4z.obj
 0001:00025d50       ??0?$tuple@ABV?$basic_string@DU?$char_traits@D@std@@V?$allocator@D@2@@std@@@std@@QAE@$$QAV01@@Z 00426d50 f i log4z.obj
 0001:00025dc0       ??0?$vector@PAULogData@log4z@zsummer@@V?$allocator@PAULogData@log4z@zsummer@@@std@@@std@@QAE@XZ 00426dc0 f i log4z.obj
 0001:00025e50       ??0AutoLock@log4z@zsummer@@QAE@AAVLockHelper@12@@Z 00426e50 f i log4z.obj
 0001:00025ec0       ??0ILog4zManager@log4z@zsummer@@QAE@XZ 00426ec0 f i log4z.obj
 0001:00025f10       ??0LockHelper@log4z@zsummer@@QAE@XZ 00426f10 f   log4z.obj
 0001:00025f80       ??0Log4zFileHandler@log4z@zsummer@@QAE@XZ 00426f80 f i log4z.obj
 0001:00025fd0       ??0Log4zStream@log4z@zsummer@@QAE@PADH@Z 00426fd0 f i log4z.obj
 0001:00026040       ??0LogerManager@log4z@zsummer@@QAE@XZ 00427040 f   log4z.obj
 0001:00026450       ??0LoggerInfo@log4z@zsummer@@QAE@$$QAU012@@Z 00427450 f i log4z.obj
 0001:00026640       ??0LoggerInfo@log4z@zsummer@@QAE@ABU012@@Z 00427640 f i log4z.obj
 0001:00026830       ??0LoggerInfo@log4z@zsummer@@QAE@XZ 00427830 f i log4z.obj
 0001:000269e0       ??0SemHelper@log4z@zsummer@@QAE@XZ 004279e0 f   log4z.obj
 0001:00026a30       ??0ThreadHelper@log4z@zsummer@@QAE@XZ 00427a30 f i log4z.obj
 0001:00026a90       ??0_Bxty@?$_String_val@U?$_Simple_types@D@std@@@std@@QAE@XZ 00427a90 f i log4z.obj
 0001:00026ad0       ??0_Container_base12@std@@QAE@XZ 00427ad0 f i log4z.obj
 0001:00026b20       ??0_Container_proxy@std@@QAE@XZ 00427b20 f i log4z.obj
 0001:00026b70       ??0_Iterator_base12@std@@QAE@ABU01@@Z 00427b70 f i log4z.obj
 0001:00026bf0       ??0_Iterator_base12@std@@QAE@XZ 00427bf0 f i log4z.obj
 0001:00026c40       ??1?$_Compressed_pair@U?$_Wrap_alloc@V?$allocator@PAULogData@log4z@zsummer@@@std@@@std@@V?$_Deque_val@U?$_Deque_simple_types@PAULogData@log4z@zsummer@@@std@@@2@$00@std@@QAE@XZ 00427c40 f i log4z.obj
 0001:00026c90       ??1?$_Compressed_pair@U?$_Wrap_alloc@V?$allocator@PAULogData@log4z@zsummer@@@std@@@std@@V?$_Vector_val@U?$_Simple_types@PAULogData@log4z@zsummer@@@std@@@2@$00@std@@QAE@XZ 00427c90 f i log4z.obj
 0001:00026ce0       ??1?$_Compressed_pair@U?$_Wrap_alloc@V?$allocator@U?$_List_node@U?$pair@_JV?$basic_string@DU?$char_traits@D@std@@V?$allocator@D@2@@std@@@std@@PAX@std@@@std@@@std@@V?$_List_val@U?$_List_simple_types@U?$pair@_JV?$basic_string@DU?$char_traits@D@std@@V?$allocator@D@2@@std@@@std@@@std@@@2@$00@std@@QAE@XZ 00427ce0 f i log4z.obj
 0001:00026d30       ??1?$_Compressed_pair@U?$_Wrap_alloc@V?$allocator@U?$_Tree_node@U?$pair@$$CBV?$basic_string@DU?$char_traits@D@std@@V?$allocator@D@2@@std@@H@std@@PAX@std@@@std@@@std@@V?$_Tree_val@U?$_Tree_simple_types@U?$pair@$$CBV?$basic_string@DU?$char_traits@D@std@@V?$allocator@D@2@@std@@H@std@@@std@@@2@$00@std@@QAE@XZ 00427d30 f i log4z.obj
 0001:00026d80       ??1?$_Compressed_pair@U?$_Wrap_alloc@V?$allocator@U?$_Tree_node@U?$pair@$$CBV?$basic_string@DU?$char_traits@D@std@@V?$allocator@D@2@@std@@ULoggerInfo@log4z@zsummer@@@std@@PAX@std@@@std@@@std@@V?$_Tree_val@U?$_Tree_simple_types@U?$pair@$$CBV?$basic_string@DU?$char_traits@D@std@@V?$allocator@D@2@@std@@ULoggerInfo@log4z@zsummer@@@std@@@std@@@2@$00@std@@QAE@XZ 00427d80 f i log4z.obj
 0001:00026dd0       ??1?$_Compressed_pair@U?$less@V?$basic_string@DU?$char_traits@D@std@@V?$allocator@D@2@@std@@@std@@V?$_Compressed_pair@U?$_Wrap_alloc@V?$allocator@U?$_Tree_node@U?$pair@$$CBV?$basic_string@DU?$char_traits@D@std@@V?$allocator@D@2@@std@@H@std@@PAX@std@@@std@@@std@@V?$_Tree_val@U?$_Tree_simple_types@U?$pair@$$CBV?$basic_string@DU?$char_traits@D@std@@V?$allocator@D@2@@std@@H@std@@@std@@@2@$00@2@$00@std@@QAE@XZ 00427dd0 f i log4z.obj
 0001:00026e20       ??1?$_Compressed_pair@U?$less@V?$basic_string@DU?$char_traits@D@std@@V?$allocator@D@2@@std@@@std@@V?$_Compressed_pair@U?$_Wrap_alloc@V?$allocator@U?$_Tree_node@U?$pair@$$CBV?$basic_string@DU?$char_traits@D@std@@V?$allocator@D@2@@std@@ULoggerInfo@log4z@zsummer@@@std@@PAX@std@@@std@@@std@@V?$_Tree_val@U?$_Tree_simple_types@U?$pair@$$CBV?$basic_string@DU?$char_traits@D@std@@V?$allocator@D@2@@std@@ULoggerInfo@log4z@zsummer@@@std@@@std@@@2@$00@2@$00@std@@QAE@XZ 00427e20 f i log4z.obj
 0001:00026e70       ??1?$_Deque_alloc@U?$_Deque_base_types@PAULogData@log4z@zsummer@@V?$allocator@PAULogData@log4z@zsummer@@@std@@@std@@@std@@QAE@XZ 00427e70 f i log4z.obj
 0001:00026f00       ??1?$_Deque_const_iterator@V?$_Deque_val@U?$_Deque_simple_types@PAULogData@log4z@zsummer@@@std@@@std@@@std@@QAE@XZ 00427f00 f i log4z.obj
 0001:00026f50       ??1?$_Deque_iterator@V?$_Deque_val@U?$_Deque_simple_types@PAULogData@log4z@zsummer@@@std@@@std@@@std@@QAE@XZ 00427f50 f i log4z.obj
 0001:00026fa0       ??1?$_Deque_val@U?$_Deque_simple_types@PAULogData@log4z@zsummer@@@std@@@std@@QAE@XZ 00427fa0 f i log4z.obj
 0001:00026ff0       ??1?$_Iterator012@Ubidirectional_iterator_tag@std@@U?$pair@$$CBV?$basic_string@DU?$char_traits@D@std@@V?$allocator@D@2@@std@@H@2@HPBU32@ABU32@U_Iterator_base12@2@@std@@QAE@XZ 00427ff0 f i log4z.obj
 0001:00027040       ??1?$_Iterator012@Ubidirectional_iterator_tag@std@@U?$pair@$$CBV?$basic_string@DU?$char_traits@D@std@@V?$allocator@D@2@@std@@ULoggerInfo@log4z@zsummer@@@2@HPBU32@ABU32@U_Iterator_base12@2@@std@@QAE@XZ 00428040 f i log4z.obj
 0001:00027090       ??1?$_Iterator012@Ubidirectional_iterator_tag@std@@U?$pair@_JV?$basic_string@DU?$char_traits@D@std@@V?$allocator@D@2@@std@@@2@HPBU32@ABU32@U_Iterator_base12@2@@std@@QAE@XZ 00428090 f i log4z.obj
 0001:000270e0       ??1?$_Iterator012@Urandom_access_iterator_tag@std@@DHPBDABDU_Iterator_base12@2@@std@@QAE@XZ 004280e0 f i log4z.obj
 0001:00027130       ??1?$_Iterator012@Urandom_access_iterator_tag@std@@PAULogData@log4z@zsummer@@HPBQAU345@ABQAU345@U_Iterator_base12@2@@std@@QAE@XZ 00428130 f i log4z.obj
 0001:00027180       ??1?$_List_alloc@U?$_List_base_types@U?$pair@_JV?$basic_string@DU?$char_traits@D@std@@V?$allocator@D@2@@std@@@std@@V?$allocator@U?$pair@_JV?$basic_string@DU?$char_traits@D@std@@V?$allocator@D@2@@std@@@std@@@2@@std@@@std@@QAE@XZ 00428180 f i log4z.obj
 0001:00027230       ??1?$_List_buy@U?$pair@_JV?$basic_string@DU?$char_traits@D@std@@V?$allocator@D@2@@std@@@std@@V?$allocator@U?$pair@_JV?$basic_string@DU?$char_traits@D@std@@V?$allocator@D@2@@std@@@std@@@2@@std@@QAE@XZ 00428230 f i log4z.obj
 0001:00027280       ??1?$_List_const_iterator@V?$_List_val@U?$_List_simple_types@U?$pair@_JV?$basic_string@DU?$char_traits@D@std@@V?$allocator@D@2@@std@@@std@@@std@@@std@@@std@@QAE@XZ 00428280 f i log4z.obj
 0001:000272d0       ??1?$_List_iterator@V?$_List_val@U?$_List_simple_types@U?$pair@_JV?$basic_string@DU?$char_traits@D@std@@V?$allocator@D@2@@std@@@std@@@std@@@std@@@std@@QAE@XZ 004282d0 f i log4z.obj
 0001:00027320       ??1?$_List_unchecked_const_iterator@V?$_List_val@U?$_List_simple_types@U?$pair@_JV?$basic_string@DU?$char_traits@D@std@@V?$allocator@D@2@@std@@@std@@@std@@@std@@U_Iterator_base12@2@@std@@QAE@XZ 00428320 f i log4z.obj
 0001:00027370       ??1?$_List_val@U?$_List_simple_types@U?$pair@_JV?$basic_string@DU?$char_traits@D@std@@V?$allocator@D@2@@std@@@std@@@std@@@std@@QAE@XZ 00428370 f i log4z.obj
 0001:000273c0       ??1?$_String_const_iterator@V?$_String_val@U?$_Simple_types@D@std@@@std@@@std@@QAE@XZ 004283c0 f i log4z.obj
 0001:00027410       ??1?$_String_iterator@V?$_String_val@U?$_Simple_types@D@std@@@std@@@std@@QAE@XZ 00428410 f i log4z.obj
 0001:00027460       ??1?$_Tree@V?$_Tmap_traits@V?$basic_string@DU?$char_traits@D@std@@V?$allocator@D@2@@std@@HU?$less@V?$basic_string@DU?$char_traits@D@std@@V?$allocator@D@2@@std@@@2@V?$allocator@U?$pair@$$CBV?$basic_string@DU?$char_traits@D@std@@V?$allocator@D@2@@std@@H@std@@@2@$0A@@std@@@std@@QAE@XZ 00428460 f i log4z.obj
 0001:000274f0       ??1?$_Tree@V?$_Tmap_traits@V?$basic_string@DU?$char_traits@D@std@@V?$allocator@D@2@@std@@ULoggerInfo@log4z@zsummer@@U?$less@V?$basic_string@DU?$char_traits@D@std@@V?$allocator@D@2@@std@@@2@V?$allocator@U?$pair@$$CBV?$basic_string@DU?$char_traits@D@std@@V?$allocator@D@2@@std@@ULoggerInfo@log4z@zsummer@@@std@@@2@$0A@@std@@@std@@QAE@XZ 004284f0 f i log4z.obj
 0001:00027580       ??1?$_Tree_comp_alloc@V?$_Tmap_traits@V?$basic_string@DU?$char_traits@D@std@@V?$allocator@D@2@@std@@HU?$less@V?$basic_string@DU?$char_traits@D@std@@V?$allocator@D@2@@std@@@2@V?$allocator@U?$pair@$$CBV?$basic_string@DU?$char_traits@D@std@@V?$allocator@D@2@@std@@H@std@@@2@$0A@@std@@@std@@QAE@XZ 00428580 f i log4z.obj
 0001:00027630       ??1?$_Tree_comp_alloc@V?$_Tmap_traits@V?$basic_string@DU?$char_traits@D@std@@V?$allocator@D@2@@std@@ULoggerInfo@log4z@zsummer@@U?$less@V?$basic_string@DU?$char_traits@D@std@@V?$allocator@D@2@@std@@@2@V?$allocator@U?$pair@$$CBV?$basic_string@DU?$char_traits@D@std@@V?$allocator@D@2@@std@@ULoggerInfo@log4z@zsummer@@@std@@@2@$0A@@std@@@std@@QAE@XZ 00428630 f i log4z.obj
 0001:000276e0       ??1?$_Tree_const_iterator@V?$_Tree_val@U?$_Tree_simple_types@U?$pair@$$CBV?$basic_string@DU?$char_traits@D@std@@V?$allocator@D@2@@std@@H@std@@@std@@@std@@@std@@QAE@XZ 004286e0 f i log4z.obj
 0001:00027730       ??1?$_Tree_const_iterator@V?$_Tree_val@U?$_Tree_simple_types@U?$pair@$$CBV?$basic_string@DU?$char_traits@D@std@@V?$allocator@D@2@@std@@ULoggerInfo@log4z@zsummer@@@std@@@std@@@std@@@std@@QAE@XZ 00428730 f i log4z.obj
 0001:00027780       ??1?$_Tree_iterator@V?$_Tree_val@U?$_Tree_simple_types@U?$pair@$$CBV?$basic_string@DU?$char_traits@D@std@@V?$allocator@D@2@@std@@H@std@@@std@@@std@@@std@@QAE@XZ 00428780 f i log4z.obj
 0001:000277d0       ??1?$_Tree_iterator@V?$_Tree_val@U?$_Tree_simple_types@U?$pair@$$CBV?$basic_string@DU?$char_traits@D@std@@V?$allocator@D@2@@std@@ULoggerInfo@log4z@zsummer@@@std@@@std@@@std@@@std@@QAE@XZ 004287d0 f i log4z.obj
 0001:00027820       ??1?$_Tree_unchecked_const_iterator@V?$_Tree_val@U?$_Tree_simple_types@U?$pair@$$CBV?$basic_string@DU?$char_traits@D@std@@V?$allocator@D@2@@std@@H@std@@@std@@@std@@U_Iterator_base12@2@@std@@QAE@XZ 00428820 f i log4z.obj
 0001:00027870       ??1?$_Tree_unchecked_const_iterator@V?$_Tree_val@U?$_Tree_simple_types@U?$pair@$$CBV?$basic_string@DU?$char_traits@D@std@@V?$allocator@D@2@@std@@ULoggerInfo@log4z@zsummer@@@std@@@std@@@std@@U_Iterator_base12@2@@std@@QAE@XZ 00428870 f i log4z.obj
 0001:000278c0       ??1?$_Tree_val@U?$_Tree_simple_types@U?$pair@$$CBV?$basic_string@DU?$char_traits@D@std@@V?$allocator@D@2@@std@@H@std@@@std@@@std@@QAE@XZ 004288c0 f i log4z.obj
 0001:00027910       ??1?$_Tree_val@U?$_Tree_simple_types@U?$pair@$$CBV?$basic_string@DU?$char_traits@D@std@@V?$allocator@D@2@@std@@ULoggerInfo@log4z@zsummer@@@std@@@std@@@std@@QAE@XZ 00428910 f i log4z.obj
 0001:00027960       ??1?$_Vector_alloc@U?$_Vec_base_types@PAULogData@log4z@zsummer@@V?$allocator@PAULogData@log4z@zsummer@@@std@@@std@@@std@@QAE@XZ 00428960 f i log4z.obj
 0001:000279f0       ??1?$_Vector_const_iterator@V?$_Vector_val@U?$_Simple_types@PAULogData@log4z@zsummer@@@std@@@std@@@std@@QAE@XZ 004289f0 f i log4z.obj
 0001:00027a40       ??1?$_Vector_iterator@V?$_Vector_val@U?$_Simple_types@PAULogData@log4z@zsummer@@@std@@@std@@@std@@QAE@XZ 00428a40 f i log4z.obj
 0001:00027a90       ??1?$_Vector_val@U?$_Simple_types@PAULogData@log4z@zsummer@@@std@@@std@@QAE@XZ 00428a90 f i log4z.obj
 0001:00027ae0       ??1?$deque@PAULogData@log4z@zsummer@@V?$allocator@PAULogData@log4z@zsummer@@@std@@@std@@QAE@XZ 00428ae0 f i log4z.obj
 0001:00027b70       ??1?$list@U?$pair@_JV?$basic_string@DU?$char_traits@D@std@@V?$allocator@D@2@@std@@@std@@V?$allocator@U?$pair@_JV?$basic_string@DU?$char_traits@D@std@@V?$allocator@D@2@@std@@@std@@@2@@std@@QAE@XZ 00428b70 f i log4z.obj
 0001:00027c00       ??1?$map@V?$basic_string@DU?$char_traits@D@std@@V?$allocator@D@2@@std@@HU?$less@V?$basic_string@DU?$char_traits@D@std@@V?$allocator@D@2@@std@@@2@V?$allocator@U?$pair@$$CBV?$basic_string@DU?$char_traits@D@std@@V?$allocator@D@2@@std@@H@std@@@2@@std@@QAE@XZ 00428c00 f i log4z.obj
 0001:00027c50       ??1?$map@V?$basic_string@DU?$char_traits@D@std@@V?$allocator@D@2@@std@@ULoggerInfo@log4z@zsummer@@U?$less@V?$basic_string@DU?$char_traits@D@std@@V?$allocator@D@2@@std@@@2@V?$allocator@U?$pair@$$CBV?$basic_string@DU?$char_traits@D@std@@V?$allocator@D@2@@std@@ULoggerInfo@log4z@zsummer@@@std@@@2@@std@@QAE@XZ 00428c50 f i log4z.obj
 0001:00027ca0       ??1?$pair@$$CBV?$basic_string@DU?$char_traits@D@std@@V?$allocator@D@2@@std@@H@std@@QAE@XZ 00428ca0 f i log4z.obj
 0001:00027cf0       ??1?$pair@$$CBV?$basic_string@DU?$char_traits@D@std@@V?$allocator@D@2@@std@@ULoggerInfo@log4z@zsummer@@@std@@QAE@XZ 00428cf0 f i log4z.obj
 0001:00027d50       ??1?$pair@V?$_Tree_iterator@V?$_Tree_val@U?$_Tree_simple_types@U?$pair@$$CBV?$basic_string@DU?$char_traits@D@std@@V?$allocator@D@2@@std@@H@std@@@std@@@std@@@std@@_N@std@@QAE@XZ 00428d50 f i log4z.obj
 0001:00027da0       ??1?$pair@V?$_Tree_iterator@V?$_Tree_val@U?$_Tree_simple_types@U?$pair@$$CBV?$basic_string@DU?$char_traits@D@std@@V?$allocator@D@2@@std@@ULoggerInfo@log4z@zsummer@@@std@@@std@@@std@@@std@@_N@std@@QAE@XZ 00428da0 f i log4z.obj
 0001:00027df0       ??1?$pair@V?$basic_string@DU?$char_traits@D@std@@V?$allocator@D@2@@std@@PBD@std@@QAE@XZ 00428df0 f i log4z.obj
 0001:00027e40       ??1?$pair@V?$basic_string@DU?$char_traits@D@std@@V?$allocator@D@2@@std@@ULoggerInfo@log4z@zsummer@@@std@@QAE@XZ 00428e40 f i log4z.obj
 0001:00027ea0       ??1?$pair@V?$basic_string@DU?$char_traits@D@std@@V?$allocator@D@2@@std@@V12@@std@@QAE@XZ 00428ea0 f i log4z.obj
 0001:00027f00       ??1?$pair@_JV?$basic_string@DU?$char_traits@D@std@@V?$allocator@D@2@@std@@@std@@QAE@XZ 00428f00 f i log4z.obj
 0001:00027f60       ??1?$vector@PAULogData@log4z@zsummer@@V?$allocator@PAULogData@log4z@zsummer@@@std@@@std@@QAE@XZ 00428f60 f i log4z.obj
 0001:00027ff0       ??1AutoLock@log4z@zsummer@@QAE@XZ 00428ff0 f i log4z.obj
 0001:00028080       ??1ILog4zManager@log4z@zsummer@@UAE@XZ 00429080 f i log4z.obj
 0001:000280c0       ??1LockHelper@log4z@zsummer@@UAE@XZ 004290c0 f   log4z.obj
 0001:00028130       ??1Log4zFileHandler@log4z@zsummer@@QAE@XZ 00429130 f i log4z.obj
 0001:000281c0       ??1LogerManager@log4z@zsummer@@UAE@XZ 004291c0 f   log4z.obj
 0001:00028350       ??1LoggerInfo@log4z@zsummer@@QAE@XZ 00429350 f i log4z.obj
 0001:000283e0       ??1SemHelper@log4z@zsummer@@UAE@XZ 004293e0 f   log4z.obj
 0001:00028470       ??1ThreadHelper@log4z@zsummer@@UAE@XZ 00429470 f i log4z.obj
 0001:000284b0       ??1_Iterator_base12@std@@QAE@XZ 004294b0 f i log4z.obj
 0001:000285a0       ??2@YAPAXIPAX@Z            004295a0 f i log4z.obj
 0001:000285e0       ??3@YAXPAX0@Z              004295e0 f i log4z.obj
 0001:00028610       ??4?$_Iterator012@Ubidirectional_iterator_tag@std@@U?$pair@$$CBV?$basic_string@DU?$char_traits@D@std@@V?$allocator@D@2@@std@@H@2@HPBU32@ABU32@U_Iterator_base12@2@@std@@QAEAAU01@$$QAU01@@Z 00429610 f i log4z.obj
 0001:00028670       ??4?$_Iterator012@Ubidirectional_iterator_tag@std@@U?$pair@$$CBV?$basic_string@DU?$char_traits@D@std@@V?$allocator@D@2@@std@@H@2@HPBU32@ABU32@U_Iterator_base12@2@@std@@QAEAAU01@ABU01@@Z 00429670 f i log4z.obj
 0001:000286d0       ??4?$_Tree_const_iterator@V?$_Tree_val@U?$_Tree_simple_types@U?$pair@$$CBV?$basic_string@DU?$char_traits@D@std@@V?$allocator@D@2@@std@@H@std@@@std@@@std@@@std@@QAEAAV01@$$QAV01@@Z 004296d0 f i log4z.obj
 0001:00028730       ??4?$_Tree_const_iterator@V?$_Tree_val@U?$_Tree_simple_types@U?$pair@$$CBV?$basic_string@DU?$char_traits@D@std@@V?$allocator@D@2@@std@@H@std@@@std@@@std@@@std@@QAEAAV01@ABV01@@Z 00429730 f i log4z.obj
 0001:00028790       ??4?$_Tree_iterator@V?$_Tree_val@U?$_Tree_simple_types@U?$pair@$$CBV?$basic_string@DU?$char_traits@D@std@@V?$allocator@D@2@@std@@H@std@@@std@@@std@@@std@@QAEAAV01@$$QAV01@@Z 00429790 f i log4z.obj
 0001:000287f0       ??4?$_Tree_unchecked_const_iterator@V?$_Tree_val@U?$_Tree_simple_types@U?$pair@$$CBV?$basic_string@DU?$char_traits@D@std@@V?$allocator@D@2@@std@@H@std@@@std@@@std@@U_Iterator_base12@2@@std@@QAEAAV01@$$QAV01@@Z 004297f0 f i log4z.obj
 0001:00028860       ??4?$_Tree_unchecked_const_iterator@V?$_Tree_val@U?$_Tree_simple_types@U?$pair@$$CBV?$basic_string@DU?$char_traits@D@std@@V?$allocator@D@2@@std@@H@std@@@std@@@std@@U_Iterator_base12@2@@std@@QAEAAV01@ABV01@@Z 00429860 f i log4z.obj
 0001:000288d0       ??4?$_Wrap_alloc@V?$allocator@D@std@@@std@@QAEAAU01@$$QAU01@@Z 004298d0 f i log4z.obj
 0001:00028930       ??4?$basic_string@DU?$char_traits@D@std@@V?$allocator@D@2@@std@@QAEAAV01@$$QAV01@@Z 00429930 f i log4z.obj
 0001:00028aa0       ??4?$basic_string@DU?$char_traits@D@std@@V?$allocator@D@2@@std@@QAEAAV01@ABV01@@Z 00429aa0 f i log4z.obj
 0001:00028b60       ??4?$basic_string@DU?$char_traits@D@std@@V?$allocator@D@2@@std@@QAEAAV01@PBD@Z 00429b60 f i log4z.obj
 0001:00028bc0       ??4_Iterator_base12@std@@QAEAAU01@ABU01@@Z 00429bc0 f i log4z.obj
 0001:00028d00       ??6Log4zStream@log4z@zsummer@@QAEAAV012@H@Z 00429d00 f i log4z.obj
 0001:00028d60       ??6Log4zStream@log4z@zsummer@@QAEAAV012@PBD@Z 00429d60 f i log4z.obj
 0001:00028dc0       ??6Log4zStream@log4z@zsummer@@QAEAAV012@_N@Z 00429dc0 f i log4z.obj
 0001:00028e60       ??8?$_List_const_iterator@V?$_List_val@U?$_List_simple_types@U?$pair@_JV?$basic_string@DU?$char_traits@D@std@@V?$allocator@D@2@@std@@@std@@@std@@@std@@@std@@QBE_NABV01@@Z 00429e60 f i log4z.obj
 0001:00028fb0       ??8?$_String_const_iterator@V?$_String_val@U?$_Simple_types@D@std@@@std@@@std@@QBE_NABV01@@Z 00429fb0 f i log4z.obj
 0001:00029040       ??8?$_Tree_const_iterator@V?$_Tree_val@U?$_Tree_simple_types@U?$pair@$$CBV?$basic_string@DU?$char_traits@D@std@@V?$allocator@D@2@@std@@H@std@@@std@@@std@@@std@@QBE_NABV01@@Z 0042a040 f i log4z.obj
 0001:00029190       ??8?$_Tree_const_iterator@V?$_Tree_val@U?$_Tree_simple_types@U?$pair@$$CBV?$basic_string@DU?$char_traits@D@std@@V?$allocator@D@2@@std@@ULoggerInfo@log4z@zsummer@@@std@@@std@@@std@@@std@@QBE_NABV01@@Z 0042a190 f i log4z.obj
 0001:000292e0       ??9?$_List_const_iterator@V?$_List_val@U?$_List_simple_types@U?$pair@_JV?$basic_string@DU?$char_traits@D@std@@V?$allocator@D@2@@std@@@std@@@std@@@std@@@std@@QBE_NABV01@@Z 0042a2e0 f i log4z.obj
 0001:00029370       ??9?$_String_const_iterator@V?$_String_val@U?$_Simple_types@D@std@@@std@@@std@@QBE_NABV01@@Z 0042a370 f i log4z.obj
 0001:00029400       ??9?$_Tree_const_iterator@V?$_Tree_val@U?$_Tree_simple_types@U?$pair@$$CBV?$basic_string@DU?$char_traits@D@std@@V?$allocator@D@2@@std@@H@std@@@std@@@std@@@std@@QBE_NABV01@@Z 0042a400 f i log4z.obj
 0001:00029490       ??9?$_Tree_const_iterator@V?$_Tree_val@U?$_Tree_simple_types@U?$pair@$$CBV?$basic_string@DU?$char_traits@D@std@@V?$allocator@D@2@@std@@ULoggerInfo@log4z@zsummer@@@std@@@std@@@std@@@std@@QBE_NABV01@@Z 0042a490 f i log4z.obj
 0001:00029520       ??A?$basic_string@DU?$char_traits@D@std@@V?$allocator@D@2@@std@@QAEAADI@Z 0042a520 f i log4z.obj
 0001:000295c0       ??A?$map@V?$basic_string@DU?$char_traits@D@std@@V?$allocator@D@2@@std@@HU?$less@V?$basic_string@DU?$char_traits@D@std@@V?$allocator@D@2@@std@@@2@V?$allocator@U?$pair@$$CBV?$basic_string@DU?$char_traits@D@std@@V?$allocator@D@2@@std@@H@std@@@2@@std@@QAEAAH$$QAV?$basic_string@DU?$char_traits@D@std@@V?$allocator@D@2@@1@@Z 0042a5c0 f i log4z.obj
 0001:000296c0       ??A?$map@V?$basic_string@DU?$char_traits@D@std@@V?$allocator@D@2@@std@@HU?$less@V?$basic_string@DU?$char_traits@D@std@@V?$allocator@D@2@@std@@@2@V?$allocator@U?$pair@$$CBV?$basic_string@DU?$char_traits@D@std@@V?$allocator@D@2@@std@@H@std@@@2@@std@@QAEAAHABV?$basic_string@DU?$char_traits@D@std@@V?$allocator@D@2@@1@@Z 0042a6c0 f i log4z.obj
 0001:000297b0       ??C?$_Tree_iterator@V?$_Tree_val@U?$_Tree_simple_types@U?$pair@$$CBV?$basic_string@DU?$char_traits@D@std@@V?$allocator@D@2@@std@@H@std@@@std@@@std@@@std@@QBEPAU?$pair@$$CBV?$basic_string@DU?$char_traits@D@std@@V?$allocator@D@2@@std@@H@1@XZ 0042a7b0 f i log4z.obj
 0001:00029810       ??C?$_Tree_iterator@V?$_Tree_val@U?$_Tree_simple_types@U?$pair@$$CBV?$basic_string@DU?$char_traits@D@std@@V?$allocator@D@2@@std@@ULoggerInfo@log4z@zsummer@@@std@@@std@@@std@@@std@@QBEPAU?$pair@$$CBV?$basic_string@DU?$char_traits@D@std@@V?$allocator@D@2@@std@@ULoggerInfo@log4z@zsummer@@@1@XZ 0042a810 f i log4z.obj
 0001:00029870       ??D?$_Deque_const_iterator@V?$_Deque_val@U?$_Deque_simple_types@PAULogData@log4z@zsummer@@@std@@@std@@@std@@QBEABQAULogData@log4z@zsummer@@XZ 0042a870 f i log4z.obj
 0001:000299f0       ??D?$_Deque_iterator@V?$_Deque_val@U?$_Deque_simple_types@PAULogData@log4z@zsummer@@@std@@@std@@@std@@QBEAAPAULogData@log4z@zsummer@@XZ 0042a9f0 f i log4z.obj
 0001:00029a40       ??D?$_List_const_iterator@V?$_List_val@U?$_List_simple_types@U?$pair@_JV?$basic_string@DU?$char_traits@D@std@@V?$allocator@D@2@@std@@@std@@@std@@@std@@@std@@QBEABU?$pair@_JV?$basic_string@DU?$char_traits@D@std@@V?$allocator@D@2@@std@@@1@XZ 0042aa40 f i log4z.obj
 0001:00029b80       ??D?$_List_iterator@V?$_List_val@U?$_List_simple_types@U?$pair@_JV?$basic_string@DU?$char_traits@D@std@@V?$allocator@D@2@@std@@@std@@@std@@@std@@@std@@QBEAAU?$pair@_JV?$basic_string@DU?$char_traits@D@std@@V?$allocator@D@2@@std@@@1@XZ 0042ab80 f i log4z.obj
 0001:00029bd0       ??D?$_String_const_iterator@V?$_String_val@U?$_Simple_types@D@std@@@std@@@std@@QBEABDXZ 0042abd0 f i log4z.obj
 0001:00029d50       ??D?$_String_iterator@V?$_String_val@U?$_Simple_types@D@std@@@std@@@std@@QBEAADXZ 0042ad50 f i log4z.obj
 0001:00029da0       ??D?$_Tree_const_iterator@V?$_Tree_val@U?$_Tree_simple_types@U?$pair@$$CBV?$basic_string@DU?$char_traits@D@std@@V?$allocator@D@2@@std@@H@std@@@std@@@std@@@std@@QBEABU?$pair@$$CBV?$basic_string@DU?$char_traits@D@std@@V?$allocator@D@2@@std@@H@1@XZ 0042ada0 f i log4z.obj
 0001:00029ee0       ??D?$_Tree_const_iterator@V?$_Tree_val@U?$_Tree_simple_types@U?$pair@$$CBV?$basic_string@DU?$char_traits@D@std@@V?$allocator@D@2@@std@@ULoggerInfo@log4z@zsummer@@@std@@@std@@@std@@@std@@QBEABU?$pair@$$CBV?$basic_string@DU?$char_traits@D@std@@V?$allocator@D@2@@std@@ULoggerInfo@log4z@zsummer@@@1@XZ 0042aee0 f i log4z.obj
 0001:0002a020       ??D?$_Tree_iterator@V?$_Tree_val@U?$_Tree_simple_types@U?$pair@$$CBV?$basic_string@DU?$char_traits@D@std@@V?$allocator@D@2@@std@@H@std@@@std@@@std@@@std@@QBEAAU?$pair@$$CBV?$basic_string@DU?$char_traits@D@std@@V?$allocator@D@2@@std@@H@1@XZ 0042b020 f i log4z.obj
 0001:0002a070       ??D?$_Tree_iterator@V?$_Tree_val@U?$_Tree_simple_types@U?$pair@$$CBV?$basic_string@DU?$char_traits@D@std@@V?$allocator@D@2@@std@@ULoggerInfo@log4z@zsummer@@@std@@@std@@@std@@@std@@QBEAAU?$pair@$$CBV?$basic_string@DU?$char_traits@D@std@@V?$allocator@D@2@@std@@ULoggerInfo@log4z@zsummer@@@1@XZ 0042b070 f i log4z.obj
 0001:0002a0c0       ??D?$_Vector_const_iterator@V?$_Vector_val@U?$_Simple_types@PAULogData@log4z@zsummer@@@std@@@std@@@std@@QBEABQAULogData@log4z@zsummer@@XZ 0042b0c0 f i log4z.obj
 0001:0002a1f0       ??D?$_Vector_iterator@V?$_Vector_val@U?$_Simple_types@PAULogData@log4z@zsummer@@@std@@@std@@@std@@QBEAAPAULogData@log4z@zsummer@@XZ 0042b1f0 f i log4z.obj
 0001:0002a240       ??E?$_List_const_iterator@V?$_List_val@U?$_List_simple_types@U?$pair@_JV?$basic_string@DU?$char_traits@D@std@@V?$allocator@D@2@@std@@@std@@@std@@@std@@@std@@QAE?AV01@H@Z 0042b240 f i log4z.obj
 0001:0002a360       ??E?$_List_const_iterator@V?$_List_val@U?$_List_simple_types@U?$pair@_JV?$basic_string@DU?$char_traits@D@std@@V?$allocator@D@2@@std@@@std@@@std@@@std@@@std@@QAEAAV01@XZ 0042b360 f i log4z.obj
 0001:0002a4b0       ??E?$_List_iterator@V?$_List_val@U?$_List_simple_types@U?$pair@_JV?$basic_string@DU?$char_traits@D@std@@V?$allocator@D@2@@std@@@std@@@std@@@std@@@std@@QAEAAV01@XZ 0042b4b0 f i log4z.obj
 0001:0002a510       ??E?$_String_const_iterator@V?$_String_val@U?$_Simple_types@D@std@@@std@@@std@@QAEAAV01@XZ 0042b510 f i log4z.obj
 0001:0002a660       ??E?$_String_iterator@V?$_String_val@U?$_Simple_types@D@std@@@std@@@std@@QAEAAV01@XZ 0042b660 f i log4z.obj
 0001:0002a6c0       ??E?$_Tree_const_iterator@V?$_Tree_val@U?$_Tree_simple_types@U?$pair@$$CBV?$basic_string@DU?$char_traits@D@std@@V?$allocator@D@2@@std@@H@std@@@std@@@std@@@std@@QAE?AV01@H@Z 0042b6c0 f i log4z.obj
 0001:0002a7e0       ??E?$_Tree_const_iterator@V?$_Tree_val@U?$_Tree_simple_types@U?$pair@$$CBV?$basic_string@DU?$char_traits@D@std@@V?$allocator@D@2@@std@@H@std@@@std@@@std@@@std@@QAEAAV01@XZ 0042b7e0 f i log4z.obj
 0001:0002a920       ??E?$_Tree_const_iterator@V?$_Tree_val@U?$_Tree_simple_types@U?$pair@$$CBV?$basic_string@DU?$char_traits@D@std@@V?$allocator@D@2@@std@@ULoggerInfo@log4z@zsummer@@@std@@@std@@@std@@@std@@QAE?AV01@H@Z 0042b920 f i log4z.obj
 0001:0002aa40       ??E?$_Tree_const_iterator@V?$_Tree_val@U?$_Tree_simple_types@U?$pair@$$CBV?$basic_string@DU?$char_traits@D@std@@V?$allocator@D@2@@std@@ULoggerInfo@log4z@zsummer@@@std@@@std@@@std@@@std@@QAEAAV01@XZ 0042ba40 f i log4z.obj
 0001:0002ab80       ??E?$_Tree_iterator@V?$_Tree_val@U?$_Tree_simple_types@U?$pair@$$CBV?$basic_string@DU?$char_traits@D@std@@V?$allocator@D@2@@std@@ULoggerInfo@log4z@zsummer@@@std@@@std@@@std@@@std@@QAEAAV01@XZ 0042bb80 f i log4z.obj
 0001:0002abe0       ??E?$_Tree_unchecked_const_iterator@V?$_Tree_val@U?$_Tree_simple_types@U?$pair@$$CBV?$basic_string@DU?$char_traits@D@std@@V?$allocator@D@2@@std@@H@std@@@std@@@std@@U_Iterator_base12@2@@std@@QAEAAV01@XZ 0042bbe0 f i log4z.obj
 0001:0002ad10       ??E?$_Tree_unchecked_const_iterator@V?$_Tree_val@U?$_Tree_simple_types@U?$pair@$$CBV?$basic_string@DU?$char_traits@D@std@@V?$allocator@D@2@@std@@ULoggerInfo@log4z@zsummer@@@std@@@std@@@std@@U_Iterator_base12@2@@std@@QAEAAV01@XZ 0042bd10 f i log4z.obj
 0001:0002ae40       ??F?$_List_const_iterator@V?$_List_val@U?$_List_simple_types@U?$pair@_JV?$basic_string@DU?$char_traits@D@std@@V?$allocator@D@2@@std@@@std@@@std@@@std@@@std@@QAEAAV01@XZ 0042be40 f i log4z.obj
 0001:0002af90       ??F?$_List_iterator@V?$_List_val@U?$_List_simple_types@U?$pair@_JV?$basic_string@DU?$char_traits@D@std@@V?$allocator@D@2@@std@@@std@@@std@@@std@@@std@@QAEAAV01@XZ 0042bf90 f i log4z.obj
 0001:0002aff0       ??F?$_List_unchecked_const_iterator@V?$_List_val@U?$_List_simple_types@U?$pair@_JV?$basic_string@DU?$char_traits@D@std@@V?$allocator@D@2@@std@@@std@@@std@@@std@@U_Iterator_base0@2@@std@@QAEAAV01@XZ 0042bff0 f i log4z.obj
 0001:0002b060       ??F?$_Tree_const_iterator@V?$_Tree_val@U?$_Tree_simple_types@U?$pair@$$CBV?$basic_string@DU?$char_traits@D@std@@V?$allocator@D@2@@std@@H@std@@@std@@@std@@@std@@QAEAAV01@XZ 0042c060 f i log4z.obj
 0001:0002b240       ??F?$_Tree_const_iterator@V?$_Tree_val@U?$_Tree_simple_types@U?$pair@$$CBV?$basic_string@DU?$char_traits@D@std@@V?$allocator@D@2@@std@@ULoggerInfo@log4z@zsummer@@@std@@@std@@@std@@@std@@QAEAAV01@XZ 0042c240 f i log4z.obj
 0001:0002b420       ??F?$_Tree_iterator@V?$_Tree_val@U?$_Tree_simple_types@U?$pair@$$CBV?$basic_string@DU?$char_traits@D@std@@V?$allocator@D@2@@std@@H@std@@@std@@@std@@@std@@QAEAAV01@XZ 0042c420 f i log4z.obj
 0001:0002b480       ??F?$_Tree_iterator@V?$_Tree_val@U?$_Tree_simple_types@U?$pair@$$CBV?$basic_string@DU?$char_traits@D@std@@V?$allocator@D@2@@std@@ULoggerInfo@log4z@zsummer@@@std@@@std@@@std@@@std@@QAEAAV01@XZ 0042c480 f i log4z.obj
 0001:0002b4e0       ??F?$_Tree_unchecked_const_iterator@V?$_Tree_val@U?$_Tree_simple_types@U?$pair@$$CBV?$basic_string@DU?$char_traits@D@std@@V?$allocator@D@2@@std@@H@std@@@std@@@std@@U_Iterator_base12@2@@std@@QAEAAV01@XZ 0042c4e0 f i log4z.obj
 0001:0002b640       ??F?$_Tree_unchecked_const_iterator@V?$_Tree_val@U?$_Tree_simple_types@U?$pair@$$CBV?$basic_string@DU?$char_traits@D@std@@V?$allocator@D@2@@std@@ULoggerInfo@log4z@zsummer@@@std@@@std@@@std@@U_Iterator_base12@2@@std@@QAEAAV01@XZ 0042c640 f i log4z.obj
 0001:0002b7a0       ??G?$_String_const_iterator@V?$_String_val@U?$_Simple_types@D@std@@@std@@@std@@QBEHABV01@@Z 0042c7a0 f i log4z.obj
 0001:0002b810       ??G?$_String_iterator@V?$_String_val@U?$_Simple_types@D@std@@@std@@@std@@QBEHABV?$_String_const_iterator@V?$_String_val@U?$_Simple_types@D@std@@@std@@@1@@Z 0042c810 f i log4z.obj
 0001:0002b870       ??G?$_Vector_iterator@V?$_Vector_val@U?$_Simple_types@PAULogData@log4z@zsummer@@@std@@@std@@@std@@QBE?AV01@H@Z 0042c870 f i log4z.obj
 0001:0002b990       ??H?$_String_iterator@V?$_String_val@U?$_Simple_types@D@std@@@std@@@std@@QBE?AV01@H@Z 0042c990 f i log4z.obj
 0001:0002bab0       ??M?$_String_const_iterator@V?$_String_val@U?$_Simple_types@D@std@@@std@@@std@@QBE_NABV01@@Z 0042cab0 f i log4z.obj
 0001:0002bb40       ??R?$less@V?$basic_string@DU?$char_traits@D@std@@V?$allocator@D@2@@std@@@std@@QBE_NABV?$basic_string@DU?$char_traits@D@std@@V?$allocator@D@2@@1@0@Z 0042cb40 f i log4z.obj
 0001:0002bba0       ??Y?$_String_const_iterator@V?$_String_val@U?$_Simple_types@D@std@@@std@@@std@@QAEAAV01@H@Z 0042cba0 f i log4z.obj
 0001:0002bd50       ??Y?$_String_iterator@V?$_String_val@U?$_Simple_types@D@std@@@std@@@std@@QAEAAV01@H@Z 0042cd50 f i log4z.obj
 0001:0002bdb0       ??Y?$_Vector_const_iterator@V?$_Vector_val@U?$_Simple_types@PAULogData@log4z@zsummer@@@std@@@std@@@std@@QAEAAV01@H@Z 0042cdb0 f i log4z.obj
 0001:0002bf20       ??Y?$_Vector_iterator@V?$_Vector_val@U?$_Simple_types@PAULogData@log4z@zsummer@@@std@@@std@@@std@@QAEAAV01@H@Z 0042cf20 f i log4z.obj
 0001:0002bf80       ??Y?$basic_string@DU?$char_traits@D@std@@V?$allocator@D@2@@std@@QAEAAV01@PBD@Z 0042cf80 f i log4z.obj
 0001:0002bfe0       ??Z?$_Vector_iterator@V?$_Vector_val@U?$_Simple_types@PAULogData@log4z@zsummer@@@std@@@std@@@std@@QAEAAV01@H@Z 0042cfe0 f i log4z.obj
 0001:0002c038       ??_ELogerManager@log4z@zsummer@@WBA@AEPAXI@Z 0042d038 f i log4z.obj
 0001:0002c050       ??_G?$pair@$$CBV?$basic_string@DU?$char_traits@D@std@@V?$allocator@D@2@@std@@H@std@@QAEPAXI@Z 0042d050 f i log4z.obj
 0001:0002c0c0       ??_G?$pair@$$CBV?$basic_string@DU?$char_traits@D@std@@V?$allocator@D@2@@std@@ULoggerInfo@log4z@zsummer@@@std@@QAEPAXI@Z 0042d0c0 f i log4z.obj
 0001:0002c140       ??_G?$pair@_JV?$basic_string@DU?$char_traits@D@std@@V?$allocator@D@2@@std@@@std@@QAEPAXI@Z 0042d140 f i log4z.obj
 0001:0002c1b0       ??_EILog4zManager@log4z@zsummer@@UAEPAXI@Z 0042d1b0 f i log4z.obj
 0001:0002c1b0       ??_GILog4zManager@log4z@zsummer@@UAEPAXI@Z 0042d1b0 f i log4z.obj
 0001:0002c220       ??_GLockHelper@log4z@zsummer@@UAEPAXI@Z 0042d220 f i log4z.obj
 0001:0002c220       ??_ELockHelper@log4z@zsummer@@UAEPAXI@Z 0042d220 f i log4z.obj
 0001:0002c290       ??_ELogerManager@log4z@zsummer@@UAEPAXI@Z 0042d290 f i log4z.obj
 0001:0002c290       ??_GLogerManager@log4z@zsummer@@UAEPAXI@Z 0042d290 f i log4z.obj
 0001:0002c310       ??_ESemHelper@log4z@zsummer@@UAEPAXI@Z 0042d310 f i log4z.obj
 0001:0002c310       ??_GSemHelper@log4z@zsummer@@UAEPAXI@Z 0042d310 f i log4z.obj
 0001:0002c380       ??_GThreadHelper@log4z@zsummer@@UAEPAXI@Z 0042d380 f i log4z.obj
 0001:0002c380       ??_EThreadHelper@log4z@zsummer@@UAEPAXI@Z 0042d380 f i log4z.obj
 0001:0002c3f0       ?_Adopt@_Iterator_base0@std@@QAEXPBX@Z 0042d3f0 f i log4z.obj
 0001:0002c430       ?_Adopt@_Iterator_base12@std@@QAEXPBU_Container_base12@2@@Z 0042d430 f i log4z.obj
 0001:0002c5e0       ?_Alloc_proxy@?$_Deque_alloc@U?$_Deque_base_types@PAULogData@log4z@zsummer@@V?$allocator@PAULogData@log4z@zsummer@@@std@@@std@@@std@@QAEXXZ 0042d5e0 f i log4z.obj
 0001:0002c6e0       ?_Alloc_proxy@?$_List_alloc@U?$_List_base_types@U?$pair@_JV?$basic_string@DU?$char_traits@D@std@@V?$allocator@D@2@@std@@@std@@V?$allocator@U?$pair@_JV?$basic_string@DU?$char_traits@D@std@@V?$allocator@D@2@@std@@@std@@@2@@std@@@std@@QAEXXZ 0042d6e0 f i log4z.obj
 0001:0002c7e0       ?_Alloc_proxy@?$_String_alloc@U?$_String_base_types@DV?$allocator@D@std@@@std@@@std@@QAEXXZ 0042d7e0 f i log4z.obj
 0001:0002c8e0       ?_Alloc_proxy@?$_Tree_comp_alloc@V?$_Tmap_traits@V?$basic_string@DU?$char_traits@D@std@@V?$allocator@D@2@@std@@HU?$less@V?$basic_string@DU?$char_traits@D@std@@V?$allocator@D@2@@std@@@2@V?$allocator@U?$pair@$$CBV?$basic_string@DU?$char_traits@D@std@@V?$allocator@D@2@@std@@H@std@@@2@$0A@@std@@@std@@QAEXXZ 0042d8e0 f i log4z.obj
 0001:0002c9e0       ?_Alloc_proxy@?$_Tree_comp_alloc@V?$_Tmap_traits@V?$basic_string@DU?$char_traits@D@std@@V?$allocator@D@2@@std@@ULoggerInfo@log4z@zsummer@@U?$less@V?$basic_string@DU?$char_traits@D@std@@V?$allocator@D@2@@std@@@2@V?$allocator@U?$pair@$$CBV?$basic_string@DU?$char_traits@D@std@@V?$allocator@D@2@@std@@ULoggerInfo@log4z@zsummer@@@std@@@2@$0A@@std@@@std@@QAEXXZ 0042d9e0 f i log4z.obj
 0001:0002cae0       ?_Alloc_proxy@?$_Vector_alloc@U?$_Vec_base_types@PAULogData@log4z@zsummer@@V?$allocator@PAULogData@log4z@zsummer@@@std@@@std@@@std@@QAEXXZ 0042dae0 f i log4z.obj
 0001:0002cbe0       ?_Allocate@std@@YAPAXII_N@Z 0042dbe0 f i log4z.obj
 0001:0002ce40       ?_Assign_rv@?$basic_string@DU?$char_traits@D@std@@V?$allocator@D@2@@std@@QAEX$$QAV12@@Z 0042de40 f i log4z.obj
 0001:0002cf60       ?_Assign_rv@?$list@U?$pair@_JV?$basic_string@DU?$char_traits@D@std@@V?$allocator@D@2@@std@@@std@@V?$allocator@U?$pair@_JV?$basic_string@DU?$char_traits@D@std@@V?$allocator@D@2@@std@@@std@@@2@@std@@QAEX$$QAV12@@Z 0042df60 f i log4z.obj
 0001:0002d000       ?_Buyheadnode@?$_List_alloc@U?$_List_base_types@U?$pair@_JV?$basic_string@DU?$char_traits@D@std@@V?$allocator@D@2@@std@@@std@@V?$allocator@U?$pair@_JV?$basic_string@DU?$char_traits@D@std@@V?$allocator@D@2@@std@@@std@@@2@@std@@@std@@QAEPAU?$_List_node@U?$pair@_JV?$basic_string@DU?$char_traits@D@std@@V?$allocator@D@2@@std@@@std@@PAX@2@XZ 0042e000 f i log4z.obj
 0001:0002d060       ?_Buyheadnode@?$_Tree_comp_alloc@V?$_Tmap_traits@V?$basic_string@DU?$char_traits@D@std@@V?$allocator@D@2@@std@@HU?$less@V?$basic_string@DU?$char_traits@D@std@@V?$allocator@D@2@@std@@@2@V?$allocator@U?$pair@$$CBV?$basic_string@DU?$char_traits@D@std@@V?$allocator@D@2@@std@@H@std@@@2@$0A@@std@@@std@@QAEPAU?$_Tree_node@U?$pair@$$CBV?$basic_string@DU?$char_traits@D@std@@V?$allocator@D@2@@std@@H@std@@PAX@2@XZ 0042e060 f i log4z.obj
 0001:0002d270       ?_Buyheadnode@?$_Tree_comp_alloc@V?$_Tmap_traits@V?$basic_string@DU?$char_traits@D@std@@V?$allocator@D@2@@std@@ULoggerInfo@log4z@zsummer@@U?$less@V?$basic_string@DU?$char_traits@D@std@@V?$allocator@D@2@@std@@@2@V?$allocator@U?$pair@$$CBV?$basic_string@DU?$char_traits@D@std@@V?$allocator@D@2@@std@@ULoggerInfo@log4z@zsummer@@@std@@@2@$0A@@std@@@std@@QAEPAU?$_Tree_node@U?$pair@$$CBV?$basic_string@DU?$char_traits@D@std@@V?$allocator@D@2@@std@@ULoggerInfo@log4z@zsummer@@@std@@PAX@2@XZ 0042e270 f i log4z.obj
 0001:0002d480       ?_Buynode0@?$_List_alloc@U?$_List_base_types@U?$pair@_JV?$basic_string@DU?$char_traits@D@std@@V?$allocator@D@2@@std@@@std@@V?$allocator@U?$pair@_JV?$basic_string@DU?$char_traits@D@std@@V?$allocator@D@2@@std@@@std@@@2@@std@@@std@@QAEPAU?$_List_node@U?$pair@_JV?$basic_string@DU?$char_traits@D@std@@V?$allocator@D@2@@std@@@std@@PAX@2@PAU32@0@Z 0042e480 f i log4z.obj
 0001:0002d610       ?_Buynode0@?$_Tree_comp_alloc@V?$_Tmap_traits@V?$basic_string@DU?$char_traits@D@std@@V?$allocator@D@2@@std@@HU?$less@V?$basic_string@DU?$char_traits@D@std@@V?$allocator@D@2@@std@@@2@V?$allocator@U?$pair@$$CBV?$basic_string@DU?$char_traits@D@std@@V?$allocator@D@2@@std@@H@std@@@2@$0A@@std@@@std@@QAEPAU?$_Tree_node@U?$pair@$$CBV?$basic_string@DU?$char_traits@D@std@@V?$allocator@D@2@@std@@H@std@@PAX@2@XZ 0042e610 f i log4z.obj
 0001:0002d7d0       ?_Buynode0@?$_Tree_comp_alloc@V?$_Tmap_traits@V?$basic_string@DU?$char_traits@D@std@@V?$allocator@D@2@@std@@ULoggerInfo@log4z@zsummer@@U?$less@V?$basic_string@DU?$char_traits@D@std@@V?$allocator@D@2@@std@@@2@V?$allocator@U?$pair@$$CBV?$basic_string@DU?$char_traits@D@std@@V?$allocator@D@2@@std@@ULoggerInfo@log4z@zsummer@@@std@@@2@$0A@@std@@@std@@QAEPAU?$_Tree_node@U?$pair@$$CBV?$basic_string@DU?$char_traits@D@std@@V?$allocator@D@2@@std@@ULoggerInfo@log4z@zsummer@@@std@@PAX@2@XZ 0042e7d0 f i log4z.obj
 0001:0002d990       ?_Check_offset@?$basic_string@DU?$char_traits@D@std@@V?$allocator@D@2@@std@@QBEXI@Z 0042e990 f i log4z.obj
 0001:0002da00       ?_Check_offset_exclusive@?$basic_string@DU?$char_traits@D@std@@V?$allocator@D@2@@std@@QBEXI@Z 0042ea00 f i log4z.obj
 0001:0002da70       ?_Clamp_suffix_size@?$basic_string@DU?$char_traits@D@std@@V?$allocator@D@2@@std@@QBEIII@Z 0042ea70 f i log4z.obj
 0001:0002daf0       ?_Clrcont@_Iterator_base12@std@@QAEXXZ 0042eaf0 f i log4z.obj
 0001:0002db30       ?_Color@?$_Tree_comp_alloc@V?$_Tmap_traits@V?$basic_string@DU?$char_traits@D@std@@V?$allocator@D@2@@std@@HU?$less@V?$basic_string@DU?$char_traits@D@std@@V?$allocator@D@2@@std@@@2@V?$allocator@U?$pair@$$CBV?$basic_string@DU?$char_traits@D@std@@V?$allocator@D@2@@std@@H@std@@@2@$0A@@std@@@std@@SAAADPAU?$_Tree_node@U?$pair@$$CBV?$basic_string@DU?$char_traits@D@std@@V?$allocator@D@2@@std@@H@std@@PAX@2@@Z 0042eb30 f i log4z.obj
 0001:0002db80       ?_Color@?$_Tree_comp_alloc@V?$_Tmap_traits@V?$basic_string@DU?$char_traits@D@std@@V?$allocator@D@2@@std@@ULoggerInfo@log4z@zsummer@@U?$less@V?$basic_string@DU?$char_traits@D@std@@V?$allocator@D@2@@std@@@2@V?$allocator@U?$pair@$$CBV?$basic_string@DU?$char_traits@D@std@@V?$allocator@D@2@@std@@ULoggerInfo@log4z@zsummer@@@std@@@2@$0A@@std@@@std@@SAAADPAU?$_Tree_node@U?$pair@$$CBV?$basic_string@DU?$char_traits@D@std@@V?$allocator@D@2@@std@@ULoggerInfo@log4z@zsummer@@@std@@PAX@2@@Z 0042eb80 f i log4z.obj
 0001:0002dbd0       ?_Color@?$_Tree_val@U?$_Tree_simple_types@U?$pair@$$CBV?$basic_string@DU?$char_traits@D@std@@V?$allocator@D@2@@std@@H@std@@@std@@@std@@SAAADPAU?$_Tree_node@U?$pair@$$CBV?$basic_string@DU?$char_traits@D@std@@V?$allocator@D@2@@std@@H@std@@PAX@2@@Z 0042ebd0 f i log4z.obj
 0001:0002dc10       ?_Color@?$_Tree_val@U?$_Tree_simple_types@U?$pair@$$CBV?$basic_string@DU?$char_traits@D@std@@V?$allocator@D@2@@std@@ULoggerInfo@log4z@zsummer@@@std@@@std@@@std@@SAAADPAU?$_Tree_node@U?$pair@$$CBV?$basic_string@DU?$char_traits@D@std@@V?$allocator@D@2@@std@@ULoggerInfo@log4z@zsummer@@@std@@PAX@2@@Z 0042ec10 f i log4z.obj
 0001:0002dc50       ?_Compare@?$_Tree@V?$_Tmap_traits@V?$basic_string@DU?$char_traits@D@std@@V?$allocator@D@2@@std@@HU?$less@V?$basic_string@DU?$char_traits@D@std@@V?$allocator@D@2@@std@@@2@V?$allocator@U?$pair@$$CBV?$basic_string@DU?$char_traits@D@std@@V?$allocator@D@2@@std@@H@std@@@2@$0A@@std@@@std@@IBE_NABV?$basic_string@DU?$char_traits@D@std@@V?$allocator@D@2@@2@0@Z 0042ec50 f i log4z.obj
 0001:0002dcd0       ?_Compare@?$_Tree@V?$_Tmap_traits@V?$basic_string@DU?$char_traits@D@std@@V?$allocator@D@2@@std@@ULoggerInfo@log4z@zsummer@@U?$less@V?$basic_string@DU?$char_traits@D@std@@V?$allocator@D@2@@std@@@2@V?$allocator@U?$pair@$$CBV?$basic_string@DU?$char_traits@D@std@@V?$allocator@D@2@@std@@ULoggerInfo@log4z@zsummer@@@std@@@2@$0A@@std@@@std@@IBE_NABV?$basic_string@DU?$char_traits@D@std@@V?$allocator@D@2@@2@0@Z 0042ecd0 f i log4z.obj
 0001:0002dd50       ?_Compat@?$_String_const_iterator@V?$_String_val@U?$_Simple_types@D@std@@@std@@@std@@QBEXABV12@@Z 0042ed50 f i log4z.obj
 0001:0002de60       ?_Construct@?$_Tree_comp_alloc@V?$_Tmap_traits@V?$basic_string@DU?$char_traits@D@std@@V?$allocator@D@2@@std@@HU?$less@V?$basic_string@DU?$char_traits@D@std@@V?$allocator@D@2@@std@@@2@V?$allocator@U?$pair@$$CBV?$basic_string@DU?$char_traits@D@std@@V?$allocator@D@2@@std@@H@std@@@2@$0A@@std@@@std@@QAEXXZ 0042ee60 f i log4z.obj
 0001:0002df50       ?_Construct@?$_Tree_comp_alloc@V?$_Tmap_traits@V?$basic_string@DU?$char_traits@D@std@@V?$allocator@D@2@@std@@ULoggerInfo@log4z@zsummer@@U?$less@V?$basic_string@DU?$char_traits@D@std@@V?$allocator@D@2@@std@@@2@V?$allocator@U?$pair@$$CBV?$basic_string@DU?$char_traits@D@std@@V?$allocator@D@2@@std@@ULoggerInfo@log4z@zsummer@@@std@@@2@$0A@@std@@@std@@QAEXXZ 0042ef50 f i log4z.obj
 0001:0002e040       ?_Copy@?$basic_string@DU?$char_traits@D@std@@V?$allocator@D@2@@std@@QAEXII@Z 0042f040 f i log4z.obj
 0001:0002e300       ?_Copy_alloc@?$_String_alloc@U?$_String_base_types@DV?$allocator@D@std@@@std@@@std@@QAEXABU?$_Wrap_alloc@V?$allocator@D@std@@@2@@Z 0042f300 f i log4z.obj
 0001:0002e3b0       ?_Destroy@?$vector@PAULogData@log4z@zsummer@@V?$allocator@PAULogData@log4z@zsummer@@@std@@@std@@IAEXPAPAULogData@log4z@zsummer@@0@Z 0042f3b0 f i log4z.obj
 0001:0002e420       ?_Destroy_if_not_nil@?$_Tree@V?$_Tmap_traits@V?$basic_string@DU?$char_traits@D@std@@V?$allocator@D@2@@std@@HU?$less@V?$basic_string@DU?$char_traits@D@std@@V?$allocator@D@2@@std@@@2@V?$allocator@U?$pair@$$CBV?$basic_string@DU?$char_traits@D@std@@V?$allocator@D@2@@std@@H@std@@@2@$0A@@std@@@std@@IAEXPAU?$_Tree_node@U?$pair@$$CBV?$basic_string@DU?$char_traits@D@std@@V?$allocator@D@2@@std@@H@std@@PAX@2@@Z 0042f420 f i log4z.obj
 0001:0002e4b0       ?_Destroy_if_not_nil@?$_Tree@V?$_Tmap_traits@V?$basic_string@DU?$char_traits@D@std@@V?$allocator@D@2@@std@@ULoggerInfo@log4z@zsummer@@U?$less@V?$basic_string@DU?$char_traits@D@std@@V?$allocator@D@2@@std@@@2@V?$allocator@U?$pair@$$CBV?$basic_string@DU?$char_traits@D@std@@V?$allocator@D@2@@std@@ULoggerInfo@log4z@zsummer@@@std@@@2@$0A@@std@@@std@@IAEXPAU?$_Tree_node@U?$pair@$$CBV?$basic_string@DU?$char_traits@D@std@@V?$allocator@D@2@@std@@ULoggerInfo@log4z@zsummer@@@std@@PAX@2@@Z 0042f4b0 f i log4z.obj
 0001:0002e540       ?_Erase@?$_Tree@V?$_Tmap_traits@V?$basic_string@DU?$char_traits@D@std@@V?$allocator@D@2@@std@@HU?$less@V?$basic_string@DU?$char_traits@D@std@@V?$allocator@D@2@@std@@@2@V?$allocator@U?$pair@$$CBV?$basic_string@DU?$char_traits@D@std@@V?$allocator@D@2@@std@@H@std@@@2@$0A@@std@@@std@@IAEXPAU?$_Tree_node@U?$pair@$$CBV?$basic_string@DU?$char_traits@D@std@@V?$allocator@D@2@@std@@H@std@@PAX@2@@Z 0042f540 f i log4z.obj
 0001:0002e630       ?_Erase@?$_Tree@V?$_Tmap_traits@V?$basic_string@DU?$char_traits@D@std@@V?$allocator@D@2@@std@@ULoggerInfo@log4z@zsummer@@U?$less@V?$basic_string@DU?$char_traits@D@std@@V?$allocator@D@2@@std@@@2@V?$allocator@U?$pair@$$CBV?$basic_string@DU?$char_traits@D@std@@V?$allocator@D@2@@std@@ULoggerInfo@log4z@zsummer@@@std@@@2@$0A@@std@@@std@@IAEXPAU?$_Tree_node@U?$pair@$$CBV?$basic_string@DU?$char_traits@D@std@@V?$allocator@D@2@@std@@ULoggerInfo@log4z@zsummer@@@std@@PAX@2@@Z 0042f630 f i log4z.obj
 0001:0002e720       ?_Free_proxy@?$_Deque_alloc@U?$_Deque_base_types@PAULogData@log4z@zsummer@@V?$allocator@PAULogData@log4z@zsummer@@@std@@@std@@@std@@QAEXXZ 0042f720 f i log4z.obj
 0001:0002e810       ?_Free_proxy@?$_List_alloc@U?$_List_base_types@U?$pair@_JV?$basic_string@DU?$char_traits@D@std@@V?$allocator@D@2@@std@@@std@@V?$allocator@U?$pair@_JV?$basic_string@DU?$char_traits@D@std@@V?$allocator@D@2@@std@@@std@@@2@@std@@@std@@QAEXXZ 0042f810 f i log4z.obj
 0001:0002e900       ?_Free_proxy@?$_Tree_comp_alloc@V?$_Tmap_traits@V?$basic_string@DU?$char_traits@D@std@@V?$allocator@D@2@@std@@HU?$less@V?$basic_string@DU?$char_traits@D@std@@V?$allocator@D@2@@std@@@2@V?$allocator@U?$pair@$$CBV?$basic_string@DU?$char_traits@D@std@@V?$allocator@D@2@@std@@H@std@@@2@$0A@@std@@@std@@QAEXXZ 0042f900 f i log4z.obj
 0001:0002e9f0       ?_Free_proxy@?$_Tree_comp_alloc@V?$_Tmap_traits@V?$basic_string@DU?$char_traits@D@std@@V?$allocator@D@2@@std@@ULoggerInfo@log4z@zsummer@@U?$less@V?$basic_string@DU?$char_traits@D@std@@V?$allocator@D@2@@std@@@2@V?$allocator@U?$pair@$$CBV?$basic_string@DU?$char_traits@D@std@@V?$allocator@D@2@@std@@ULoggerInfo@log4z@zsummer@@@std@@@2@$0A@@std@@@std@@QAEXXZ 0042f9f0 f i log4z.obj
 0001:0002eae0       ?_Free_proxy@?$_Vector_alloc@U?$_Vec_base_types@PAULogData@log4z@zsummer@@V?$allocator@PAULogData@log4z@zsummer@@@std@@@std@@@std@@QAEXXZ 0042fae0 f i log4z.obj
 0001:0002ebd0       ?_Freeheadnode@?$_List_alloc@U?$_List_base_types@U?$pair@_JV?$basic_string@DU?$char_traits@D@std@@V?$allocator@D@2@@std@@@std@@V?$allocator@U?$pair@_JV?$basic_string@DU?$char_traits@D@std@@V?$allocator@D@2@@std@@@std@@@2@@std@@@std@@QAEXPAU?$_List_node@U?$pair@_JV?$basic_string@DU?$char_traits@D@std@@V?$allocator@D@2@@std@@@std@@PAX@2@@Z 0042fbd0 f i log4z.obj
 0001:0002ec90       ?_Freeheadnode@?$_Tree_comp_alloc@V?$_Tmap_traits@V?$basic_string@DU?$char_traits@D@std@@V?$allocator@D@2@@std@@HU?$less@V?$basic_string@DU?$char_traits@D@std@@V?$allocator@D@2@@std@@@2@V?$allocator@U?$pair@$$CBV?$basic_string@DU?$char_traits@D@std@@V?$allocator@D@2@@std@@H@std@@@2@$0A@@std@@@std@@QAEXPAU?$_Tree_node@U?$pair@$$CBV?$basic_string@DU?$char_traits@D@std@@V?$allocator@D@2@@std@@H@std@@PAX@2@@Z 0042fc90 f i log4z.obj
 0001:0002ed80       ?_Freeheadnode@?$_Tree_comp_alloc@V?$_Tmap_traits@V?$basic_string@DU?$char_traits@D@std@@V?$allocator@D@2@@std@@ULoggerInfo@log4z@zsummer@@U?$less@V?$basic_string@DU?$char_traits@D@std@@V?$allocator@D@2@@std@@@2@V?$allocator@U?$pair@$$CBV?$basic_string@DU?$char_traits@D@std@@V?$allocator@D@2@@std@@ULoggerInfo@log4z@zsummer@@@std@@@2@$0A@@std@@@std@@QAEXPAU?$_Tree_node@U?$pair@$$CBV?$basic_string@DU?$char_traits@D@std@@V?$allocator@D@2@@std@@ULoggerInfo@log4z@zsummer@@@std@@PAX@2@@Z 0042fd80 f i log4z.obj
 0001:0002ee70       ?_Freenode0@?$_Tree_comp_alloc@V?$_Tmap_traits@V?$basic_string@DU?$char_traits@D@std@@V?$allocator@D@2@@std@@HU?$less@V?$basic_string@DU?$char_traits@D@std@@V?$allocator@D@2@@std@@@2@V?$allocator@U?$pair@$$CBV?$basic_string@DU?$char_traits@D@std@@V?$allocator@D@2@@std@@H@std@@@2@$0A@@std@@@std@@QAEXPAU?$_Tree_node@U?$pair@$$CBV?$basic_string@DU?$char_traits@D@std@@V?$allocator@D@2@@std@@H@std@@PAX@2@@Z 0042fe70 f i log4z.obj
 0001:0002ef60       ?_Freenode0@?$_Tree_comp_alloc@V?$_Tmap_traits@V?$basic_string@DU?$char_traits@D@std@@V?$allocator@D@2@@std@@ULoggerInfo@log4z@zsummer@@U?$less@V?$basic_string@DU?$char_traits@D@std@@V?$allocator@D@2@@std@@@2@V?$allocator@U?$pair@$$CBV?$basic_string@DU?$char_traits@D@std@@V?$allocator@D@2@@std@@ULoggerInfo@log4z@zsummer@@@std@@@2@$0A@@std@@@std@@QAEXPAU?$_Tree_node@U?$pair@$$CBV?$basic_string@DU?$char_traits@D@std@@V?$allocator@D@2@@std@@ULoggerInfo@log4z@zsummer@@@std@@PAX@2@@Z 0042ff60 f i log4z.obj
 0001:0002f050       ?_Freenode@?$_List_buy@U?$pair@_JV?$basic_string@DU?$char_traits@D@std@@V?$allocator@D@2@@std@@@std@@V?$allocator@U?$pair@_JV?$basic_string@DU?$char_traits@D@std@@V?$allocator@D@2@@std@@@std@@@2@@std@@QAEXPAU?$_List_node@U?$pair@_JV?$basic_string@DU?$char_traits@D@std@@V?$allocator@D@2@@std@@@std@@PAX@2@@Z 00430050 f i log4z.obj
 0001:0002f140       ?_Get_data@?$_Deque_alloc@U?$_Deque_base_types@PAULogData@log4z@zsummer@@V?$allocator@PAULogData@log4z@zsummer@@@std@@@std@@@std@@QAEAAV?$_Deque_val@U?$_Deque_simple_types@PAULogData@log4z@zsummer@@@std@@@2@XZ 00430140 f i log4z.obj
 0001:0002f190       ?_Get_data@?$_Deque_alloc@U?$_Deque_base_types@PAULogData@log4z@zsummer@@V?$allocator@PAULogData@log4z@zsummer@@@std@@@std@@@std@@QBEABV?$_Deque_val@U?$_Deque_simple_types@PAULogData@log4z@zsummer@@@std@@@2@XZ 00430190 f i log4z.obj
 0001:0002f1e0       ?_Get_data@?$_List_alloc@U?$_List_base_types@U?$pair@_JV?$basic_string@DU?$char_traits@D@std@@V?$allocator@D@2@@std@@@std@@V?$allocator@U?$pair@_JV?$basic_string@DU?$char_traits@D@std@@V?$allocator@D@2@@std@@@std@@@2@@std@@@std@@QAEAAV?$_List_val@U?$_List_simple_types@U?$pair@_JV?$basic_string@DU?$char_traits@D@std@@V?$allocator@D@2@@std@@@std@@@std@@@2@XZ 004301e0 f i log4z.obj
 0001:0002f230       ?_Get_data@?$_List_alloc@U?$_List_base_types@U?$pair@_JV?$basic_string@DU?$char_traits@D@std@@V?$allocator@D@2@@std@@@std@@V?$allocator@U?$pair@_JV?$basic_string@DU?$char_traits@D@std@@V?$allocator@D@2@@std@@@std@@@2@@std@@@std@@QBEABV?$_List_val@U?$_List_simple_types@U?$pair@_JV?$basic_string@DU?$char_traits@D@std@@V?$allocator@D@2@@std@@@std@@@std@@@2@XZ 00430230 f i log4z.obj
 0001:0002f280       ?_Get_data@?$_String_alloc@U?$_String_base_types@DV?$allocator@D@std@@@std@@@std@@QBEABV?$_String_val@U?$_Simple_types@D@std@@@2@XZ 00430280 f i log4z.obj
 0001:0002f2d0       ?_Get_data@?$_Tree_comp_alloc@V?$_Tmap_traits@V?$basic_string@DU?$char_traits@D@std@@V?$allocator@D@2@@std@@HU?$less@V?$basic_string@DU?$char_traits@D@std@@V?$allocator@D@2@@std@@@2@V?$allocator@U?$pair@$$CBV?$basic_string@DU?$char_traits@D@std@@V?$allocator@D@2@@std@@H@std@@@2@$0A@@std@@@std@@QAEAAV?$_Tree_val@U?$_Tree_simple_types@U?$pair@$$CBV?$basic_string@DU?$char_traits@D@std@@V?$allocator@D@2@@std@@H@std@@@std@@@2@XZ 004302d0 f i log4z.obj
 0001:0002f330       ?_Get_data@?$_Tree_comp_alloc@V?$_Tmap_traits@V?$basic_string@DU?$char_traits@D@std@@V?$allocator@D@2@@std@@HU?$less@V?$basic_string@DU?$char_traits@D@std@@V?$allocator@D@2@@std@@@2@V?$allocator@U?$pair@$$CBV?$basic_string@DU?$char_traits@D@std@@V?$allocator@D@2@@std@@H@std@@@2@$0A@@std@@@std@@QBEABV?$_Tree_val@U?$_Tree_simple_types@U?$pair@$$CBV?$basic_string@DU?$char_traits@D@std@@V?$allocator@D@2@@std@@H@std@@@std@@@2@XZ 00430330 f i log4z.obj
 0001:0002f390       ?_Get_data@?$_Tree_comp_alloc@V?$_Tmap_traits@V?$basic_string@DU?$char_traits@D@std@@V?$allocator@D@2@@std@@ULoggerInfo@log4z@zsummer@@U?$less@V?$basic_string@DU?$char_traits@D@std@@V?$allocator@D@2@@std@@@2@V?$allocator@U?$pair@$$CBV?$basic_string@DU?$char_traits@D@std@@V?$allocator@D@2@@std@@ULoggerInfo@log4z@zsummer@@@std@@@2@$0A@@std@@@std@@QAEAAV?$_Tree_val@U?$_Tree_simple_types@U?$pair@$$CBV?$basic_string@DU?$char_traits@D@std@@V?$allocator@D@2@@std@@ULoggerInfo@log4z@zsummer@@@std@@@std@@@2@XZ 00430390 f i log4z.obj
 0001:0002f3f0       ?_Get_data@?$_Tree_comp_alloc@V?$_Tmap_traits@V?$basic_string@DU?$char_traits@D@std@@V?$allocator@D@2@@std@@ULoggerInfo@log4z@zsummer@@U?$less@V?$basic_string@DU?$char_traits@D@std@@V?$allocator@D@2@@std@@@2@V?$allocator@U?$pair@$$CBV?$basic_string@DU?$char_traits@D@std@@V?$allocator@D@2@@std@@ULoggerInfo@log4z@zsummer@@@std@@@2@$0A@@std@@@std@@QBEABV?$_Tree_val@U?$_Tree_simple_types@U?$pair@$$CBV?$basic_string@DU?$char_traits@D@std@@V?$allocator@D@2@@std@@ULoggerInfo@log4z@zsummer@@@std@@@std@@@2@XZ 004303f0 f i log4z.obj
 0001:0002f450       ?_Get_data@?$_Vector_alloc@U?$_Vec_base_types@PAULogData@log4z@zsummer@@V?$allocator@PAULogData@log4z@zsummer@@@std@@@std@@@std@@QAEAAV?$_Vector_val@U?$_Simple_types@PAULogData@log4z@zsummer@@@std@@@2@XZ 00430450 f i log4z.obj
 0001:0002f4a0       ?_Get_data@?$_Vector_alloc@U?$_Vec_base_types@PAULogData@log4z@zsummer@@V?$allocator@PAULogData@log4z@zsummer@@@std@@@std@@@std@@QBEABV?$_Vector_val@U?$_Simple_types@PAULogData@log4z@zsummer@@@std@@@2@XZ 004304a0 f i log4z.obj
 0001:0002f4f0       ?_Get_first@?$_Compressed_pair@U?$_Wrap_alloc@V?$allocator@D@std@@@std@@V?$_String_val@U?$_Simple_types@D@std@@@2@$00@std@@QBEABU?$_Wrap_alloc@V?$allocator@D@std@@@2@XZ 004304f0 f i log4z.obj
 0001:0002f530       ?_Get_first@?$_Compressed_pair@U?$_Wrap_alloc@V?$allocator@PAULogData@log4z@zsummer@@@std@@@std@@V?$_Deque_val@U?$_Deque_simple_types@PAULogData@log4z@zsummer@@@std@@@2@$00@std@@QAEAAU?$_Wrap_alloc@V?$allocator@PAULogData@log4z@zsummer@@@std@@@2@XZ 00430530 f i log4z.obj
 0001:0002f570       ?_Get_first@?$_Compressed_pair@U?$_Wrap_alloc@V?$allocator@PAULogData@log4z@zsummer@@@std@@@std@@V?$_Deque_val@U?$_Deque_simple_types@PAULogData@log4z@zsummer@@@std@@@2@$00@std@@QBEABU?$_Wrap_alloc@V?$allocator@PAULogData@log4z@zsummer@@@std@@@2@XZ 00430570 f i log4z.obj
 0001:0002f5b0       ?_Get_first@?$_Compressed_pair@U?$_Wrap_alloc@V?$allocator@PAULogData@log4z@zsummer@@@std@@@std@@V?$_Vector_val@U?$_Simple_types@PAULogData@log4z@zsummer@@@std@@@2@$00@std@@QAEAAU?$_Wrap_alloc@V?$allocator@PAULogData@log4z@zsummer@@@std@@@2@XZ 004305b0 f i log4z.obj
 0001:0002f5f0       ?_Get_first@?$_Compressed_pair@U?$_Wrap_alloc@V?$allocator@PAULogData@log4z@zsummer@@@std@@@std@@V?$_Vector_val@U?$_Simple_types@PAULogData@log4z@zsummer@@@std@@@2@$00@std@@QBEABU?$_Wrap_alloc@V?$allocator@PAULogData@log4z@zsummer@@@std@@@2@XZ 004305f0 f i log4z.obj
 0001:0002f630       ?_Get_first@?$_Compressed_pair@U?$_Wrap_alloc@V?$allocator@U?$_List_node@U?$pair@_JV?$basic_string@DU?$char_traits@D@std@@V?$allocator@D@2@@std@@@std@@PAX@std@@@std@@@std@@V?$_List_val@U?$_List_simple_types@U?$pair@_JV?$basic_string@DU?$char_traits@D@std@@V?$allocator@D@2@@std@@@std@@@std@@@2@$00@std@@QAEAAU?$_Wrap_alloc@V?$allocator@U?$_List_node@U?$pair@_JV?$basic_string@DU?$char_traits@D@std@@V?$allocator@D@2@@std@@@std@@PAX@std@@@std@@@2@XZ 00430630 f i log4z.obj
 0001:0002f670       ?_Get_first@?$_Compressed_pair@U?$_Wrap_alloc@V?$allocator@U?$_List_node@U?$pair@_JV?$basic_string@DU?$char_traits@D@std@@V?$allocator@D@2@@std@@@std@@PAX@std@@@std@@@std@@V?$_List_val@U?$_List_simple_types@U?$pair@_JV?$basic_string@DU?$char_traits@D@std@@V?$allocator@D@2@@std@@@std@@@std@@@2@$00@std@@QBEABU?$_Wrap_alloc@V?$allocator@U?$_List_node@U?$pair@_JV?$basic_string@DU?$char_traits@D@std@@V?$allocator@D@2@@std@@@std@@PAX@std@@@std@@@2@XZ 00430670 f i log4z.obj
 0001:0002f6b0       ?_Get_first@?$_Compressed_pair@U?$_Wrap_alloc@V?$allocator@U?$_Tree_node@U?$pair@$$CBV?$basic_string@DU?$char_traits@D@std@@V?$allocator@D@2@@std@@H@std@@PAX@std@@@std@@@std@@V?$_Tree_val@U?$_Tree_simple_types@U?$pair@$$CBV?$basic_string@DU?$char_traits@D@std@@V?$allocator@D@2@@std@@H@std@@@std@@@2@$00@std@@QAEAAU?$_Wrap_alloc@V?$allocator@U?$_Tree_node@U?$pair@$$CBV?$basic_string@DU?$char_traits@D@std@@V?$allocator@D@2@@std@@H@std@@PAX@std@@@std@@@2@XZ 004306b0 f i log4z.obj
 0001:0002f6f0       ?_Get_first@?$_Compressed_pair@U?$_Wrap_alloc@V?$allocator@U?$_Tree_node@U?$pair@$$CBV?$basic_string@DU?$char_traits@D@std@@V?$allocator@D@2@@std@@H@std@@PAX@std@@@std@@@std@@V?$_Tree_val@U?$_Tree_simple_types@U?$pair@$$CBV?$basic_string@DU?$char_traits@D@std@@V?$allocator@D@2@@std@@H@std@@@std@@@2@$00@std@@QBEABU?$_Wrap_alloc@V?$allocator@U?$_Tree_node@U?$pair@$$CBV?$basic_string@DU?$char_traits@D@std@@V?$allocator@D@2@@std@@H@std@@PAX@std@@@std@@@2@XZ 004306f0 f i log4z.obj
 0001:0002f730       ?_Get_first@?$_Compressed_pair@U?$_Wrap_alloc@V?$allocator@U?$_Tree_node@U?$pair@$$CBV?$basic_string@DU?$char_traits@D@std@@V?$allocator@D@2@@std@@ULoggerInfo@log4z@zsummer@@@std@@PAX@std@@@std@@@std@@V?$_Tree_val@U?$_Tree_simple_types@U?$pair@$$CBV?$basic_string@DU?$char_traits@D@std@@V?$allocator@D@2@@std@@ULoggerInfo@log4z@zsummer@@@std@@@std@@@2@$00@std@@QAEAAU?$_Wrap_alloc@V?$allocator@U?$_Tree_node@U?$pair@$$CBV?$basic_string@DU?$char_traits@D@std@@V?$allocator@D@2@@std@@ULoggerInfo@log4z@zsummer@@@std@@PAX@std@@@std@@@2@XZ 00430730 f i log4z.obj
 0001:0002f770       ?_Get_first@?$_Compressed_pair@U?$_Wrap_alloc@V?$allocator@U?$_Tree_node@U?$pair@$$CBV?$basic_string@DU?$char_traits@D@std@@V?$allocator@D@2@@std@@ULoggerInfo@log4z@zsummer@@@std@@PAX@std@@@std@@@std@@V?$_Tree_val@U?$_Tree_simple_types@U?$pair@$$CBV?$basic_string@DU?$char_traits@D@std@@V?$allocator@D@2@@std@@ULoggerInfo@log4z@zsummer@@@std@@@std@@@2@$00@std@@QBEABU?$_Wrap_alloc@V?$allocator@U?$_Tree_node@U?$pair@$$CBV?$basic_string@DU?$char_traits@D@std@@V?$allocator@D@2@@std@@ULoggerInfo@log4z@zsummer@@@std@@PAX@std@@@std@@@2@XZ 00430770 f i log4z.obj
 0001:0002f7b0       ?_Get_first@?$_Compressed_pair@U?$less@V?$basic_string@DU?$char_traits@D@std@@V?$allocator@D@2@@std@@@std@@V?$_Compressed_pair@U?$_Wrap_alloc@V?$allocator@U?$_Tree_node@U?$pair@$$CBV?$basic_string@DU?$char_traits@D@std@@V?$allocator@D@2@@std@@H@std@@PAX@std@@@std@@@std@@V?$_Tree_val@U?$_Tree_simple_types@U?$pair@$$CBV?$basic_string@DU?$char_traits@D@std@@V?$allocator@D@2@@std@@H@std@@@std@@@2@$00@2@$00@std@@QAEAAU?$less@V?$basic_string@DU?$char_traits@D@std@@V?$allocator@D@2@@std@@@2@XZ 004307b0 f i log4z.obj
 0001:0002f7f0       ?_Get_first@?$_Compressed_pair@U?$less@V?$basic_string@DU?$char_traits@D@std@@V?$allocator@D@2@@std@@@std@@V?$_Compressed_pair@U?$_Wrap_alloc@V?$allocator@U?$_Tree_node@U?$pair@$$CBV?$basic_string@DU?$char_traits@D@std@@V?$allocator@D@2@@std@@H@std@@PAX@std@@@std@@@std@@V?$_Tree_val@U?$_Tree_simple_types@U?$pair@$$CBV?$basic_string@DU?$char_traits@D@std@@V?$allocator@D@2@@std@@H@std@@@std@@@2@$00@2@$00@std@@QBEABU?$less@V?$basic_string@DU?$char_traits@D@std@@V?$allocator@D@2@@std@@@2@XZ 004307f0 f i log4z.obj
 0001:0002f830       ?_Get_first@?$_Compressed_pair@U?$less@V?$basic_string@DU?$char_traits@D@std@@V?$allocator@D@2@@std@@@std@@V?$_Compressed_pair@U?$_Wrap_alloc@V?$allocator@U?$_Tree_node@U?$pair@$$CBV?$basic_string@DU?$char_traits@D@std@@V?$allocator@D@2@@std@@ULoggerInfo@log4z@zsummer@@@std@@PAX@std@@@std@@@std@@V?$_Tree_val@U?$_Tree_simple_types@U?$pair@$$CBV?$basic_string@DU?$char_traits@D@std@@V?$allocator@D@2@@std@@ULoggerInfo@log4z@zsummer@@@std@@@std@@@2@$00@2@$00@std@@QAEAAU?$less@V?$basic_string@DU?$char_traits@D@std@@V?$allocator@D@2@@std@@@2@XZ 00430830 f i log4z.obj
 0001:0002f870       ?_Get_first@?$_Compressed_pair@U?$less@V?$basic_string@DU?$char_traits@D@std@@V?$allocator@D@2@@std@@@std@@V?$_Compressed_pair@U?$_Wrap_alloc@V?$allocator@U?$_Tree_node@U?$pair@$$CBV?$basic_string@DU?$char_traits@D@std@@V?$allocator@D@2@@std@@ULoggerInfo@log4z@zsummer@@@std@@PAX@std@@@std@@@std@@V?$_Tree_val@U?$_Tree_simple_types@U?$pair@$$CBV?$basic_string@DU?$char_traits@D@std@@V?$allocator@D@2@@std@@ULoggerInfo@log4z@zsummer@@@std@@@std@@@2@$00@2@$00@std@@QBEABU?$less@V?$basic_string@DU?$char_traits@D@std@@V?$allocator@D@2@@std@@@2@XZ 00430870 f i log4z.obj
 0001:0002f8b0       ?_Get_second@?$_Compressed_pair@U?$_Wrap_alloc@V?$allocator@D@std@@@std@@V?$_String_val@U?$_Simple_types@D@std@@@2@$00@std@@QBEABV?$_String_val@U?$_Simple_types@D@std@@@2@XZ 004308b0 f i log4z.obj
 0001:0002f8f0       ?_Get_second@?$_Compressed_pair@U?$_Wrap_alloc@V?$allocator@PAULogData@log4z@zsummer@@@std@@@std@@V?$_Deque_val@U?$_Deque_simple_types@PAULogData@log4z@zsummer@@@std@@@2@$00@std@@QAEAAV?$_Deque_val@U?$_Deque_simple_types@PAULogData@log4z@zsummer@@@std@@@2@XZ 004308f0 f i log4z.obj
 0001:0002f930       ?_Get_second@?$_Compressed_pair@U?$_Wrap_alloc@V?$allocator@PAULogData@log4z@zsummer@@@std@@@std@@V?$_Deque_val@U?$_Deque_simple_types@PAULogData@log4z@zsummer@@@std@@@2@$00@std@@QBEABV?$_Deque_val@U?$_Deque_simple_types@PAULogData@log4z@zsummer@@@std@@@2@XZ 00430930 f i log4z.obj
 0001:0002f970       ?_Get_second@?$_Compressed_pair@U?$_Wrap_alloc@V?$allocator@PAULogData@log4z@zsummer@@@std@@@std@@V?$_Vector_val@U?$_Simple_types@PAULogData@log4z@zsummer@@@std@@@2@$00@std@@QAEAAV?$_Vector_val@U?$_Simple_types@PAULogData@log4z@zsummer@@@std@@@2@XZ 00430970 f i log4z.obj
 0001:0002f9b0       ?_Get_second@?$_Compressed_pair@U?$_Wrap_alloc@V?$allocator@PAULogData@log4z@zsummer@@@std@@@std@@V?$_Vector_val@U?$_Simple_types@PAULogData@log4z@zsummer@@@std@@@2@$00@std@@QBEABV?$_Vector_val@U?$_Simple_types@PAULogData@log4z@zsummer@@@std@@@2@XZ 004309b0 f i log4z.obj
 0001:0002f9f0       ?_Get_second@?$_Compressed_pair@U?$_Wrap_alloc@V?$allocator@U?$_List_node@U?$pair@_JV?$basic_string@DU?$char_traits@D@std@@V?$allocator@D@2@@std@@@std@@PAX@std@@@std@@@std@@V?$_List_val@U?$_List_simple_types@U?$pair@_JV?$basic_string@DU?$char_traits@D@std@@V?$allocator@D@2@@std@@@std@@@std@@@2@$00@std@@QAEAAV?$_List_val@U?$_List_simple_types@U?$pair@_JV?$basic_string@DU?$char_traits@D@std@@V?$allocator@D@2@@std@@@std@@@std@@@2@XZ 004309f0 f i log4z.obj
 0001:0002fa30       ?_Get_second@?$_Compressed_pair@U?$_Wrap_alloc@V?$allocator@U?$_List_node@U?$pair@_JV?$basic_string@DU?$char_traits@D@std@@V?$allocator@D@2@@std@@@std@@PAX@std@@@std@@@std@@V?$_List_val@U?$_List_simple_types@U?$pair@_JV?$basic_string@DU?$char_traits@D@std@@V?$allocator@D@2@@std@@@std@@@std@@@2@$00@std@@QBEABV?$_List_val@U?$_List_simple_types@U?$pair@_JV?$basic_string@DU?$char_traits@D@std@@V?$allocator@D@2@@std@@@std@@@std@@@2@XZ 00430a30 f i log4z.obj
 0001:0002fa70       ?_Get_second@?$_Compressed_pair@U?$_Wrap_alloc@V?$allocator@U?$_Tree_node@U?$pair@$$CBV?$basic_string@DU?$char_traits@D@std@@V?$allocator@D@2@@std@@H@std@@PAX@std@@@std@@@std@@V?$_Tree_val@U?$_Tree_simple_types@U?$pair@$$CBV?$basic_string@DU?$char_traits@D@std@@V?$allocator@D@2@@std@@H@std@@@std@@@2@$00@std@@QAEAAV?$_Tree_val@U?$_Tree_simple_types@U?$pair@$$CBV?$basic_string@DU?$char_traits@D@std@@V?$allocator@D@2@@std@@H@std@@@std@@@2@XZ 00430a70 f i log4z.obj
 0001:0002fab0       ?_Get_second@?$_Compressed_pair@U?$_Wrap_alloc@V?$allocator@U?$_Tree_node@U?$pair@$$CBV?$basic_string@DU?$char_traits@D@std@@V?$allocator@D@2@@std@@H@std@@PAX@std@@@std@@@std@@V?$_Tree_val@U?$_Tree_simple_types@U?$pair@$$CBV?$basic_string@DU?$char_traits@D@std@@V?$allocator@D@2@@std@@H@std@@@std@@@2@$00@std@@QBEABV?$_Tree_val@U?$_Tree_simple_types@U?$pair@$$CBV?$basic_string@DU?$char_traits@D@std@@V?$allocator@D@2@@std@@H@std@@@std@@@2@XZ 00430ab0 f i log4z.obj
 0001:0002faf0       ?_Get_second@?$_Compressed_pair@U?$_Wrap_alloc@V?$allocator@U?$_Tree_node@U?$pair@$$CBV?$basic_string@DU?$char_traits@D@std@@V?$allocator@D@2@@std@@ULoggerInfo@log4z@zsummer@@@std@@PAX@std@@@std@@@std@@V?$_Tree_val@U?$_Tree_simple_types@U?$pair@$$CBV?$basic_string@DU?$char_traits@D@std@@V?$allocator@D@2@@std@@ULoggerInfo@log4z@zsummer@@@std@@@std@@@2@$00@std@@QAEAAV?$_Tree_val@U?$_Tree_simple_types@U?$pair@$$CBV?$basic_string@DU?$char_traits@D@std@@V?$allocator@D@2@@std@@ULoggerInfo@log4z@zsummer@@@std@@@std@@@2@XZ 00430af0 f i log4z.obj
 0001:0002fb30       ?_Get_second@?$_Compressed_pair@U?$_Wrap_alloc@V?$allocator@U?$_Tree_node@U?$pair@$$CBV?$basic_string@DU?$char_traits@D@std@@V?$allocator@D@2@@std@@ULoggerInfo@log4z@zsummer@@@std@@PAX@std@@@std@@@std@@V?$_Tree_val@U?$_Tree_simple_types@U?$pair@$$CBV?$basic_string@DU?$char_traits@D@std@@V?$allocator@D@2@@std@@ULoggerInfo@log4z@zsummer@@@std@@@std@@@2@$00@std@@QBEABV?$_Tree_val@U?$_Tree_simple_types@U?$pair@$$CBV?$basic_string@DU?$char_traits@D@std@@V?$allocator@D@2@@std@@ULoggerInfo@log4z@zsummer@@@std@@@std@@@2@XZ 00430b30 f i log4z.obj
 0001:0002fb70       ?_Get_second@?$_Compressed_pair@U?$less@V?$basic_string@DU?$char_traits@D@std@@V?$allocator@D@2@@std@@@std@@V?$_Compressed_pair@U?$_Wrap_alloc@V?$allocator@U?$_Tree_node@U?$pair@$$CBV?$basic_string@DU?$char_traits@D@std@@V?$allocator@D@2@@std@@H@std@@PAX@std@@@std@@@std@@V?$_Tree_val@U?$_Tree_simple_types@U?$pair@$$CBV?$basic_string@DU?$char_traits@D@std@@V?$allocator@D@2@@std@@H@std@@@std@@@2@$00@2@$00@std@@QAEAAV?$_Compressed_pair@U?$_Wrap_alloc@V?$allocator@U?$_Tree_node@U?$pair@$$CBV?$basic_string@DU?$char_traits@D@std@@V?$allocator@D@2@@std@@H@std@@PAX@std@@@std@@@std@@V?$_Tree_val@U?$_Tree_simple_types@U?$pair@$$CBV?$basic_string@DU?$char_traits@D@std@@V?$allocator@D@2@@std@@H@std@@@std@@@2@$00@2@XZ 00430b70 f i log4z.obj
 0001:0002fbb0       ?_Get_second@?$_Compressed_pair@U?$less@V?$basic_string@DU?$char_traits@D@std@@V?$allocator@D@2@@std@@@std@@V?$_Compressed_pair@U?$_Wrap_alloc@V?$allocator@U?$_Tree_node@U?$pair@$$CBV?$basic_string@DU?$char_traits@D@std@@V?$allocator@D@2@@std@@H@std@@PAX@std@@@std@@@std@@V?$_Tree_val@U?$_Tree_simple_types@U?$pair@$$CBV?$basic_string@DU?$char_traits@D@std@@V?$allocator@D@2@@std@@H@std@@@std@@@2@$00@2@$00@std@@QBEABV?$_Compressed_pair@U?$_Wrap_alloc@V?$allocator@U?$_Tree_node@U?$pair@$$CBV?$basic_string@DU?$char_traits@D@std@@V?$allocator@D@2@@std@@H@std@@PAX@std@@@std@@@std@@V?$_Tree_val@U?$_Tree_simple_types@U?$pair@$$CBV?$basic_string@DU?$char_traits@D@std@@V?$allocator@D@2@@std@@H@std@@@std@@@2@$00@2@XZ 00430bb0 f i log4z.obj
 0001:0002fbf0       ?_Get_second@?$_Compressed_pair@U?$less@V?$basic_string@DU?$char_traits@D@std@@V?$allocator@D@2@@std@@@std@@V?$_Compressed_pair@U?$_Wrap_alloc@V?$allocator@U?$_Tree_node@U?$pair@$$CBV?$basic_string@DU?$char_traits@D@std@@V?$allocator@D@2@@std@@ULoggerInfo@log4z@zsummer@@@std@@PAX@std@@@std@@@std@@V?$_Tree_val@U?$_Tree_simple_types@U?$pair@$$CBV?$basic_string@DU?$char_traits@D@std@@V?$allocator@D@2@@std@@ULoggerInfo@log4z@zsummer@@@std@@@std@@@2@$00@2@$00@std@@QAEAAV?$_Compressed_pair@U?$_Wrap_alloc@V?$allocator@U?$_Tree_node@U?$pair@$$CBV?$basic_string@DU?$char_traits@D@std@@V?$allocator@D@2@@std@@ULoggerInfo@log4z@zsummer@@@std@@PAX@std@@@std@@@std@@V?$_Tree_val@U?$_Tree_simple_types@U?$pair@$$CBV?$basic_string@DU?$char_traits@D@std@@V?$allocator@D@2@@std@@ULoggerInfo@log4z@zsummer@@@std@@@std@@@2@$00@2@XZ 00430bf0 f i log4z.obj
 0001:0002fc30       ?_Get_second@?$_Compressed_pair@U?$less@V?$basic_string@DU?$char_traits@D@std@@V?$allocator@D@2@@std@@@std@@V?$_Compressed_pair@U?$_Wrap_alloc@V?$allocator@U?$_Tree_node@U?$pair@$$CBV?$basic_string@DU?$char_traits@D@std@@V?$allocator@D@2@@std@@ULoggerInfo@log4z@zsummer@@@std@@PAX@std@@@std@@@std@@V?$_Tree_val@U?$_Tree_simple_types@U?$pair@$$CBV?$basic_string@DU?$char_traits@D@std@@V?$allocator@D@2@@std@@ULoggerInfo@log4z@zsummer@@@std@@@std@@@2@$00@2@$00@std@@QBEABV?$_Compressed_pair@U?$_Wrap_alloc@V?$allocator@U?$_Tree_node@U?$pair@$$CBV?$basic_string@DU?$char_traits@D@std@@V?$allocator@D@2@@std@@ULoggerInfo@log4z@zsummer@@@std@@PAX@std@@@std@@@std@@V?$_Tree_val@U?$_Tree_simple_types@U?$pair@$$CBV?$basic_string@DU?$char_traits@D@std@@V?$allocator@D@2@@std@@ULoggerInfo@log4z@zsummer@@@std@@@std@@@2@$00@2@XZ 00430c30 f i log4z.obj
 0001:0002fc70       ?_Getal@?$_Deque_alloc@U?$_Deque_base_types@PAULogData@log4z@zsummer@@V?$allocator@PAULogData@log4z@zsummer@@@std@@@std@@@std@@QAEAAU?$_Wrap_alloc@V?$allocator@PAULogData@log4z@zsummer@@@std@@@2@XZ 00430c70 f i log4z.obj
 0001:0002fcc0       ?_Getal@?$_Deque_alloc@U?$_Deque_base_types@PAULogData@log4z@zsummer@@V?$allocator@PAULogData@log4z@zsummer@@@std@@@std@@@std@@QBEABU?$_Wrap_alloc@V?$allocator@PAULogData@log4z@zsummer@@@std@@@2@XZ 00430cc0 f i log4z.obj
 0001:0002fd10       ?_Getal@?$_List_alloc@U?$_List_base_types@U?$pair@_JV?$basic_string@DU?$char_traits@D@std@@V?$allocator@D@2@@std@@@std@@V?$allocator@U?$pair@_JV?$basic_string@DU?$char_traits@D@std@@V?$allocator@D@2@@std@@@std@@@2@@std@@@std@@QAEAAU?$_Wrap_alloc@V?$allocator@U?$_List_node@U?$pair@_JV?$basic_string@DU?$char_traits@D@std@@V?$allocator@D@2@@std@@@std@@PAX@std@@@std@@@2@XZ 00430d10 f i log4z.obj
 0001:0002fd60       ?_Getal@?$_List_alloc@U?$_List_base_types@U?$pair@_JV?$basic_string@DU?$char_traits@D@std@@V?$allocator@D@2@@std@@@std@@V?$allocator@U?$pair@_JV?$basic_string@DU?$char_traits@D@std@@V?$allocator@D@2@@std@@@std@@@2@@std@@@std@@QBEABU?$_Wrap_alloc@V?$allocator@U?$_List_node@U?$pair@_JV?$basic_string@DU?$char_traits@D@std@@V?$allocator@D@2@@std@@@std@@PAX@std@@@std@@@2@XZ 00430d60 f i log4z.obj
 0001:0002fdb0       ?_Getal@?$_String_alloc@U?$_String_base_types@DV?$allocator@D@std@@@std@@@std@@QBEABU?$_Wrap_alloc@V?$allocator@D@std@@@2@XZ 00430db0 f i log4z.obj
 0001:0002fe00       ?_Getal@?$_Tree_comp_alloc@V?$_Tmap_traits@V?$basic_string@DU?$char_traits@D@std@@V?$allocator@D@2@@std@@HU?$less@V?$basic_string@DU?$char_traits@D@std@@V?$allocator@D@2@@std@@@2@V?$allocator@U?$pair@$$CBV?$basic_string@DU?$char_traits@D@std@@V?$allocator@D@2@@std@@H@std@@@2@$0A@@std@@@std@@QAEAAU?$_Wrap_alloc@V?$allocator@U?$_Tree_node@U?$pair@$$CBV?$basic_string@DU?$char_traits@D@std@@V?$allocator@D@2@@std@@H@std@@PAX@std@@@std@@@2@XZ 00430e00 f i log4z.obj
 0001:0002fe60       ?_Getal@?$_Tree_comp_alloc@V?$_Tmap_traits@V?$basic_string@DU?$char_traits@D@std@@V?$allocator@D@2@@std@@HU?$less@V?$basic_string@DU?$char_traits@D@std@@V?$allocator@D@2@@std@@@2@V?$allocator@U?$pair@$$CBV?$basic_string@DU?$char_traits@D@std@@V?$allocator@D@2@@std@@H@std@@@2@$0A@@std@@@std@@QBEABU?$_Wrap_alloc@V?$allocator@U?$_Tree_node@U?$pair@$$CBV?$basic_string@DU?$char_traits@D@std@@V?$allocator@D@2@@std@@H@std@@PAX@std@@@std@@@2@XZ 00430e60 f i log4z.obj
 0001:0002fec0       ?_Getal@?$_Tree_comp_alloc@V?$_Tmap_traits@V?$basic_string@DU?$char_traits@D@std@@V?$allocator@D@2@@std@@ULoggerInfo@log4z@zsummer@@U?$less@V?$basic_string@DU?$char_traits@D@std@@V?$allocator@D@2@@std@@@2@V?$allocator@U?$pair@$$CBV?$basic_string@DU?$char_traits@D@std@@V?$allocator@D@2@@std@@ULoggerInfo@log4z@zsummer@@@std@@@2@$0A@@std@@@std@@QAEAAU?$_Wrap_alloc@V?$allocator@U?$_Tree_node@U?$pair@$$CBV?$basic_string@DU?$char_traits@D@std@@V?$allocator@D@2@@std@@ULoggerInfo@log4z@zsummer@@@std@@PAX@std@@@std@@@2@XZ 00430ec0 f i log4z.obj
 0001:0002ff20       ?_Getal@?$_Tree_comp_alloc@V?$_Tmap_traits@V?$basic_string@DU?$char_traits@D@std@@V?$allocator@D@2@@std@@ULoggerInfo@log4z@zsummer@@U?$less@V?$basic_string@DU?$char_traits@D@std@@V?$allocator@D@2@@std@@@2@V?$allocator@U?$pair@$$CBV?$basic_string@DU?$char_traits@D@std@@V?$allocator@D@2@@std@@ULoggerInfo@log4z@zsummer@@@std@@@2@$0A@@std@@@std@@QBEABU?$_Wrap_alloc@V?$allocator@U?$_Tree_node@U?$pair@$$CBV?$basic_string@DU?$char_traits@D@std@@V?$allocator@D@2@@std@@ULoggerInfo@log4z@zsummer@@@std@@PAX@std@@@std@@@2@XZ 00430f20 f i log4z.obj
 0001:0002ff80       ?_Getal@?$_Vector_alloc@U?$_Vec_base_types@PAULogData@log4z@zsummer@@V?$allocator@PAULogData@log4z@zsummer@@@std@@@std@@@std@@QAEAAU?$_Wrap_alloc@V?$allocator@PAULogData@log4z@zsummer@@@std@@@2@XZ 00430f80 f i log4z.obj
 0001:0002ffd0       ?_Getal@?$_Vector_alloc@U?$_Vec_base_types@PAULogData@log4z@zsummer@@V?$allocator@PAULogData@log4z@zsummer@@@std@@@std@@@std@@QBEABU?$_Wrap_alloc@V?$allocator@PAULogData@log4z@zsummer@@@std@@@2@XZ 00430fd0 f i log4z.obj
 0001:00030020       ?_Getblock@?$_Deque_alloc@U?$_Deque_base_types@PAULogData@log4z@zsummer@@V?$allocator@PAULogData@log4z@zsummer@@@std@@@std@@@std@@QBEII@Z 00431020 f i log4z.obj
 0001:00030080       ?_Getblock@?$_Deque_val@U?$_Deque_simple_types@PAULogData@log4z@zsummer@@@std@@@std@@QBEII@Z 00431080 f i log4z.obj
 0001:000300d0       ?_Getcomp@?$_Tree_comp_alloc@V?$_Tmap_traits@V?$basic_string@DU?$char_traits@D@std@@V?$allocator@D@2@@std@@HU?$less@V?$basic_string@DU?$char_traits@D@std@@V?$allocator@D@2@@std@@@2@V?$allocator@U?$pair@$$CBV?$basic_string@DU?$char_traits@D@std@@V?$allocator@D@2@@std@@H@std@@@2@$0A@@std@@@std@@QAEAAU?$less@V?$basic_string@DU?$char_traits@D@std@@V?$allocator@D@2@@std@@@2@XZ 004310d0 f i log4z.obj
 0001:00030120       ?_Getcomp@?$_Tree_comp_alloc@V?$_Tmap_traits@V?$basic_string@DU?$char_traits@D@std@@V?$allocator@D@2@@std@@HU?$less@V?$basic_string@DU?$char_traits@D@std@@V?$allocator@D@2@@std@@@2@V?$allocator@U?$pair@$$CBV?$basic_string@DU?$char_traits@D@std@@V?$allocator@D@2@@std@@H@std@@@2@$0A@@std@@@std@@QBEABU?$less@V?$basic_string@DU?$char_traits@D@std@@V?$allocator@D@2@@std@@@2@XZ 00431120 f i log4z.obj
 0001:00030170       ?_Getcomp@?$_Tree_comp_alloc@V?$_Tmap_traits@V?$basic_string@DU?$char_traits@D@std@@V?$allocator@D@2@@std@@ULoggerInfo@log4z@zsummer@@U?$less@V?$basic_string@DU?$char_traits@D@std@@V?$allocator@D@2@@std@@@2@V?$allocator@U?$pair@$$CBV?$basic_string@DU?$char_traits@D@std@@V?$allocator@D@2@@std@@ULoggerInfo@log4z@zsummer@@@std@@@2@$0A@@std@@@std@@QAEAAU?$less@V?$basic_string@DU?$char_traits@D@std@@V?$allocator@D@2@@std@@@2@XZ 00431170 f i log4z.obj
 0001:000301c0       ?_Getcomp@?$_Tree_comp_alloc@V?$_Tmap_traits@V?$basic_string@DU?$char_traits@D@std@@V?$allocator@D@2@@std@@ULoggerInfo@log4z@zsummer@@U?$less@V?$basic_string@DU?$char_traits@D@std@@V?$allocator@D@2@@std@@@2@V?$allocator@U?$pair@$$CBV?$basic_string@DU?$char_traits@D@std@@V?$allocator@D@2@@std@@ULoggerInfo@log4z@zsummer@@@std@@@2@$0A@@std@@@std@@QBEABU?$less@V?$basic_string@DU?$char_traits@D@std@@V?$allocator@D@2@@std@@@2@XZ 004311c0 f i log4z.obj
 0001:00030210       ?_Getcont@_Iterator_base12@std@@QBEPBU_Container_base12@2@XZ 00431210 f i log4z.obj
 0001:00030280       ?_Getpfirst@?$_Deque_alloc@U?$_Deque_base_types@PAULogData@log4z@zsummer@@V?$allocator@PAULogData@log4z@zsummer@@@std@@@std@@@std@@QBEPAPAU_Iterator_base12@2@XZ 00431280 f i log4z.obj
 0001:000302e0       ?_Getpfirst@?$_List_alloc@U?$_List_base_types@U?$pair@_JV?$basic_string@DU?$char_traits@D@std@@V?$allocator@D@2@@std@@@std@@V?$allocator@U?$pair@_JV?$basic_string@DU?$char_traits@D@std@@V?$allocator@D@2@@std@@@std@@@2@@std@@@std@@QBEPAPAU_Iterator_base12@2@XZ 004312e0 f i log4z.obj
 0001:00030340       ?_Getpfirst@?$_Tree_comp_alloc@V?$_Tmap_traits@V?$basic_string@DU?$char_traits@D@std@@V?$allocator@D@2@@std@@HU?$less@V?$basic_string@DU?$char_traits@D@std@@V?$allocator@D@2@@std@@@2@V?$allocator@U?$pair@$$CBV?$basic_string@DU?$char_traits@D@std@@V?$allocator@D@2@@std@@H@std@@@2@$0A@@std@@@std@@QBEPAPAU_Iterator_base12@2@XZ 00431340 f i log4z.obj
 0001:000303a0       ?_Getpfirst@?$_Tree_comp_alloc@V?$_Tmap_traits@V?$basic_string@DU?$char_traits@D@std@@V?$allocator@D@2@@std@@ULoggerInfo@log4z@zsummer@@U?$less@V?$basic_string@DU?$char_traits@D@std@@V?$allocator@D@2@@std@@@2@V?$allocator@U?$pair@$$CBV?$basic_string@DU?$char_traits@D@std@@V?$allocator@D@2@@std@@ULoggerInfo@log4z@zsummer@@@std@@@2@$0A@@std@@@std@@QBEPAPAU_Iterator_base12@2@XZ 004313a0 f i log4z.obj
 0001:00030400       ?_Getpfirst@?$_Vector_alloc@U?$_Vec_base_types@PAULogData@log4z@zsummer@@V?$allocator@PAULogData@log4z@zsummer@@@std@@@std@@@std@@QBEPAPAU_Iterator_base12@2@XZ 00431400 f i log4z.obj
 0001:00030460       ?_Getpfirst@_Container_base12@std@@QBEPAPAU_Iterator_base12@2@XZ 00431460 f i log4z.obj
 0001:000304d0       ?_Getpnext@_Iterator_base12@std@@QAEPAPAU12@XZ 004314d0 f i log4z.obj
 0001:00030510       ?_Grow@?$basic_string@DU?$char_traits@D@std@@V?$allocator@D@2@@std@@QAE_NI_N@Z 00431510 f i log4z.obj
 0001:00030640       ?_Grow_to@?$vector@PAULogData@log4z@zsummer@@V?$allocator@PAULogData@log4z@zsummer@@@std@@@std@@IBEII@Z 00431640 f i log4z.obj
 0001:000306f0       ?_Growmap@?$deque@PAULogData@log4z@zsummer@@V?$allocator@PAULogData@log4z@zsummer@@@std@@@std@@IAEXI@Z 004316f0 f i log4z.obj
 0001:00030a80       ?_Incsize@?$list@U?$pair@_JV?$basic_string@DU?$char_traits@D@std@@V?$allocator@D@2@@std@@@std@@V?$allocator@U?$pair@_JV?$basic_string@DU?$char_traits@D@std@@V?$allocator@D@2@@std@@@std@@@2@@std@@QAEXI@Z 00431a80 f i log4z.obj
 0001:00030b30       ?_Inside@?$basic_string@DU?$char_traits@D@std@@V?$allocator@D@2@@std@@QAE_NPBD@Z 00431b30 f i log4z.obj
 0001:00030bc0       ?_Inside@?$vector@PAULogData@log4z@zsummer@@V?$allocator@PAULogData@log4z@zsummer@@@std@@@std@@IBE_NPBQAULogData@log4z@zsummer@@@Z 00431bc0 f i log4z.obj
 0001:00030c70       ?_Isnil@?$_Tree_comp_alloc@V?$_Tmap_traits@V?$basic_string@DU?$char_traits@D@std@@V?$allocator@D@2@@std@@HU?$less@V?$basic_string@DU?$char_traits@D@std@@V?$allocator@D@2@@std@@@2@V?$allocator@U?$pair@$$CBV?$basic_string@DU?$char_traits@D@std@@V?$allocator@D@2@@std@@H@std@@@2@$0A@@std@@@std@@SAAADPAU?$_Tree_node@U?$pair@$$CBV?$basic_string@DU?$char_traits@D@std@@V?$allocator@D@2@@std@@H@std@@PAX@2@@Z 00431c70 f i log4z.obj
 0001:00030cc0       ?_Isnil@?$_Tree_comp_alloc@V?$_Tmap_traits@V?$basic_string@DU?$char_traits@D@std@@V?$allocator@D@2@@std@@ULoggerInfo@log4z@zsummer@@U?$less@V?$basic_string@DU?$char_traits@D@std@@V?$allocator@D@2@@std@@@2@V?$allocator@U?$pair@$$CBV?$basic_string@DU?$char_traits@D@std@@V?$allocator@D@2@@std@@ULoggerInfo@log4z@zsummer@@@std@@@2@$0A@@std@@@std@@SAAADPAU?$_Tree_node@U?$pair@$$CBV?$basic_string@DU?$char_traits@D@std@@V?$allocator@D@2@@std@@ULoggerInfo@log4z@zsummer@@@std@@PAX@2@@Z 00431cc0 f i log4z.obj
 0001:00030d10       ?_Isnil@?$_Tree_val@U?$_Tree_simple_types@U?$pair@$$CBV?$basic_string@DU?$char_traits@D@std@@V?$allocator@D@2@@std@@H@std@@@std@@@std@@SAAADPAU?$_Tree_node@U?$pair@$$CBV?$basic_string@DU?$char_traits@D@std@@V?$allocator@D@2@@std@@H@std@@PAX@2@@Z 00431d10 f i log4z.obj
 0001:00030d50       ?_Isnil@?$_Tree_val@U?$_Tree_simple_types@U?$pair@$$CBV?$basic_string@DU?$char_traits@D@std@@V?$allocator@D@2@@std@@ULoggerInfo@log4z@zsummer@@@std@@@std@@@std@@SAAADPAU?$_Tree_node@U?$pair@$$CBV?$basic_string@DU?$char_traits@D@std@@V?$allocator@D@2@@std@@ULoggerInfo@log4z@zsummer@@@std@@PAX@2@@Z 00431d50 f i log4z.obj
 0001:00030d90       ?_Key@?$_Tree@V?$_Tmap_traits@V?$basic_string@DU?$char_traits@D@std@@V?$allocator@D@2@@std@@HU?$less@V?$basic_string@DU?$char_traits@D@std@@V?$allocator@D@2@@std@@@2@V?$allocator@U?$pair@$$CBV?$basic_string@DU?$char_traits@D@std@@V?$allocator@D@2@@std@@H@std@@@2@$0A@@std@@@std@@IBEABV?$basic_string@DU?$char_traits@D@std@@V?$allocator@D@2@@2@PAU?$_Tree_node@U?$pair@$$CBV?$basic_string@DU?$char_traits@D@std@@V?$allocator@D@2@@std@@H@std@@PAX@2@@Z 00431d90 f i log4z.obj
 0001:00030e00       ?_Key@?$_Tree@V?$_Tmap_traits@V?$basic_string@DU?$char_traits@D@std@@V?$allocator@D@2@@std@@ULoggerInfo@log4z@zsummer@@U?$less@V?$basic_string@DU?$char_traits@D@std@@V?$allocator@D@2@@std@@@2@V?$allocator@U?$pair@$$CBV?$basic_string@DU?$char_traits@D@std@@V?$allocator@D@2@@std@@ULoggerInfo@log4z@zsummer@@@std@@@2@$0A@@std@@@std@@IBEABV?$basic_string@DU?$char_traits@D@std@@V?$allocator@D@2@@2@PAU?$_Tree_node@U?$pair@$$CBV?$basic_string@DU?$char_traits@D@std@@V?$allocator@D@2@@std@@ULoggerInfo@log4z@zsummer@@@std@@PAX@2@@Z 00431e00 f i log4z.obj
 0001:00030e70       ?_Kfn@?$_Tree@V?$_Tmap_traits@V?$basic_string@DU?$char_traits@D@std@@V?$allocator@D@2@@std@@HU?$less@V?$basic_string@DU?$char_traits@D@std@@V?$allocator@D@2@@std@@@2@V?$allocator@U?$pair@$$CBV?$basic_string@DU?$char_traits@D@std@@V?$allocator@D@2@@std@@H@std@@@2@$0A@@std@@@std@@IBEABV?$basic_string@DU?$char_traits@D@std@@V?$allocator@D@2@@2@ABU?$pair@$$CBV?$basic_string@DU?$char_traits@D@std@@V?$allocator@D@2@@std@@H@2@@Z 00431e70 f i log4z.obj
 0001:00030ed0       ?_Kfn@?$_Tree@V?$_Tmap_traits@V?$basic_string@DU?$char_traits@D@std@@V?$allocator@D@2@@std@@ULoggerInfo@log4z@zsummer@@U?$less@V?$basic_string@DU?$char_traits@D@std@@V?$allocator@D@2@@std@@@2@V?$allocator@U?$pair@$$CBV?$basic_string@DU?$char_traits@D@std@@V?$allocator@D@2@@std@@ULoggerInfo@log4z@zsummer@@@std@@@2@$0A@@std@@@std@@IBEABV?$basic_string@DU?$char_traits@D@std@@V?$allocator@D@2@@2@ABU?$pair@$$CBV?$basic_string@DU?$char_traits@D@std@@V?$allocator@D@2@@std@@ULoggerInfo@log4z@zsummer@@@2@@Z 00431ed0 f i log4z.obj
 0001:00030f30       ?_Left@?$_Tree_comp_alloc@V?$_Tmap_traits@V?$basic_string@DU?$char_traits@D@std@@V?$allocator@D@2@@std@@HU?$less@V?$basic_string@DU?$char_traits@D@std@@V?$allocator@D@2@@std@@@2@V?$allocator@U?$pair@$$CBV?$basic_string@DU?$char_traits@D@std@@V?$allocator@D@2@@std@@H@std@@@2@$0A@@std@@@std@@SAAAPAU?$_Tree_node@U?$pair@$$CBV?$basic_string@DU?$char_traits@D@std@@V?$allocator@D@2@@std@@H@std@@PAX@2@PAU32@@Z 00431f30 f i log4z.obj
 0001:00030f80       ?_Left@?$_Tree_comp_alloc@V?$_Tmap_traits@V?$basic_string@DU?$char_traits@D@std@@V?$allocator@D@2@@std@@ULoggerInfo@log4z@zsummer@@U?$less@V?$basic_string@DU?$char_traits@D@std@@V?$allocator@D@2@@std@@@2@V?$allocator@U?$pair@$$CBV?$basic_string@DU?$char_traits@D@std@@V?$allocator@D@2@@std@@ULoggerInfo@log4z@zsummer@@@std@@@2@$0A@@std@@@std@@SAAAPAU?$_Tree_node@U?$pair@$$CBV?$basic_string@DU?$char_traits@D@std@@V?$allocator@D@2@@std@@ULoggerInfo@log4z@zsummer@@@std@@PAX@2@PAU32@@Z 00431f80 f i log4z.obj
 0001:00030fd0       ?_Left@?$_Tree_val@U?$_Tree_simple_types@U?$pair@$$CBV?$basic_string@DU?$char_traits@D@std@@V?$allocator@D@2@@std@@H@std@@@std@@@std@@SAAAPAU?$_Tree_node@U?$pair@$$CBV?$basic_string@DU?$char_traits@D@std@@V?$allocator@D@2@@std@@H@std@@PAX@2@PAU32@@Z 00431fd0 f i log4z.obj
 0001:00031010       ?_Left@?$_Tree_val@U?$_Tree_simple_types@U?$pair@$$CBV?$basic_string@DU?$char_traits@D@std@@V?$allocator@D@2@@std@@ULoggerInfo@log4z@zsummer@@@std@@@std@@@std@@SAAAPAU?$_Tree_node@U?$pair@$$CBV?$basic_string@DU?$char_traits@D@std@@V?$allocator@D@2@@std@@ULoggerInfo@log4z@zsummer@@@std@@PAX@2@PAU32@@Z 00432010 f i log4z.obj
 0001:00031050       ?_Lmost@?$_Tree@V?$_Tmap_traits@V?$basic_string@DU?$char_traits@D@std@@V?$allocator@D@2@@std@@HU?$less@V?$basic_string@DU?$char_traits@D@std@@V?$allocator@D@2@@std@@@2@V?$allocator@U?$pair@$$CBV?$basic_string@DU?$char_traits@D@std@@V?$allocator@D@2@@std@@H@std@@@2@$0A@@std@@@std@@IBEAAPAU?$_Tree_node@U?$pair@$$CBV?$basic_string@DU?$char_traits@D@std@@V?$allocator@D@2@@std@@H@std@@PAX@2@XZ 00432050 f i log4z.obj
 0001:000310b0       ?_Lmost@?$_Tree@V?$_Tmap_traits@V?$basic_string@DU?$char_traits@D@std@@V?$allocator@D@2@@std@@ULoggerInfo@log4z@zsummer@@U?$less@V?$basic_string@DU?$char_traits@D@std@@V?$allocator@D@2@@std@@@2@V?$allocator@U?$pair@$$CBV?$basic_string@DU?$char_traits@D@std@@V?$allocator@D@2@@std@@ULoggerInfo@log4z@zsummer@@@std@@@2@$0A@@std@@@std@@IBEAAPAU?$_Tree_node@U?$pair@$$CBV?$basic_string@DU?$char_traits@D@std@@V?$allocator@D@2@@std@@ULoggerInfo@log4z@zsummer@@@std@@PAX@2@XZ 004320b0 f i log4z.obj
 0001:00031110       ?_Lrotate@?$_Tree@V?$_Tmap_traits@V?$basic_string@DU?$char_traits@D@std@@V?$allocator@D@2@@std@@HU?$less@V?$basic_string@DU?$char_traits@D@std@@V?$allocator@D@2@@std@@@2@V?$allocator@U?$pair@$$CBV?$basic_string@DU?$char_traits@D@std@@V?$allocator@D@2@@std@@H@std@@@2@$0A@@std@@@std@@IAEXPAU?$_Tree_node@U?$pair@$$CBV?$basic_string@DU?$char_traits@D@std@@V?$allocator@D@2@@std@@H@std@@PAX@2@@Z 00432110 f i log4z.obj
 0001:000312c0       ?_Lrotate@?$_Tree@V?$_Tmap_traits@V?$basic_string@DU?$char_traits@D@std@@V?$allocator@D@2@@std@@ULoggerInfo@log4z@zsummer@@U?$less@V?$basic_string@DU?$char_traits@D@std@@V?$allocator@D@2@@std@@@2@V?$allocator@U?$pair@$$CBV?$basic_string@DU?$char_traits@D@std@@V?$allocator@D@2@@std@@ULoggerInfo@log4z@zsummer@@@std@@@2@$0A@@std@@@std@@IAEXPAU?$_Tree_node@U?$pair@$$CBV?$basic_string@DU?$char_traits@D@std@@V?$allocator@D@2@@std@@ULoggerInfo@log4z@zsummer@@@std@@PAX@2@@Z 004322c0 f i log4z.obj
 0001:00031470       ?_Make_iter@?$list@U?$pair@_JV?$basic_string@DU?$char_traits@D@std@@V?$allocator@D@2@@std@@@std@@V?$allocator@U?$pair@_JV?$basic_string@DU?$char_traits@D@std@@V?$allocator@D@2@@std@@@std@@@2@@std@@QBE?AV?$_List_iterator@V?$_List_val@U?$_List_simple_types@U?$pair@_JV?$basic_string@DU?$char_traits@D@std@@V?$allocator@D@2@@std@@@std@@@std@@@std@@@2@V?$_List_const_iterator@V?$_List_val@U?$_List_simple_types@U?$pair@_JV?$basic_string@DU?$char_traits@D@std@@V?$allocator@D@2@@std@@@std@@@std@@@std@@@2@@Z 00432470 f i log4z.obj
 0001:00031520       ?_Map@?$_Deque_alloc@U?$_Deque_base_types@PAULogData@log4z@zsummer@@V?$allocator@PAULogData@log4z@zsummer@@@std@@@std@@@std@@QAEAAPAPAPAULogData@log4z@zsummer@@XZ 00432520 f i log4z.obj
 0001:00031580       ?_Mapsize@?$_Deque_alloc@U?$_Deque_base_types@PAULogData@log4z@zsummer@@V?$allocator@PAULogData@log4z@zsummer@@@std@@@std@@@std@@QAEAAIXZ 00432580 f i log4z.obj
 0001:000315e0       ?_Max@?$_Tree_comp_alloc@V?$_Tmap_traits@V?$basic_string@DU?$char_traits@D@std@@V?$allocator@D@2@@std@@HU?$less@V?$basic_string@DU?$char_traits@D@std@@V?$allocator@D@2@@std@@@2@V?$allocator@U?$pair@$$CBV?$basic_string@DU?$char_traits@D@std@@V?$allocator@D@2@@std@@H@std@@@2@$0A@@std@@@std@@SAPAU?$_Tree_node@U?$pair@$$CBV?$basic_string@DU?$char_traits@D@std@@V?$allocator@D@2@@std@@H@std@@PAX@2@PAU32@@Z 004325e0 f i log4z.obj
 0001:00031630       ?_Max@?$_Tree_comp_alloc@V?$_Tmap_traits@V?$basic_string@DU?$char_traits@D@std@@V?$allocator@D@2@@std@@ULoggerInfo@log4z@zsummer@@U?$less@V?$basic_string@DU?$char_traits@D@std@@V?$allocator@D@2@@std@@@2@V?$allocator@U?$pair@$$CBV?$basic_string@DU?$char_traits@D@std@@V?$allocator@D@2@@std@@ULoggerInfo@log4z@zsummer@@@std@@@2@$0A@@std@@@std@@SAPAU?$_Tree_node@U?$pair@$$CBV?$basic_string@DU?$char_traits@D@std@@V?$allocator@D@2@@std@@ULoggerInfo@log4z@zsummer@@@std@@PAX@2@PAU32@@Z 00432630 f i log4z.obj
 0001:00031680       ?_Max@?$_Tree_val@U?$_Tree_simple_types@U?$pair@$$CBV?$basic_string@DU?$char_traits@D@std@@V?$allocator@D@2@@std@@H@std@@@std@@@std@@SAPAU?$_Tree_node@U?$pair@$$CBV?$basic_string@DU?$char_traits@D@std@@V?$allocator@D@2@@std@@H@std@@PAX@2@PAU32@@Z 00432680 f i log4z.obj
 0001:00031700       ?_Max@?$_Tree_val@U?$_Tree_simple_types@U?$pair@$$CBV?$basic_string@DU?$char_traits@D@std@@V?$allocator@D@2@@std@@ULoggerInfo@log4z@zsummer@@@std@@@std@@@std@@SAPAU?$_Tree_node@U?$pair@$$CBV?$basic_string@DU?$char_traits@D@std@@V?$allocator@D@2@@std@@ULoggerInfo@log4z@zsummer@@@std@@PAX@2@PAU32@@Z 00432700 f i log4z.obj
 0001:00031780       ?_Min@?$_Tree_comp_alloc@V?$_Tmap_traits@V?$basic_string@DU?$char_traits@D@std@@V?$allocator@D@2@@std@@HU?$less@V?$basic_string@DU?$char_traits@D@std@@V?$allocator@D@2@@std@@@2@V?$allocator@U?$pair@$$CBV?$basic_string@DU?$char_traits@D@std@@V?$allocator@D@2@@std@@H@std@@@2@$0A@@std@@@std@@SAPAU?$_Tree_node@U?$pair@$$CBV?$basic_string@DU?$char_traits@D@std@@V?$allocator@D@2@@std@@H@std@@PAX@2@PAU32@@Z 00432780 f i log4z.obj
 0001:000317d0       ?_Min@?$_Tree_comp_alloc@V?$_Tmap_traits@V?$basic_string@DU?$char_traits@D@std@@V?$allocator@D@2@@std@@ULoggerInfo@log4z@zsummer@@U?$less@V?$basic_string@DU?$char_traits@D@std@@V?$allocator@D@2@@std@@@2@V?$allocator@U?$pair@$$CBV?$basic_string@DU?$char_traits@D@std@@V?$allocator@D@2@@std@@ULoggerInfo@log4z@zsummer@@@std@@@2@$0A@@std@@@std@@SAPAU?$_Tree_node@U?$pair@$$CBV?$basic_string@DU?$char_traits@D@std@@V?$allocator@D@2@@std@@ULoggerInfo@log4z@zsummer@@@std@@PAX@2@PAU32@@Z 004327d0 f i log4z.obj
 0001:00031820       ?_Min@?$_Tree_val@U?$_Tree_simple_types@U?$pair@$$CBV?$basic_string@DU?$char_traits@D@std@@V?$allocator@D@2@@std@@H@std@@@std@@@std@@SAPAU?$_Tree_node@U?$pair@$$CBV?$basic_string@DU?$char_traits@D@std@@V?$allocator@D@2@@std@@H@std@@PAX@2@PAU32@@Z 00432820 f i log4z.obj
 0001:000318a0       ?_Min@?$_Tree_val@U?$_Tree_simple_types@U?$pair@$$CBV?$basic_string@DU?$char_traits@D@std@@V?$allocator@D@2@@std@@ULoggerInfo@log4z@zsummer@@@std@@@std@@@std@@SAPAU?$_Tree_node@U?$pair@$$CBV?$basic_string@DU?$char_traits@D@std@@V?$allocator@D@2@@std@@ULoggerInfo@log4z@zsummer@@@std@@PAX@2@PAU32@@Z 004328a0 f i log4z.obj
 0001:00031920       ?_Move_alloc@?$_String_alloc@U?$_String_base_types@DV?$allocator@D@std@@@std@@@std@@QAEXAAU?$_Wrap_alloc@V?$allocator@D@std@@@2@@Z 00432920 f i log4z.obj
 0001:000319a0       ?_Myend@?$_Vector_alloc@U?$_Vec_base_types@PAULogData@log4z@zsummer@@V?$allocator@PAULogData@log4z@zsummer@@@std@@@std@@@std@@QAEAAPAPAULogData@log4z@zsummer@@XZ 004329a0 f i log4z.obj
 0001:00031a00       ?_Myend@?$_Vector_alloc@U?$_Vec_base_types@PAULogData@log4z@zsummer@@V?$allocator@PAULogData@log4z@zsummer@@@std@@@std@@@std@@QBEABQAPAULogData@log4z@zsummer@@XZ 00432a00 f i log4z.obj
 0001:00031a60       ?_Myfirst@?$_Vector_alloc@U?$_Vec_base_types@PAULogData@log4z@zsummer@@V?$allocator@PAULogData@log4z@zsummer@@@std@@@std@@@std@@QAEAAPAPAULogData@log4z@zsummer@@XZ 00432a60 f i log4z.obj
 0001:00031ac0       ?_Myfirst@?$_Vector_alloc@U?$_Vec_base_types@PAULogData@log4z@zsummer@@V?$allocator@PAULogData@log4z@zsummer@@@std@@@std@@@std@@QBEABQAPAULogData@log4z@zsummer@@XZ 00432ac0 f i log4z.obj
 0001:00031b20       ?_Myhead@?$_List_alloc@U?$_List_base_types@U?$pair@_JV?$basic_string@DU?$char_traits@D@std@@V?$allocator@D@2@@std@@@std@@V?$allocator@U?$pair@_JV?$basic_string@DU?$char_traits@D@std@@V?$allocator@D@2@@std@@@std@@@2@@std@@@std@@QAEAAPAU?$_List_node@U?$pair@_JV?$basic_string@DU?$char_traits@D@std@@V?$allocator@D@2@@std@@@std@@PAX@2@XZ 00432b20 f i log4z.obj
 0001:00031b80       ?_Myhead@?$_List_alloc@U?$_List_base_types@U?$pair@_JV?$basic_string@DU?$char_traits@D@std@@V?$allocator@D@2@@std@@@std@@V?$allocator@U?$pair@_JV?$basic_string@DU?$char_traits@D@std@@V?$allocator@D@2@@std@@@std@@@2@@std@@@std@@QBEABQAU?$_List_node@U?$pair@_JV?$basic_string@DU?$char_traits@D@std@@V?$allocator@D@2@@std@@@std@@PAX@2@XZ 00432b80 f i log4z.obj
 0001:00031be0       ?_Myhead@?$_Tree_comp_alloc@V?$_Tmap_traits@V?$basic_string@DU?$char_traits@D@std@@V?$allocator@D@2@@std@@HU?$less@V?$basic_string@DU?$char_traits@D@std@@V?$allocator@D@2@@std@@@2@V?$allocator@U?$pair@$$CBV?$basic_string@DU?$char_traits@D@std@@V?$allocator@D@2@@std@@H@std@@@2@$0A@@std@@@std@@QAEAAPAU?$_Tree_node@U?$pair@$$CBV?$basic_string@DU?$char_traits@D@std@@V?$allocator@D@2@@std@@H@std@@PAX@2@XZ 00432be0 f i log4z.obj
 0001:00031c40       ?_Myhead@?$_Tree_comp_alloc@V?$_Tmap_traits@V?$basic_string@DU?$char_traits@D@std@@V?$allocator@D@2@@std@@HU?$less@V?$basic_string@DU?$char_traits@D@std@@V?$allocator@D@2@@std@@@2@V?$allocator@U?$pair@$$CBV?$basic_string@DU?$char_traits@D@std@@V?$allocator@D@2@@std@@H@std@@@2@$0A@@std@@@std@@QBEABQAU?$_Tree_node@U?$pair@$$CBV?$basic_string@DU?$char_traits@D@std@@V?$allocator@D@2@@std@@H@std@@PAX@2@XZ 00432c40 f i log4z.obj
 0001:00031ca0       ?_Myhead@?$_Tree_comp_alloc@V?$_Tmap_traits@V?$basic_string@DU?$char_traits@D@std@@V?$allocator@D@2@@std@@ULoggerInfo@log4z@zsummer@@U?$less@V?$basic_string@DU?$char_traits@D@std@@V?$allocator@D@2@@std@@@2@V?$allocator@U?$pair@$$CBV?$basic_string@DU?$char_traits@D@std@@V?$allocator@D@2@@std@@ULoggerInfo@log4z@zsummer@@@std@@@2@$0A@@std@@@std@@QAEAAPAU?$_Tree_node@U?$pair@$$CBV?$basic_string@DU?$char_traits@D@std@@V?$allocator@D@2@@std@@ULoggerInfo@log4z@zsummer@@@std@@PAX@2@XZ 00432ca0 f i log4z.obj
 0001:00031d00       ?_Myhead@?$_Tree_comp_alloc@V?$_Tmap_traits@V?$basic_string@DU?$char_traits@D@std@@V?$allocator@D@2@@std@@ULoggerInfo@log4z@zsummer@@U?$less@V?$basic_string@DU?$char_traits@D@std@@V?$allocator@D@2@@std@@@2@V?$allocator@U?$pair@$$CBV?$basic_string@DU?$char_traits@D@std@@V?$allocator@D@2@@std@@ULoggerInfo@log4z@zsummer@@@std@@@2@$0A@@std@@@std@@QBEABQAU?$_Tree_node@U?$pair@$$CBV?$basic_string@DU?$char_traits@D@std@@V?$allocator@D@2@@std@@ULoggerInfo@log4z@zsummer@@@std@@PAX@2@XZ 00432d00 f i log4z.obj
 0001:00031d60       ?_Mylast@?$_Vector_alloc@U?$_Vec_base_types@PAULogData@log4z@zsummer@@V?$allocator@PAULogData@log4z@zsummer@@@std@@@std@@@std@@QAEAAPAPAULogData@log4z@zsummer@@XZ 00432d60 f i log4z.obj
 0001:00031dc0       ?_Mylast@?$_Vector_alloc@U?$_Vec_base_types@PAULogData@log4z@zsummer@@V?$allocator@PAULogData@log4z@zsummer@@@std@@@std@@@std@@QBEABQAPAULogData@log4z@zsummer@@XZ 00432dc0 f i log4z.obj
 0001:00031e20       ?_Mynode@?$_List_unchecked_const_iterator@V?$_List_val@U?$_List_simple_types@U?$pair@_JV?$basic_string@DU?$char_traits@D@std@@V?$allocator@D@2@@std@@@std@@@std@@@std@@U_Iterator_base0@2@@std@@QBEPAU?$_List_node@U?$pair@_JV?$basic_string@DU?$char_traits@D@std@@V?$allocator@D@2@@std@@@std@@PAX@2@XZ 00432e20 f i log4z.obj
 0001:00031e60       ?_Mynode@?$_List_unchecked_const_iterator@V?$_List_val@U?$_List_simple_types@U?$pair@_JV?$basic_string@DU?$char_traits@D@std@@V?$allocator@D@2@@std@@@std@@@std@@@std@@U_Iterator_base12@2@@std@@QBEPAU?$_List_node@U?$pair@_JV?$basic_string@DU?$char_traits@D@std@@V?$allocator@D@2@@std@@@std@@PAX@2@XZ 00432e60 f i log4z.obj
 0001:00031ea0       ?_Mynode@?$_Tree_unchecked_const_iterator@V?$_Tree_val@U?$_Tree_simple_types@U?$pair@$$CBV?$basic_string@DU?$char_traits@D@std@@V?$allocator@D@2@@std@@H@std@@@std@@@std@@U_Iterator_base12@2@@std@@QBEPAU?$_Tree_node@U?$pair@$$CBV?$basic_string@DU?$char_traits@D@std@@V?$allocator@D@2@@std@@H@std@@PAX@2@XZ 00432ea0 f i log4z.obj
 0001:00031ee0       ?_Mynode@?$_Tree_unchecked_const_iterator@V?$_Tree_val@U?$_Tree_simple_types@U?$pair@$$CBV?$basic_string@DU?$char_traits@D@std@@V?$allocator@D@2@@std@@ULoggerInfo@log4z@zsummer@@@std@@@std@@@std@@U_Iterator_base12@2@@std@@QBEPAU?$_Tree_node@U?$pair@$$CBV?$basic_string@DU?$char_traits@D@std@@V?$allocator@D@2@@std@@ULoggerInfo@log4z@zsummer@@@std@@PAX@2@XZ 00432ee0 f i log4z.obj
 0001:00031f20       ?_Myoff@?$_Deque_alloc@U?$_Deque_base_types@PAULogData@log4z@zsummer@@V?$allocator@PAULogData@log4z@zsummer@@@std@@@std@@@std@@QAEAAIXZ 00432f20 f i log4z.obj
 0001:00031f80       ?_Myoff@?$_Deque_alloc@U?$_Deque_base_types@PAULogData@log4z@zsummer@@V?$allocator@PAULogData@log4z@zsummer@@@std@@@std@@@std@@QBEABIXZ 00432f80 f i log4z.obj
 0001:00031fe0       ?_Myproxy@?$_Deque_alloc@U?$_Deque_base_types@PAULogData@log4z@zsummer@@V?$allocator@PAULogData@log4z@zsummer@@@std@@@std@@@std@@QAEAAPAU_Container_proxy@2@XZ 00432fe0 f i log4z.obj
 0001:00032030       ?_Myproxy@?$_List_alloc@U?$_List_base_types@U?$pair@_JV?$basic_string@DU?$char_traits@D@std@@V?$allocator@D@2@@std@@@std@@V?$allocator@U?$pair@_JV?$basic_string@DU?$char_traits@D@std@@V?$allocator@D@2@@std@@@std@@@2@@std@@@std@@QAEAAPAU_Container_proxy@2@XZ 00433030 f i log4z.obj
 0001:00032080       ?_Myproxy@?$_Tree_comp_alloc@V?$_Tmap_traits@V?$basic_string@DU?$char_traits@D@std@@V?$allocator@D@2@@std@@HU?$less@V?$basic_string@DU?$char_traits@D@std@@V?$allocator@D@2@@std@@@2@V?$allocator@U?$pair@$$CBV?$basic_string@DU?$char_traits@D@std@@V?$allocator@D@2@@std@@H@std@@@2@$0A@@std@@@std@@QAEAAPAU_Container_proxy@2@XZ 00433080 f i log4z.obj
 0001:000320d0       ?_Myproxy@?$_Tree_comp_alloc@V?$_Tmap_traits@V?$basic_string@DU?$char_traits@D@std@@V?$allocator@D@2@@std@@ULoggerInfo@log4z@zsummer@@U?$less@V?$basic_string@DU?$char_traits@D@std@@V?$allocator@D@2@@std@@@2@V?$allocator@U?$pair@$$CBV?$basic_string@DU?$char_traits@D@std@@V?$allocator@D@2@@std@@ULoggerInfo@log4z@zsummer@@@std@@@2@$0A@@std@@@std@@QAEAAPAU_Container_proxy@2@XZ 004330d0 f i log4z.obj
 0001:00032120       ?_Myproxy@?$_Vector_alloc@U?$_Vec_base_types@PAULogData@log4z@zsummer@@V?$allocator@PAULogData@log4z@zsummer@@@std@@@std@@@std@@QAEAAPAU_Container_proxy@2@XZ 00433120 f i log4z.obj
 0001:00032170       ?_Myptr@?$_String_alloc@U?$_String_base_types@DV?$allocator@D@std@@@std@@@std@@QAEPADXZ 00433170 f i log4z.obj
 0001:000321d0       ?_Myptr@?$_String_alloc@U?$_String_base_types@DV?$allocator@D@std@@@std@@@std@@QBEPBDXZ 004331d0 f i log4z.obj
 0001:00032230       ?_Myptr@?$_String_val@U?$_Simple_types@D@std@@@std@@QBEPBDXZ 00433230 f i log4z.obj
 0001:000322c0       ?_Mysize@?$_Deque_alloc@U?$_Deque_base_types@PAULogData@log4z@zsummer@@V?$allocator@PAULogData@log4z@zsummer@@@std@@@std@@@std@@QAEAAIXZ 004332c0 f i log4z.obj
 0001:00032320       ?_Mysize@?$_Deque_alloc@U?$_Deque_base_types@PAULogData@log4z@zsummer@@V?$allocator@PAULogData@log4z@zsummer@@@std@@@std@@@std@@QBEABIXZ 00433320 f i log4z.obj
 0001:00032380       ?_Mysize@?$_List_alloc@U?$_List_base_types@U?$pair@_JV?$basic_string@DU?$char_traits@D@std@@V?$allocator@D@2@@std@@@std@@V?$allocator@U?$pair@_JV?$basic_string@DU?$char_traits@D@std@@V?$allocator@D@2@@std@@@std@@@2@@std@@@std@@QAEAAIXZ 00433380 f i log4z.obj
 0001:000323e0       ?_Mysize@?$_List_alloc@U?$_List_base_types@U?$pair@_JV?$basic_string@DU?$char_traits@D@std@@V?$allocator@D@2@@std@@@std@@V?$allocator@U?$pair@_JV?$basic_string@DU?$char_traits@D@std@@V?$allocator@D@2@@std@@@std@@@2@@std@@@std@@QBEABIXZ 004333e0 f i log4z.obj
 0001:00032440       ?_Mysize@?$_String_alloc@U?$_String_base_types@DV?$allocator@D@std@@@std@@@std@@QAEAAIXZ 00433440 f i log4z.obj
 0001:000324a0       ?_Mysize@?$_String_alloc@U?$_String_base_types@DV?$allocator@D@std@@@std@@@std@@QBEABIXZ 004334a0 f i log4z.obj
 0001:00032500       ?_Mysize@?$_Tree_comp_alloc@V?$_Tmap_traits@V?$basic_string@DU?$char_traits@D@std@@V?$allocator@D@2@@std@@HU?$less@V?$basic_string@DU?$char_traits@D@std@@V?$allocator@D@2@@std@@@2@V?$allocator@U?$pair@$$CBV?$basic_string@DU?$char_traits@D@std@@V?$allocator@D@2@@std@@H@std@@@2@$0A@@std@@@std@@QAEAAIXZ 00433500 f i log4z.obj
 0001:00032560       ?_Mysize@?$_Tree_comp_alloc@V?$_Tmap_traits@V?$basic_string@DU?$char_traits@D@std@@V?$allocator@D@2@@std@@HU?$less@V?$basic_string@DU?$char_traits@D@std@@V?$allocator@D@2@@std@@@2@V?$allocator@U?$pair@$$CBV?$basic_string@DU?$char_traits@D@std@@V?$allocator@D@2@@std@@H@std@@@2@$0A@@std@@@std@@QBEABIXZ 00433560 f i log4z.obj
 0001:000325c0       ?_Mysize@?$_Tree_comp_alloc@V?$_Tmap_traits@V?$basic_string@DU?$char_traits@D@std@@V?$allocator@D@2@@std@@ULoggerInfo@log4z@zsummer@@U?$less@V?$basic_string@DU?$char_traits@D@std@@V?$allocator@D@2@@std@@@2@V?$allocator@U?$pair@$$CBV?$basic_string@DU?$char_traits@D@std@@V?$allocator@D@2@@std@@ULoggerInfo@log4z@zsummer@@@std@@@2@$0A@@std@@@std@@QAEAAIXZ 004335c0 f i log4z.obj
 0001:00032620       ?_Myval@?$_List_alloc@U?$_List_base_types@U?$pair@_JV?$basic_string@DU?$char_traits@D@std@@V?$allocator@D@2@@std@@@std@@V?$allocator@U?$pair@_JV?$basic_string@DU?$char_traits@D@std@@V?$allocator@D@2@@std@@@std@@@2@@std@@@std@@SAAAU?$pair@_JV?$basic_string@DU?$char_traits@D@std@@V?$allocator@D@2@@std@@@2@PAU?$_List_node@U?$pair@_JV?$basic_string@DU?$char_traits@D@std@@V?$allocator@D@2@@std@@@std@@PAX@2@@Z 00433620 f i log4z.obj
 0001:00032670       ?_Myval@?$_List_val@U?$_List_simple_types@U?$pair@_JV?$basic_string@DU?$char_traits@D@std@@V?$allocator@D@2@@std@@@std@@@std@@@std@@SAAAU?$pair@_JV?$basic_string@DU?$char_traits@D@std@@V?$allocator@D@2@@std@@@2@PAU?$_List_node@U?$pair@_JV?$basic_string@DU?$char_traits@D@std@@V?$allocator@D@2@@std@@@std@@PAX@2@@Z 00433670 f i log4z.obj
 0001:000326b0       ?_Myval@?$_Tree_comp_alloc@V?$_Tmap_traits@V?$basic_string@DU?$char_traits@D@std@@V?$allocator@D@2@@std@@HU?$less@V?$basic_string@DU?$char_traits@D@std@@V?$allocator@D@2@@std@@@2@V?$allocator@U?$pair@$$CBV?$basic_string@DU?$char_traits@D@std@@V?$allocator@D@2@@std@@H@std@@@2@$0A@@std@@@std@@SAAAU?$pair@$$CBV?$basic_string@DU?$char_traits@D@std@@V?$allocator@D@2@@std@@H@2@PAU?$_Tree_node@U?$pair@$$CBV?$basic_string@DU?$char_traits@D@std@@V?$allocator@D@2@@std@@H@std@@PAX@2@@Z 004336b0 f i log4z.obj
 0001:00032700       ?_Myval@?$_Tree_comp_alloc@V?$_Tmap_traits@V?$basic_string@DU?$char_traits@D@std@@V?$allocator@D@2@@std@@ULoggerInfo@log4z@zsummer@@U?$less@V?$basic_string@DU?$char_traits@D@std@@V?$allocator@D@2@@std@@@2@V?$allocator@U?$pair@$$CBV?$basic_string@DU?$char_traits@D@std@@V?$allocator@D@2@@std@@ULoggerInfo@log4z@zsummer@@@std@@@2@$0A@@std@@@std@@SAAAU?$pair@$$CBV?$basic_string@DU?$char_traits@D@std@@V?$allocator@D@2@@std@@ULoggerInfo@log4z@zsummer@@@2@PAU?$_Tree_node@U?$pair@$$CBV?$basic_string@DU?$char_traits@D@std@@V?$allocator@D@2@@std@@ULoggerInfo@log4z@zsummer@@@std@@PAX@2@@Z 00433700 f i log4z.obj
 0001:00032750       ?_Myval@?$_Tree_val@U?$_Tree_simple_types@U?$pair@$$CBV?$basic_string@DU?$char_traits@D@std@@V?$allocator@D@2@@std@@H@std@@@std@@@std@@SAAAU?$pair@$$CBV?$basic_string@DU?$char_traits@D@std@@V?$allocator@D@2@@std@@H@2@PAU?$_Tree_node@U?$pair@$$CBV?$basic_string@DU?$char_traits@D@std@@V?$allocator@D@2@@std@@H@std@@PAX@2@@Z 00433750 f i log4z.obj
 0001:00032790       ?_Myval@?$_Tree_val@U?$_Tree_simple_types@U?$pair@$$CBV?$basic_string@DU?$char_traits@D@std@@V?$allocator@D@2@@std@@ULoggerInfo@log4z@zsummer@@@std@@@std@@@std@@SAAAU?$pair@$$CBV?$basic_string@DU?$char_traits@D@std@@V?$allocator@D@2@@std@@ULoggerInfo@log4z@zsummer@@@2@PAU?$_Tree_node@U?$pair@$$CBV?$basic_string@DU?$char_traits@D@std@@V?$allocator@D@2@@std@@ULoggerInfo@log4z@zsummer@@@std@@PAX@2@@Z 00433790 f i log4z.obj
 0001:000327d0       ?_Nextnode@?$_List_alloc@U?$_List_base_types@U?$pair@_JV?$basic_string@DU?$char_traits@D@std@@V?$allocator@D@2@@std@@@std@@V?$allocator@U?$pair@_JV?$basic_string@DU?$char_traits@D@std@@V?$allocator@D@2@@std@@@std@@@2@@std@@@std@@SAAAPAU?$_List_node@U?$pair@_JV?$basic_string@DU?$char_traits@D@std@@V?$allocator@D@2@@std@@@std@@PAX@2@PAU32@@Z 004337d0 f i log4z.obj
 0001:00032820       ?_Nextnode@?$_List_val@U?$_List_simple_types@U?$pair@_JV?$basic_string@DU?$char_traits@D@std@@V?$allocator@D@2@@std@@@std@@@std@@@std@@SAAAPAU?$_List_node@U?$pair@_JV?$basic_string@DU?$char_traits@D@std@@V?$allocator@D@2@@std@@@std@@PAX@2@PAU32@@Z 00433820 f i log4z.obj
 0001:00032860       ?_Orphan_all@?$_Deque_alloc@U?$_Deque_base_types@PAULogData@log4z@zsummer@@V?$allocator@PAULogData@log4z@zsummer@@@std@@@std@@@std@@QAEXXZ 00433860 f i log4z.obj
 0001:000328c0       ?_Orphan_all@?$_List_alloc@U?$_List_base_types@U?$pair@_JV?$basic_string@DU?$char_traits@D@std@@V?$allocator@D@2@@std@@@std@@V?$allocator@U?$pair@_JV?$basic_string@DU?$char_traits@D@std@@V?$allocator@D@2@@std@@@std@@@2@@std@@@std@@QAEXXZ 004338c0 f i log4z.obj
 0001:00032920       ?_Orphan_all@?$_Tree_comp_alloc@V?$_Tmap_traits@V?$basic_string@DU?$char_traits@D@std@@V?$allocator@D@2@@std@@HU?$less@V?$basic_string@DU?$char_traits@D@std@@V?$allocator@D@2@@std@@@2@V?$allocator@U?$pair@$$CBV?$basic_string@DU?$char_traits@D@std@@V?$allocator@D@2@@std@@H@std@@@2@$0A@@std@@@std@@QAEXXZ 00433920 f i log4z.obj
 0001:00032980       ?_Orphan_all@?$_Tree_comp_alloc@V?$_Tmap_traits@V?$basic_string@DU?$char_traits@D@std@@V?$allocator@D@2@@std@@ULoggerInfo@log4z@zsummer@@U?$less@V?$basic_string@DU?$char_traits@D@std@@V?$allocator@D@2@@std@@@2@V?$allocator@U?$pair@$$CBV?$basic_string@DU?$char_traits@D@std@@V?$allocator@D@2@@std@@ULoggerInfo@log4z@zsummer@@@std@@@2@$0A@@std@@@std@@QAEXXZ 00433980 f i log4z.obj
 0001:000329e0       ?_Orphan_all@?$_Vector_alloc@U?$_Vec_base_types@PAULogData@log4z@zsummer@@V?$allocator@PAULogData@log4z@zsummer@@@std@@@std@@@std@@QAEXXZ 004339e0 f i log4z.obj
 0001:00032a40       ?_Orphan_me@_Iterator_base12@std@@QAEXXZ 00433a40 f i log4z.obj
 0001:00032b10       ?_Orphan_off@?$deque@PAULogData@log4z@zsummer@@V?$allocator@PAULogData@log4z@zsummer@@@std@@@std@@IBEXI@Z 00433b10 f i log4z.obj
 0001:00032cf0       ?_Orphan_ptr@?$_Tree@V?$_Tmap_traits@V?$basic_string@DU?$char_traits@D@std@@V?$allocator@D@2@@std@@HU?$less@V?$basic_string@DU?$char_traits@D@std@@V?$allocator@D@2@@std@@@2@V?$allocator@U?$pair@$$CBV?$basic_string@DU?$char_traits@D@std@@V?$allocator@D@2@@std@@H@std@@@2@$0A@@std@@@std@@IAEXPAU?$_Tree_node@U?$pair@$$CBV?$basic_string@DU?$char_traits@D@std@@V?$allocator@D@2@@std@@H@std@@PAX@2@@Z 00433cf0 f i log4z.obj
 0001:00032e70       ?_Orphan_ptr@?$_Tree@V?$_Tmap_traits@V?$basic_string@DU?$char_traits@D@std@@V?$allocator@D@2@@std@@ULoggerInfo@log4z@zsummer@@U?$less@V?$basic_string@DU?$char_traits@D@std@@V?$allocator@D@2@@std@@@2@V?$allocator@U?$pair@$$CBV?$basic_string@DU?$char_traits@D@std@@V?$allocator@D@2@@std@@ULoggerInfo@log4z@zsummer@@@std@@@2@$0A@@std@@@std@@IAEXPAU?$_Tree_node@U?$pair@$$CBV?$basic_string@DU?$char_traits@D@std@@V?$allocator@D@2@@std@@ULoggerInfo@log4z@zsummer@@@std@@PAX@2@@Z 00433e70 f i log4z.obj
 0001:00032ff0       ?_Orphan_ptr@?$list@U?$pair@_JV?$basic_string@DU?$char_traits@D@std@@V?$allocator@D@2@@std@@@std@@V?$allocator@U?$pair@_JV?$basic_string@DU?$char_traits@D@std@@V?$allocator@D@2@@std@@@std@@@2@@std@@QAEXPAU?$_List_node@U?$pair@_JV?$basic_string@DU?$char_traits@D@std@@V?$allocator@D@2@@std@@@std@@PAX@2@@Z 00433ff0 f i log4z.obj
 0001:00033170       ?_Orphan_range@?$vector@PAULogData@log4z@zsummer@@V?$allocator@PAULogData@log4z@zsummer@@@std@@@std@@IBEXPAPAULogData@log4z@zsummer@@0@Z 00434170 f i log4z.obj
 0001:000332e0       ?_Parent@?$_Tree_comp_alloc@V?$_Tmap_traits@V?$basic_string@DU?$char_traits@D@std@@V?$allocator@D@2@@std@@HU?$less@V?$basic_string@DU?$char_traits@D@std@@V?$allocator@D@2@@std@@@2@V?$allocator@U?$pair@$$CBV?$basic_string@DU?$char_traits@D@std@@V?$allocator@D@2@@std@@H@std@@@2@$0A@@std@@@std@@SAAAPAU?$_Tree_node@U?$pair@$$CBV?$basic_string@DU?$char_traits@D@std@@V?$allocator@D@2@@std@@H@std@@PAX@2@PAU32@@Z 004342e0 f i log4z.obj
 0001:00033330       ?_Parent@?$_Tree_comp_alloc@V?$_Tmap_traits@V?$basic_string@DU?$char_traits@D@std@@V?$allocator@D@2@@std@@ULoggerInfo@log4z@zsummer@@U?$less@V?$basic_string@DU?$char_traits@D@std@@V?$allocator@D@2@@std@@@2@V?$allocator@U?$pair@$$CBV?$basic_string@DU?$char_traits@D@std@@V?$allocator@D@2@@std@@ULoggerInfo@log4z@zsummer@@@std@@@2@$0A@@std@@@std@@SAAAPAU?$_Tree_node@U?$pair@$$CBV?$basic_string@DU?$char_traits@D@std@@V?$allocator@D@2@@std@@ULoggerInfo@log4z@zsummer@@@std@@PAX@2@PAU32@@Z 00434330 f i log4z.obj
 0001:00033380       ?_Parent@?$_Tree_val@U?$_Tree_simple_types@U?$pair@$$CBV?$basic_string@DU?$char_traits@D@std@@V?$allocator@D@2@@std@@H@std@@@std@@@std@@SAAAPAU?$_Tree_node@U?$pair@$$CBV?$basic_string@DU?$char_traits@D@std@@V?$allocator@D@2@@std@@H@std@@PAX@2@PAU32@@Z 00434380 f i log4z.obj
 0001:000333c0       ?_Parent@?$_Tree_val@U?$_Tree_simple_types@U?$pair@$$CBV?$basic_string@DU?$char_traits@D@std@@V?$allocator@D@2@@std@@ULoggerInfo@log4z@zsummer@@@std@@@std@@@std@@SAAAPAU?$_Tree_node@U?$pair@$$CBV?$basic_string@DU?$char_traits@D@std@@V?$allocator@D@2@@std@@ULoggerInfo@log4z@zsummer@@@std@@PAX@2@PAU32@@Z 004343c0 f i log4z.obj
 0001:00033400       ?_Prevnode@?$_List_alloc@U?$_List_base_types@U?$pair@_JV?$basic_string@DU?$char_traits@D@std@@V?$allocator@D@2@@std@@@std@@V?$allocator@U?$pair@_JV?$basic_string@DU?$char_traits@D@std@@V?$allocator@D@2@@std@@@std@@@2@@std@@@std@@SAAAPAU?$_List_node@U?$pair@_JV?$basic_string@DU?$char_traits@D@std@@V?$allocator@D@2@@std@@@std@@PAX@2@PAU32@@Z 00434400 f i log4z.obj
 0001:00033450       ?_Prevnode@?$_List_val@U?$_List_simple_types@U?$pair@_JV?$basic_string@DU?$char_traits@D@std@@V?$allocator@D@2@@std@@@std@@@std@@@std@@SAAAPAU?$_List_node@U?$pair@_JV?$basic_string@DU?$char_traits@D@std@@V?$allocator@D@2@@std@@@std@@PAX@2@PAU32@@Z 00434450 f i log4z.obj
 0001:00033490       ?_Reallocate@?$vector@PAULogData@log4z@zsummer@@V?$allocator@PAULogData@log4z@zsummer@@@std@@@std@@IAEXI@Z 00434490 f i log4z.obj
 0001:00033680       ?_Rechecked@?$_String_iterator@V?$_String_val@U?$_Simple_types@D@std@@@std@@@std@@QAEAAV12@PAD@Z 00434680 f i log4z.obj
 0001:000336d0       ?_Reserve@?$vector@PAULogData@log4z@zsummer@@V?$allocator@PAULogData@log4z@zsummer@@@std@@@std@@IAEXI@Z 004346d0 f i log4z.obj
 0001:00033780       ?_Right@?$_Tree_comp_alloc@V?$_Tmap_traits@V?$basic_string@DU?$char_traits@D@std@@V?$allocator@D@2@@std@@HU?$less@V?$basic_string@DU?$char_traits@D@std@@V?$allocator@D@2@@std@@@2@V?$allocator@U?$pair@$$CBV?$basic_string@DU?$char_traits@D@std@@V?$allocator@D@2@@std@@H@std@@@2@$0A@@std@@@std@@SAAAPAU?$_Tree_node@U?$pair@$$CBV?$basic_string@DU?$char_traits@D@std@@V?$allocator@D@2@@std@@H@std@@PAX@2@PAU32@@Z 00434780 f i log4z.obj
 0001:000337d0       ?_Right@?$_Tree_comp_alloc@V?$_Tmap_traits@V?$basic_string@DU?$char_traits@D@std@@V?$allocator@D@2@@std@@ULoggerInfo@log4z@zsummer@@U?$less@V?$basic_string@DU?$char_traits@D@std@@V?$allocator@D@2@@std@@@2@V?$allocator@U?$pair@$$CBV?$basic_string@DU?$char_traits@D@std@@V?$allocator@D@2@@std@@ULoggerInfo@log4z@zsummer@@@std@@@2@$0A@@std@@@std@@SAAAPAU?$_Tree_node@U?$pair@$$CBV?$basic_string@DU?$char_traits@D@std@@V?$allocator@D@2@@std@@ULoggerInfo@log4z@zsummer@@@std@@PAX@2@PAU32@@Z 004347d0 f i log4z.obj
 0001:00033820       ?_Right@?$_Tree_val@U?$_Tree_simple_types@U?$pair@$$CBV?$basic_string@DU?$char_traits@D@std@@V?$allocator@D@2@@std@@H@std@@@std@@@std@@SAAAPAU?$_Tree_node@U?$pair@$$CBV?$basic_string@DU?$char_traits@D@std@@V?$allocator@D@2@@std@@H@std@@PAX@2@PAU32@@Z 00434820 f i log4z.obj
 0001:00033860       ?_Right@?$_Tree_val@U?$_Tree_simple_types@U?$pair@$$CBV?$basic_string@DU?$char_traits@D@std@@V?$allocator@D@2@@std@@ULoggerInfo@log4z@zsummer@@@std@@@std@@@std@@SAAAPAU?$_Tree_node@U?$pair@$$CBV?$basic_string@DU?$char_traits@D@std@@V?$allocator@D@2@@std@@ULoggerInfo@log4z@zsummer@@@std@@PAX@2@PAU32@@Z 00434860 f i log4z.obj
 0001:000338a0       ?_Rmost@?$_Tree@V?$_Tmap_traits@V?$basic_string@DU?$char_traits@D@std@@V?$allocator@D@2@@std@@HU?$less@V?$basic_string@DU?$char_traits@D@std@@V?$allocator@D@2@@std@@@2@V?$allocator@U?$pair@$$CBV?$basic_string@DU?$char_traits@D@std@@V?$allocator@D@2@@std@@H@std@@@2@$0A@@std@@@std@@IBEAAPAU?$_Tree_node@U?$pair@$$CBV?$basic_string@DU?$char_traits@D@std@@V?$allocator@D@2@@std@@H@std@@PAX@2@XZ 004348a0 f i log4z.obj
 0001:00033900       ?_Rmost@?$_Tree@V?$_Tmap_traits@V?$basic_string@DU?$char_traits@D@std@@V?$allocator@D@2@@std@@ULoggerInfo@log4z@zsummer@@U?$less@V?$basic_string@DU?$char_traits@D@std@@V?$allocator@D@2@@std@@@2@V?$allocator@U?$pair@$$CBV?$basic_string@DU?$char_traits@D@std@@V?$allocator@D@2@@std@@ULoggerInfo@log4z@zsummer@@@std@@@2@$0A@@std@@@std@@IBEAAPAU?$_Tree_node@U?$pair@$$CBV?$basic_string@DU?$char_traits@D@std@@V?$allocator@D@2@@std@@ULoggerInfo@log4z@zsummer@@@std@@PAX@2@XZ 00434900 f i log4z.obj
 0001:00033960       ?_Root@?$_Tree@V?$_Tmap_traits@V?$basic_string@DU?$char_traits@D@std@@V?$allocator@D@2@@std@@HU?$less@V?$basic_string@DU?$char_traits@D@std@@V?$allocator@D@2@@std@@@2@V?$allocator@U?$pair@$$CBV?$basic_string@DU?$char_traits@D@std@@V?$allocator@D@2@@std@@H@std@@@2@$0A@@std@@@std@@IBEAAPAU?$_Tree_node@U?$pair@$$CBV?$basic_string@DU?$char_traits@D@std@@V?$allocator@D@2@@std@@H@std@@PAX@2@XZ 00434960 f i log4z.obj
 0001:000339c0       ?_Root@?$_Tree@V?$_Tmap_traits@V?$basic_string@DU?$char_traits@D@std@@V?$allocator@D@2@@std@@ULoggerInfo@log4z@zsummer@@U?$less@V?$basic_string@DU?$char_traits@D@std@@V?$allocator@D@2@@std@@@2@V?$allocator@U?$pair@$$CBV?$basic_string@DU?$char_traits@D@std@@V?$allocator@D@2@@std@@ULoggerInfo@log4z@zsummer@@@std@@@2@$0A@@std@@@std@@IBEAAPAU?$_Tree_node@U?$pair@$$CBV?$basic_string@DU?$char_traits@D@std@@V?$allocator@D@2@@std@@ULoggerInfo@log4z@zsummer@@@std@@PAX@2@XZ 004349c0 f i log4z.obj
 0001:00033a20       ?_Rrotate@?$_Tree@V?$_Tmap_traits@V?$basic_string@DU?$char_traits@D@std@@V?$allocator@D@2@@std@@HU?$less@V?$basic_string@DU?$char_traits@D@std@@V?$allocator@D@2@@std@@@2@V?$allocator@U?$pair@$$CBV?$basic_string@DU?$char_traits@D@std@@V?$allocator@D@2@@std@@H@std@@@2@$0A@@std@@@std@@IAEXPAU?$_Tree_node@U?$pair@$$CBV?$basic_string@DU?$char_traits@D@std@@V?$allocator@D@2@@std@@H@std@@PAX@2@@Z 00434a20 f i log4z.obj
 0001:00033bd0       ?_Rrotate@?$_Tree@V?$_Tmap_traits@V?$basic_string@DU?$char_traits@D@std@@V?$allocator@D@2@@std@@ULoggerInfo@log4z@zsummer@@U?$less@V?$basic_string@DU?$char_traits@D@std@@V?$allocator@D@2@@std@@@2@V?$allocator@U?$pair@$$CBV?$basic_string@DU?$char_traits@D@std@@V?$allocator@D@2@@std@@ULoggerInfo@log4z@zsummer@@@std@@@2@$0A@@std@@@std@@IAEXPAU?$_Tree_node@U?$pair@$$CBV?$basic_string@DU?$char_traits@D@std@@V?$allocator@D@2@@std@@ULoggerInfo@log4z@zsummer@@@std@@PAX@2@@Z 00434bd0 f i log4z.obj
 0001:00033d80       ?_Setcont@?$_Deque_const_iterator@V?$_Deque_val@U?$_Deque_simple_types@PAULogData@log4z@zsummer@@@std@@@std@@@std@@QAEXPBV?$_Deque_val@U?$_Deque_simple_types@PAULogData@log4z@zsummer@@@std@@@2@@Z 00434d80 f i log4z.obj
 0001:00033de0       ?_Swap_all@?$_Deque_alloc@U?$_Deque_base_types@PAULogData@log4z@zsummer@@V?$allocator@PAULogData@log4z@zsummer@@@std@@@std@@@std@@QAEXAAV12@@Z 00434de0 f i log4z.obj
 0001:00033e50       ?_Swap_all@?$_List_alloc@U?$_List_base_types@U?$pair@_JV?$basic_string@DU?$char_traits@D@std@@V?$allocator@D@2@@std@@@std@@V?$allocator@U?$pair@_JV?$basic_string@DU?$char_traits@D@std@@V?$allocator@D@2@@std@@@std@@@2@@std@@@std@@QAEXAAV12@@Z 00434e50 f i log4z.obj
 0001:00033ec0       ?_Swap_all@_Container_base12@std@@QAEXAAU12@@Z 00434ec0 f i log4z.obj
 0001:00033fc0       ?_Tidy@?$_Tree@V?$_Tmap_traits@V?$basic_string@DU?$char_traits@D@std@@V?$allocator@D@2@@std@@HU?$less@V?$basic_string@DU?$char_traits@D@std@@V?$allocator@D@2@@std@@@2@V?$allocator@U?$pair@$$CBV?$basic_string@DU?$char_traits@D@std@@V?$allocator@D@2@@std@@H@std@@@2@$0A@@std@@@std@@IAEXXZ 00434fc0 f i log4z.obj
 0001:00034150       ?_Tidy@?$_Tree@V?$_Tmap_traits@V?$basic_string@DU?$char_traits@D@std@@V?$allocator@D@2@@std@@ULoggerInfo@log4z@zsummer@@U?$less@V?$basic_string@DU?$char_traits@D@std@@V?$allocator@D@2@@std@@@2@V?$allocator@U?$pair@$$CBV?$basic_string@DU?$char_traits@D@std@@V?$allocator@D@2@@std@@ULoggerInfo@log4z@zsummer@@@std@@@2@$0A@@std@@@std@@IAEXXZ 00435150 f i log4z.obj
 0001:000342e0       ?_Tidy@?$deque@PAULogData@log4z@zsummer@@V?$allocator@PAULogData@log4z@zsummer@@@std@@@std@@IAEXXZ 004352e0 f i log4z.obj
 0001:00034490       ?_Tidy@?$list@U?$pair@_JV?$basic_string@DU?$char_traits@D@std@@V?$allocator@D@2@@std@@@std@@V?$allocator@U?$pair@_JV?$basic_string@DU?$char_traits@D@std@@V?$allocator@D@2@@std@@@std@@@2@@std@@QAEXXZ 00435490 f i log4z.obj
 0001:000344e0       ?_Tidy@?$vector@PAULogData@log4z@zsummer@@V?$allocator@PAULogData@log4z@zsummer@@@std@@@std@@IAEXXZ 004354e0 f i log4z.obj
 0001:000345e0       ?_Traits_compare@?$basic_string@DU?$char_traits@D@std@@V?$allocator@D@2@@std@@SAHQBDI0I@Z 004355e0 f i log4z.obj
 0001:000346a0       ?_Unchecked@?$_List_const_iterator@V?$_List_val@U?$_List_simple_types@U?$pair@_JV?$basic_string@DU?$char_traits@D@std@@V?$allocator@D@2@@std@@@std@@@std@@@std@@@std@@QBE?AV?$_List_unchecked_const_iterator@V?$_List_val@U?$_List_simple_types@U?$pair@_JV?$basic_string@DU?$char_traits@D@std@@V?$allocator@D@2@@std@@@std@@@std@@@std@@U_Iterator_base0@2@@2@XZ 004356a0 f i log4z.obj
 0001:00034710       ?_Unchecked@?$_String_iterator@V?$_String_val@U?$_Simple_types@D@std@@@std@@@std@@QBEPADXZ 00435710 f i log4z.obj
 0001:00034770       ?_Unchecked_end@?$list@U?$pair@_JV?$basic_string@DU?$char_traits@D@std@@V?$allocator@D@2@@std@@@std@@V?$allocator@U?$pair@_JV?$basic_string@DU?$char_traits@D@std@@V?$allocator@D@2@@std@@@std@@@2@@std@@QAE?AV?$_List_unchecked_iterator@V?$_List_val@U?$_List_simple_types@U?$pair@_JV?$basic_string@DU?$char_traits@D@std@@V?$allocator@D@2@@std@@@std@@@std@@@std@@@2@XZ 00435770 f i log4z.obj
 0001:000347e0       ?_Unchecked_erase@?$list@U?$pair@_JV?$basic_string@DU?$char_traits@D@std@@V?$allocator@D@2@@std@@@std@@V?$allocator@U?$pair@_JV?$basic_string@DU?$char_traits@D@std@@V?$allocator@D@2@@std@@@std@@@2@@std@@QAEXV?$_List_unchecked_const_iterator@V?$_List_val@U?$_List_simple_types@U?$pair@_JV?$basic_string@DU?$char_traits@D@std@@V?$allocator@D@2@@std@@@std@@@std@@@std@@U_Iterator_base0@2@@2@@Z 004357e0 f i log4z.obj
 0001:000348e0       ?_Unlinknode@?$list@U?$pair@_JV?$basic_string@DU?$char_traits@D@std@@V?$allocator@D@2@@std@@@std@@V?$allocator@U?$pair@_JV?$basic_string@DU?$char_traits@D@std@@V?$allocator@D@2@@std@@@std@@@2@@std@@QAEPAU?$_List_node@U?$pair@_JV?$basic_string@DU?$char_traits@D@std@@V?$allocator@D@2@@std@@@std@@PAX@2@V?$_List_const_iterator@V?$_List_val@U?$_List_simple_types@U?$pair@_JV?$basic_string@DU?$char_traits@D@std@@V?$allocator@D@2@@std@@@std@@@std@@@std@@@2@@Z 004358e0 f i log4z.obj
 0001:00034a90       ?_Unused_capacity@?$vector@PAULogData@log4z@zsummer@@V?$allocator@PAULogData@log4z@zsummer@@@std@@@std@@QBEIXZ 00435a90 f i log4z.obj
 0001:00034b00       ?_Xlen@?$basic_string@DU?$char_traits@D@std@@V?$allocator@D@2@@std@@QBEXXZ 00435b00 f i log4z.obj
 0001:00034b60       ?_Xlen@?$deque@PAULogData@log4z@zsummer@@V?$allocator@PAULogData@log4z@zsummer@@@std@@@std@@IBEXXZ 00435b60 f i log4z.obj
 0001:00034bc0       ?_Xlen@?$vector@PAULogData@log4z@zsummer@@V?$allocator@PAULogData@log4z@zsummer@@@std@@@std@@IBEXXZ 00435bc0 f i log4z.obj
 0001:00034c20       ?_Xran@?$basic_string@DU?$char_traits@D@std@@V?$allocator@D@2@@std@@QBEXXZ 00435c20 f i log4z.obj
 0001:00034c80       ?address@?$_Wrap_alloc@V?$allocator@D@std@@@std@@QBEPADAAD@Z 00435c80 f i log4z.obj
 0001:00034ce0       ?allocate@?$_Wrap_alloc@V?$allocator@D@std@@@std@@QAEPADI@Z 00435ce0 f i log4z.obj
 0001:00034d40       ?allocate@?$_Wrap_alloc@V?$allocator@PAPAULogData@log4z@zsummer@@@std@@@std@@QAEPAPAPAULogData@log4z@zsummer@@I@Z 00435d40 f i log4z.obj
 0001:00034da0       ?allocate@?$_Wrap_alloc@V?$allocator@PAULogData@log4z@zsummer@@@std@@@std@@QAEPAPAULogData@log4z@zsummer@@I@Z 00435da0 f i log4z.obj
 0001:00034e00       ?allocate@?$_Wrap_alloc@V?$allocator@U?$_List_node@U?$pair@_JV?$basic_string@DU?$char_traits@D@std@@V?$allocator@D@2@@std@@@std@@PAX@std@@@std@@@std@@QAEPAU?$_List_node@U?$pair@_JV?$basic_string@DU?$char_traits@D@std@@V?$allocator@D@2@@std@@@std@@PAX@2@I@Z 00435e00 f i log4z.obj
 0001:00034e60       ?allocate@?$_Wrap_alloc@V?$allocator@U?$_Tree_node@U?$pair@$$CBV?$basic_string@DU?$char_traits@D@std@@V?$allocator@D@2@@std@@H@std@@PAX@std@@@std@@@std@@QAEPAU?$_Tree_node@U?$pair@$$CBV?$basic_string@DU?$char_traits@D@std@@V?$allocator@D@2@@std@@H@std@@PAX@2@I@Z 00435e60 f i log4z.obj
 0001:00034ec0       ?allocate@?$_Wrap_alloc@V?$allocator@U?$_Tree_node@U?$pair@$$CBV?$basic_string@DU?$char_traits@D@std@@V?$allocator@D@2@@std@@ULoggerInfo@log4z@zsummer@@@std@@PAX@std@@@std@@@std@@QAEPAU?$_Tree_node@U?$pair@$$CBV?$basic_string@DU?$char_traits@D@std@@V?$allocator@D@2@@std@@ULoggerInfo@log4z@zsummer@@@std@@PAX@2@I@Z 00435ec0 f i log4z.obj
 0001:00034f20       ?allocate@?$_Wrap_alloc@V?$allocator@U_Container_proxy@std@@@std@@@std@@QAEPAU_Container_proxy@2@I@Z 00435f20 f i log4z.obj
 0001:00034f80       ?allocate@?$allocator@D@std@@QAEPADI@Z 00435f80 f i log4z.obj
 0001:00034fe0       ?allocate@?$allocator@PAPAULogData@log4z@zsummer@@@std@@QAEPAPAPAULogData@log4z@zsummer@@I@Z 00435fe0 f i log4z.obj
 0001:00035040       ?allocate@?$allocator@PAULogData@log4z@zsummer@@@std@@QAEPAPAULogData@log4z@zsummer@@I@Z 00436040 f i log4z.obj
 0001:000350a0       ?allocate@?$allocator@U?$_List_node@U?$pair@_JV?$basic_string@DU?$char_traits@D@std@@V?$allocator@D@2@@std@@@std@@PAX@std@@@std@@QAEPAU?$_List_node@U?$pair@_JV?$basic_string@DU?$char_traits@D@std@@V?$allocator@D@2@@std@@@std@@PAX@2@I@Z 004360a0 f i log4z.obj
 0001:00035100       ?allocate@?$allocator@U?$_Tree_node@U?$pair@$$CBV?$basic_string@DU?$char_traits@D@std@@V?$allocator@D@2@@std@@H@std@@PAX@std@@@std@@QAEPAU?$_Tree_node@U?$pair@$$CBV?$basic_string@DU?$char_traits@D@std@@V?$allocator@D@2@@std@@H@std@@PAX@2@I@Z 00436100 f i log4z.obj
 0001:00035160       ?allocate@?$allocator@U?$_Tree_node@U?$pair@$$CBV?$basic_string@DU?$char_traits@D@std@@V?$allocator@D@2@@std@@ULoggerInfo@log4z@zsummer@@@std@@PAX@std@@@std@@QAEPAU?$_Tree_node@U?$pair@$$CBV?$basic_string@DU?$char_traits@D@std@@V?$allocator@D@2@@std@@ULoggerInfo@log4z@zsummer@@@std@@PAX@2@I@Z 00436160 f i log4z.obj
 0001:000351c0       ?allocate@?$allocator@U_Container_proxy@std@@@std@@QAEPAU_Container_proxy@2@I@Z 004361c0 f i log4z.obj
 0001:00035220       ?append@?$basic_string@DU?$char_traits@D@std@@V?$allocator@D@2@@std@@QAEAAV12@ABV12@II@Z 00436220 f i log4z.obj
 0001:00035340       ?append@?$basic_string@DU?$char_traits@D@std@@V?$allocator@D@2@@std@@QAEAAV12@PBD@Z 00436340 f i log4z.obj
 0001:000353d0       ?append@?$basic_string@DU?$char_traits@D@std@@V?$allocator@D@2@@std@@QAEAAV12@PBDI@Z 004363d0 f i log4z.obj
 0001:00035540       ?assign@?$basic_string@DU?$char_traits@D@std@@V?$allocator@D@2@@std@@QAEAAV12@ABV12@@Z 00436540 f i log4z.obj
 0001:000355a0       ?assign@?$basic_string@DU?$char_traits@D@std@@V?$allocator@D@2@@std@@QAEAAV12@ABV12@II@Z 004365a0 f i log4z.obj
 0001:000356a0       ?assign@?$basic_string@DU?$char_traits@D@std@@V?$allocator@D@2@@std@@QAEAAV12@PBD@Z 004366a0 f i log4z.obj
 0001:00035730       ?assign@?$basic_string@DU?$char_traits@D@std@@V?$allocator@D@2@@std@@QAEAAV12@PBDI@Z 00436730 f i log4z.obj
 0001:00035850       ?at@?$basic_string@DU?$char_traits@D@std@@V?$allocator@D@2@@std@@QAEAADI@Z 00436850 f i log4z.obj
 0001:000358c0       ?back@?$list@U?$pair@_JV?$basic_string@DU?$char_traits@D@std@@V?$allocator@D@2@@std@@@std@@V?$allocator@U?$pair@_JV?$basic_string@DU?$char_traits@D@std@@V?$allocator@D@2@@std@@@std@@@2@@std@@QAEAAU?$pair@_JV?$basic_string@DU?$char_traits@D@std@@V?$allocator@D@2@@std@@@2@XZ 004368c0 f i log4z.obj
 0001:000359b0       ?back@?$vector@PAULogData@log4z@zsummer@@V?$allocator@PAULogData@log4z@zsummer@@@std@@@std@@QAEAAPAULogData@log4z@zsummer@@XZ 004369b0 f i log4z.obj
 0001:00035ae0       ?begin@?$_Tree@V?$_Tmap_traits@V?$basic_string@DU?$char_traits@D@std@@V?$allocator@D@2@@std@@HU?$less@V?$basic_string@DU?$char_traits@D@std@@V?$allocator@D@2@@std@@@2@V?$allocator@U?$pair@$$CBV?$basic_string@DU?$char_traits@D@std@@V?$allocator@D@2@@std@@H@std@@@2@$0A@@std@@@std@@QAE?AV?$_Tree_iterator@V?$_Tree_val@U?$_Tree_simple_types@U?$pair@$$CBV?$basic_string@DU?$char_traits@D@std@@V?$allocator@D@2@@std@@H@std@@@std@@@std@@@2@XZ 00436ae0 f i log4z.obj
 0001:00035b90       ?begin@?$_Tree@V?$_Tmap_traits@V?$basic_string@DU?$char_traits@D@std@@V?$allocator@D@2@@std@@ULoggerInfo@log4z@zsummer@@U?$less@V?$basic_string@DU?$char_traits@D@std@@V?$allocator@D@2@@std@@@2@V?$allocator@U?$pair@$$CBV?$basic_string@DU?$char_traits@D@std@@V?$allocator@D@2@@std@@ULoggerInfo@log4z@zsummer@@@std@@@2@$0A@@std@@@std@@QAE?AV?$_Tree_iterator@V?$_Tree_val@U?$_Tree_simple_types@U?$pair@$$CBV?$basic_string@DU?$char_traits@D@std@@V?$allocator@D@2@@std@@ULoggerInfo@log4z@zsummer@@@std@@@std@@@std@@@2@XZ 00436b90 f i log4z.obj
 0001:00035c40       ?begin@?$basic_string@DU?$char_traits@D@std@@V?$allocator@D@2@@std@@QAE?AV?$_String_iterator@V?$_String_val@U?$_Simple_types@D@std@@@std@@@2@XZ 00436c40 f i log4z.obj
 0001:00035d00       ?begin@?$deque@PAULogData@log4z@zsummer@@V?$allocator@PAULogData@log4z@zsummer@@@std@@@std@@QAE?AV?$_Deque_iterator@V?$_Deque_val@U?$_Deque_simple_types@PAULogData@log4z@zsummer@@@std@@@std@@@2@XZ 00436d00 f i log4z.obj
 0001:00035db0       ?begin@?$list@U?$pair@_JV?$basic_string@DU?$char_traits@D@std@@V?$allocator@D@2@@std@@@std@@V?$allocator@U?$pair@_JV?$basic_string@DU?$char_traits@D@std@@V?$allocator@D@2@@std@@@std@@@2@@std@@QAE?AV?$_List_iterator@V?$_List_val@U?$_List_simple_types@U?$pair@_JV?$basic_string@DU?$char_traits@D@std@@V?$allocator@D@2@@std@@@std@@@std@@@std@@@2@XZ 00436db0 f i log4z.obj
 0001:00035e60       ?begin@?$list@U?$pair@_JV?$basic_string@DU?$char_traits@D@std@@V?$allocator@D@2@@std@@@std@@V?$allocator@U?$pair@_JV?$basic_string@DU?$char_traits@D@std@@V?$allocator@D@2@@std@@@std@@@2@@std@@QBE?AV?$_List_const_iterator@V?$_List_val@U?$_List_simple_types@U?$pair@_JV?$basic_string@DU?$char_traits@D@std@@V?$allocator@D@2@@std@@@std@@@std@@@std@@@2@XZ 00436e60 f i log4z.obj
 0001:00035f10       ?c_str@?$basic_string@DU?$char_traits@D@std@@V?$allocator@D@2@@std@@QBEPBDXZ 00436f10 f i log4z.obj
 0001:00035fa0       ?capacity@?$vector@PAULogData@log4z@zsummer@@V?$allocator@PAULogData@log4z@zsummer@@@std@@@std@@QBEIXZ 00436fa0 f i log4z.obj
 0001:00036010       ?clean@Log4zFileHandler@log4z@zsummer@@QAEXHH@Z 00437010 f i log4z.obj
 0001:00036050       ?clear@?$_Tree@V?$_Tmap_traits@V?$basic_string@DU?$char_traits@D@std@@V?$allocator@D@2@@std@@HU?$less@V?$basic_string@DU?$char_traits@D@std@@V?$allocator@D@2@@std@@@2@V?$allocator@U?$pair@$$CBV?$basic_string@DU?$char_traits@D@std@@V?$allocator@D@2@@std@@H@std@@@2@$0A@@std@@@std@@QAEXXZ 00437050 f i log4z.obj
 0001:00036160       ?clear@?$_Tree@V?$_Tmap_traits@V?$basic_string@DU?$char_traits@D@std@@V?$allocator@D@2@@std@@ULoggerInfo@log4z@zsummer@@U?$less@V?$basic_string@DU?$char_traits@D@std@@V?$allocator@D@2@@std@@@2@V?$allocator@U?$pair@$$CBV?$basic_string@DU?$char_traits@D@std@@V?$allocator@D@2@@std@@ULoggerInfo@log4z@zsummer@@@std@@@2@$0A@@std@@@std@@QAEXXZ 00437160 f i log4z.obj
 0001:00036270       ?clear@?$basic_string@DU?$char_traits@D@std@@V?$allocator@D@2@@std@@QAEXXZ 00437270 f i log4z.obj
 0001:00036300       ?clear@?$list@U?$pair@_JV?$basic_string@DU?$char_traits@D@std@@V?$allocator@D@2@@std@@@std@@V?$allocator@U?$pair@_JV?$basic_string@DU?$char_traits@D@std@@V?$allocator@D@2@@std@@@std@@@2@@std@@QAEXXZ 00437300 f i log4z.obj
 0001:00036450       ?close@Log4zFileHandler@log4z@zsummer@@QAEXXZ 00437450 f i log4z.obj
 0001:000364e0       ?closeLogger@LogerManager@log4z@zsummer@@IAE_NH@Z 004374e0 f   log4z.obj
 0001:000365b0       ?compare@?$basic_string@DU?$char_traits@D@std@@V?$allocator@D@2@@std@@QBEHABV12@@Z 004375b0 f i log4z.obj
 0001:00036670       ?compare@?$basic_string@DU?$char_traits@D@std@@V?$allocator@D@2@@std@@QBEHPBD@Z 00437670 f i log4z.obj
 0001:00036710       ?compare@?$char_traits@D@std@@SAHPBD0I@Z 00437710 f i log4z.obj
 0001:00036790       ?config@LogerManager@log4z@zsummer@@UAE_NPBD@Z 00437790 f   log4z.obj
 0001:00036a20       ?configFromString@LogerManager@log4z@zsummer@@UAE_NPBD@Z 00437a20 f   log4z.obj
 0001:00036ab0       ?configFromStringImpl@LogerManager@log4z@zsummer@@QAE_NV?$basic_string@DU?$char_traits@D@std@@V?$allocator@D@2@@std@@_N@Z 00437ab0 f   log4z.obj
 0001:000370e0       ?create@SemHelper@log4z@zsummer@@QAE_NH@Z 004380e0 f   log4z.obj
 0001:00037180       ?createLogger@LogerManager@log4z@zsummer@@UAEHPBD@Z 00438180 f   log4z.obj
 0001:00037750       ?deallocate@?$_Wrap_alloc@V?$allocator@PAPAULogData@log4z@zsummer@@@std@@@std@@QAEXPAPAPAULogData@log4z@zsummer@@I@Z 00438750 f i log4z.obj
 0001:000377b0       ?deallocate@?$_Wrap_alloc@V?$allocator@PAULogData@log4z@zsummer@@@std@@@std@@QAEXPAPAULogData@log4z@zsummer@@I@Z 004387b0 f i log4z.obj
 0001:00037810       ?deallocate@?$_Wrap_alloc@V?$allocator@U?$_List_node@U?$pair@_JV?$basic_string@DU?$char_traits@D@std@@V?$allocator@D@2@@std@@@std@@PAX@std@@@std@@@std@@QAEXPAU?$_List_node@U?$pair@_JV?$basic_string@DU?$char_traits@D@std@@V?$allocator@D@2@@std@@@std@@PAX@2@I@Z 00438810 f i log4z.obj
 0001:00037870       ?deallocate@?$_Wrap_alloc@V?$allocator@U?$_Tree_node@U?$pair@$$CBV?$basic_string@DU?$char_traits@D@std@@V?$allocator@D@2@@std@@H@std@@PAX@std@@@std@@@std@@QAEXPAU?$_Tree_node@U?$pair@$$CBV?$basic_string@DU?$char_traits@D@std@@V?$allocator@D@2@@std@@H@std@@PAX@2@I@Z 00438870 f i log4z.obj
 0001:000378d0       ?deallocate@?$_Wrap_alloc@V?$allocator@U?$_Tree_node@U?$pair@$$CBV?$basic_string@DU?$char_traits@D@std@@V?$allocator@D@2@@std@@ULoggerInfo@log4z@zsummer@@@std@@PAX@std@@@std@@@std@@QAEXPAU?$_Tree_node@U?$pair@$$CBV?$basic_string@DU?$char_traits@D@std@@V?$allocator@D@2@@std@@ULoggerInfo@log4z@zsummer@@@std@@PAX@2@I@Z 004388d0 f i log4z.obj
 0001:00037930       ?deallocate@?$allocator@PAPAULogData@log4z@zsummer@@@std@@QAEXPAPAPAULogData@log4z@zsummer@@I@Z 00438930 f i log4z.obj
 0001:00037990       ?deallocate@?$allocator@PAULogData@log4z@zsummer@@@std@@QAEXPAPAULogData@log4z@zsummer@@I@Z 00438990 f i log4z.obj
 0001:000379f0       ?deallocate@?$allocator@U?$_List_node@U?$pair@_JV?$basic_string@DU?$char_traits@D@std@@V?$allocator@D@2@@std@@@std@@PAX@std@@@std@@QAEXPAU?$_List_node@U?$pair@_JV?$basic_string@DU?$char_traits@D@std@@V?$allocator@D@2@@std@@@std@@PAX@2@I@Z 004389f0 f i log4z.obj
 0001:00037a50       ?deallocate@?$allocator@U?$_Tree_node@U?$pair@$$CBV?$basic_string@DU?$char_traits@D@std@@V?$allocator@D@2@@std@@H@std@@PAX@std@@@std@@QAEXPAU?$_Tree_node@U?$pair@$$CBV?$basic_string@DU?$char_traits@D@std@@V?$allocator@D@2@@std@@H@std@@PAX@2@I@Z 00438a50 f i log4z.obj
 0001:00037ab0       ?deallocate@?$allocator@U?$_Tree_node@U?$pair@$$CBV?$basic_string@DU?$char_traits@D@std@@V?$allocator@D@2@@std@@ULoggerInfo@log4z@zsummer@@@std@@PAX@std@@@std@@QAEXPAU?$_Tree_node@U?$pair@$$CBV?$basic_string@DU?$char_traits@D@std@@V?$allocator@D@2@@std@@ULoggerInfo@log4z@zsummer@@@std@@PAX@2@I@Z 00438ab0 f i log4z.obj
 0001:00037b20       ?empty@?$basic_string@DU?$char_traits@D@std@@V?$allocator@D@2@@std@@QBE_NXZ 00438b20 f i log4z.obj
 0001:00037ba0       ?empty@?$deque@PAULogData@log4z@zsummer@@V?$allocator@PAULogData@log4z@zsummer@@@std@@@std@@QBE_NXZ 00438ba0 f i log4z.obj
 0001:00037c20       ?empty@?$list@U?$pair@_JV?$basic_string@DU?$char_traits@D@std@@V?$allocator@D@2@@std@@@std@@V?$allocator@U?$pair@_JV?$basic_string@DU?$char_traits@D@std@@V?$allocator@D@2@@std@@@std@@@2@@std@@QBE_NXZ 00438c20 f i log4z.obj
 0001:00037ca0       ?empty@?$vector@PAULogData@log4z@zsummer@@V?$allocator@PAULogData@log4z@zsummer@@@std@@@std@@QBE_NXZ 00438ca0 f i log4z.obj
 0001:00037d30       ?enableLogger@LogerManager@log4z@zsummer@@UAE_NH_N@Z 00438d30 f   log4z.obj
 0001:00037e60       ?end@?$_Tree@V?$_Tmap_traits@V?$basic_string@DU?$char_traits@D@std@@V?$allocator@D@2@@std@@HU?$less@V?$basic_string@DU?$char_traits@D@std@@V?$allocator@D@2@@std@@@2@V?$allocator@U?$pair@$$CBV?$basic_string@DU?$char_traits@D@std@@V?$allocator@D@2@@std@@H@std@@@2@$0A@@std@@@std@@QAE?AV?$_Tree_iterator@V?$_Tree_val@U?$_Tree_simple_types@U?$pair@$$CBV?$basic_string@DU?$char_traits@D@std@@V?$allocator@D@2@@std@@H@std@@@std@@@std@@@2@XZ 00438e60 f i log4z.obj
 0001:00037f10       ?end@?$_Tree@V?$_Tmap_traits@V?$basic_string@DU?$char_traits@D@std@@V?$allocator@D@2@@std@@ULoggerInfo@log4z@zsummer@@U?$less@V?$basic_string@DU?$char_traits@D@std@@V?$allocator@D@2@@std@@@2@V?$allocator@U?$pair@$$CBV?$basic_string@DU?$char_traits@D@std@@V?$allocator@D@2@@std@@ULoggerInfo@log4z@zsummer@@@std@@@2@$0A@@std@@@std@@QAE?AV?$_Tree_iterator@V?$_Tree_val@U?$_Tree_simple_types@U?$pair@$$CBV?$basic_string@DU?$char_traits@D@std@@V?$allocator@D@2@@std@@ULoggerInfo@log4z@zsummer@@@std@@@std@@@std@@@2@XZ 00438f10 f i log4z.obj
 0001:00037fc0       ?end@?$basic_string@DU?$char_traits@D@std@@V?$allocator@D@2@@std@@QAE?AV?$_String_iterator@V?$_String_val@U?$_Simple_types@D@std@@@std@@@2@XZ 00438fc0 f i log4z.obj
 0001:00038090       ?end@?$list@U?$pair@_JV?$basic_string@DU?$char_traits@D@std@@V?$allocator@D@2@@std@@@std@@V?$allocator@U?$pair@_JV?$basic_string@DU?$char_traits@D@std@@V?$allocator@D@2@@std@@@std@@@2@@std@@QAE?AV?$_List_iterator@V?$_List_val@U?$_List_simple_types@U?$pair@_JV?$basic_string@DU?$char_traits@D@std@@V?$allocator@D@2@@std@@@std@@@std@@@std@@@2@XZ 00439090 f i log4z.obj
 0001:00038140       ?end@?$list@U?$pair@_JV?$basic_string@DU?$char_traits@D@std@@V?$allocator@D@2@@std@@@std@@V?$allocator@U?$pair@_JV?$basic_string@DU?$char_traits@D@std@@V?$allocator@D@2@@std@@@std@@@2@@std@@QBE?AV?$_List_const_iterator@V?$_List_val@U?$_List_simple_types@U?$pair@_JV?$basic_string@DU?$char_traits@D@std@@V?$allocator@D@2@@std@@@std@@@std@@@std@@@2@XZ 00439140 f i log4z.obj
 0001:000381f0       ?end@?$vector@PAULogData@log4z@zsummer@@V?$allocator@PAULogData@log4z@zsummer@@@std@@@std@@QAE?AV?$_Vector_iterator@V?$_Vector_val@U?$_Simple_types@PAULogData@log4z@zsummer@@@std@@@std@@@2@XZ 004391f0 f i log4z.obj
 0001:000382a0       ?eq@?$char_traits@D@std@@SA_NABD0@Z 004392a0 f i log4z.obj
 0001:00038310       ?erase@?$_Tree@V?$_Tmap_traits@V?$basic_string@DU?$char_traits@D@std@@V?$allocator@D@2@@std@@HU?$less@V?$basic_string@DU?$char_traits@D@std@@V?$allocator@D@2@@std@@@2@V?$allocator@U?$pair@$$CBV?$basic_string@DU?$char_traits@D@std@@V?$allocator@D@2@@std@@H@std@@@2@$0A@@std@@@std@@QAE?AV?$_Tree_iterator@V?$_Tree_val@U?$_Tree_simple_types@U?$pair@$$CBV?$basic_string@DU?$char_traits@D@std@@V?$allocator@D@2@@std@@H@std@@@std@@@std@@@2@V?$_Tree_const_iterator@V?$_Tree_val@U?$_Tree_simple_types@U?$pair@$$CBV?$basic_string@DU?$char_traits@D@std@@V?$allocator@D@2@@std@@H@std@@@std@@@std@@@2@0@Z 00439310 f i log4z.obj
 0001:00038630       ?erase@?$_Tree@V?$_Tmap_traits@V?$basic_string@DU?$char_traits@D@std@@V?$allocator@D@2@@std@@HU?$less@V?$basic_string@DU?$char_traits@D@std@@V?$allocator@D@2@@std@@@2@V?$allocator@U?$pair@$$CBV?$basic_string@DU?$char_traits@D@std@@V?$allocator@D@2@@std@@H@std@@@2@$0A@@std@@@std@@QAE?AV?$_Tree_iterator@V?$_Tree_val@U?$_Tree_simple_types@U?$pair@$$CBV?$basic_string@DU?$char_traits@D@std@@V?$allocator@D@2@@std@@H@std@@@std@@@std@@@2@V?$_Tree_const_iterator@V?$_Tree_val@U?$_Tree_simple_types@U?$pair@$$CBV?$basic_string@DU?$char_traits@D@std@@V?$allocator@D@2@@std@@H@std@@@std@@@std@@@2@@Z 00439630 f i log4z.obj
 0001:000390c0       ?erase@?$_Tree@V?$_Tmap_traits@V?$basic_string@DU?$char_traits@D@std@@V?$allocator@D@2@@std@@ULoggerInfo@log4z@zsummer@@U?$less@V?$basic_string@DU?$char_traits@D@std@@V?$allocator@D@2@@std@@@2@V?$allocator@U?$pair@$$CBV?$basic_string@DU?$char_traits@D@std@@V?$allocator@D@2@@std@@ULoggerInfo@log4z@zsummer@@@std@@@2@$0A@@std@@@std@@QAE?AV?$_Tree_iterator@V?$_Tree_val@U?$_Tree_simple_types@U?$pair@$$CBV?$basic_string@DU?$char_traits@D@std@@V?$allocator@D@2@@std@@ULoggerInfo@log4z@zsummer@@@std@@@std@@@std@@@2@V?$_Tree_const_iterator@V?$_Tree_val@U?$_Tree_simple_types@U?$pair@$$CBV?$basic_string@DU?$char_traits@D@std@@V?$allocator@D@2@@std@@ULoggerInfo@log4z@zsummer@@@std@@@std@@@std@@@2@0@Z 0043a0c0 f i log4z.obj
 0001:000393e0       ?erase@?$_Tree@V?$_Tmap_traits@V?$basic_string@DU?$char_traits@D@std@@V?$allocator@D@2@@std@@ULoggerInfo@log4z@zsummer@@U?$less@V?$basic_string@DU?$char_traits@D@std@@V?$allocator@D@2@@std@@@2@V?$allocator@U?$pair@$$CBV?$basic_string@DU?$char_traits@D@std@@V?$allocator@D@2@@std@@ULoggerInfo@log4z@zsummer@@@std@@@2@$0A@@std@@@std@@QAE?AV?$_Tree_iterator@V?$_Tree_val@U?$_Tree_simple_types@U?$pair@$$CBV?$basic_string@DU?$char_traits@D@std@@V?$allocator@D@2@@std@@ULoggerInfo@log4z@zsummer@@@std@@@std@@@std@@@2@V?$_Tree_const_iterator@V?$_Tree_val@U?$_Tree_simple_types@U?$pair@$$CBV?$basic_string@DU?$char_traits@D@std@@V?$allocator@D@2@@std@@ULoggerInfo@log4z@zsummer@@@std@@@std@@@std@@@2@@Z 0043a3e0 f i log4z.obj
 0001:00039e70       ?erase@?$basic_string@DU?$char_traits@D@std@@V?$allocator@D@2@@std@@QAEAAV12@I@Z 0043ae70 f i log4z.obj
 0001:00039ee0       ?erase@?$basic_string@DU?$char_traits@D@std@@V?$allocator@D@2@@std@@QAEAAV12@II@Z 0043aee0 f i log4z.obj
 0001:00039fc0       ?erase@?$list@U?$pair@_JV?$basic_string@DU?$char_traits@D@std@@V?$allocator@D@2@@std@@@std@@V?$allocator@U?$pair@_JV?$basic_string@DU?$char_traits@D@std@@V?$allocator@D@2@@std@@@std@@@2@@std@@QAE?AV?$_List_iterator@V?$_List_val@U?$_List_simple_types@U?$pair@_JV?$basic_string@DU?$char_traits@D@std@@V?$allocator@D@2@@std@@@std@@@std@@@std@@@2@V?$_List_const_iterator@V?$_List_val@U?$_List_simple_types@U?$pair@_JV?$basic_string@DU?$char_traits@D@std@@V?$allocator@D@2@@std@@@std@@@std@@@std@@@2@@Z 0043afc0 f i log4z.obj
 0001:0003a100       ?find@?$_Tree@V?$_Tmap_traits@V?$basic_string@DU?$char_traits@D@std@@V?$allocator@D@2@@std@@HU?$less@V?$basic_string@DU?$char_traits@D@std@@V?$allocator@D@2@@std@@@2@V?$allocator@U?$pair@$$CBV?$basic_string@DU?$char_traits@D@std@@V?$allocator@D@2@@std@@H@std@@@2@$0A@@std@@@std@@QAE?AV?$_Tree_iterator@V?$_Tree_val@U?$_Tree_simple_types@U?$pair@$$CBV?$basic_string@DU?$char_traits@D@std@@V?$allocator@D@2@@std@@H@std@@@std@@@std@@@2@ABV?$basic_string@DU?$char_traits@D@std@@V?$allocator@D@2@@2@@Z 0043b100 f i log4z.obj
 0001:0003a400       ?find@?$_Tree@V?$_Tmap_traits@V?$basic_string@DU?$char_traits@D@std@@V?$allocator@D@2@@std@@ULoggerInfo@log4z@zsummer@@U?$less@V?$basic_string@DU?$char_traits@D@std@@V?$allocator@D@2@@std@@@2@V?$allocator@U?$pair@$$CBV?$basic_string@DU?$char_traits@D@std@@V?$allocator@D@2@@std@@ULoggerInfo@log4z@zsummer@@@std@@@2@$0A@@std@@@std@@QAE?AV?$_Tree_iterator@V?$_Tree_val@U?$_Tree_simple_types@U?$pair@$$CBV?$basic_string@DU?$char_traits@D@std@@V?$allocator@D@2@@std@@ULoggerInfo@log4z@zsummer@@@std@@@std@@@std@@@2@ABV?$basic_string@DU?$char_traits@D@std@@V?$allocator@D@2@@2@@Z 0043b400 f i log4z.obj
 0001:0003a700       ?find@?$basic_string@DU?$char_traits@D@std@@V?$allocator@D@2@@std@@QBEIDI@Z 0043b700 f i log4z.obj
 0001:0003a760       ?find@?$basic_string@DU?$char_traits@D@std@@V?$allocator@D@2@@std@@QBEIPBDI@Z 0043b760 f i log4z.obj
 0001:0003a7f0       ?find@?$basic_string@DU?$char_traits@D@std@@V?$allocator@D@2@@std@@QBEIPBDII@Z 0043b7f0 f i log4z.obj
 0001:0003a980       ?find@?$char_traits@D@std@@SAPBDPBDIABD@Z 0043b980 f i log4z.obj
 0001:0003aa10       ?findLogger@LogerManager@log4z@zsummer@@UAEHPBD@Z 0043ba10 f   log4z.obj
 0001:0003ae00       ?flush@Log4zFileHandler@log4z@zsummer@@QAEXXZ 0043be00 f i log4z.obj
 0001:0003ae70       ?freeLogData@LogerManager@log4z@zsummer@@MAEXPAULogData@23@@Z 0043be70 f   log4z.obj
 0001:0003afa0       ?front@?$deque@PAULogData@log4z@zsummer@@V?$allocator@PAULogData@log4z@zsummer@@@std@@@std@@QAEAAPAULogData@log4z@zsummer@@XZ 0043bfa0 f i log4z.obj
 0001:0003b080       ?front@?$list@U?$pair@_JV?$basic_string@DU?$char_traits@D@std@@V?$allocator@D@2@@std@@@std@@V?$allocator@U?$pair@_JV?$basic_string@DU?$char_traits@D@std@@V?$allocator@D@2@@std@@@std@@@2@@std@@QAEAAU?$pair@_JV?$basic_string@DU?$char_traits@D@std@@V?$allocator@D@2@@std@@@2@XZ 0043c080 f i log4z.obj
 0001:0003b160       ?getCurrentLen@Log4zStream@log4z@zsummer@@QAEHXZ 0043c160 f i log4z.obj
 0001:0003b1b0       ?getInstance@ILog4zManager@log4z@zsummer@@SAPAV123@XZ 0043c1b0 f   log4z.obj
 0001:0003b710       ?getPtr@ILog4zManager@log4z@zsummer@@SAPAV123@XZ 0043c710 f i log4z.obj
 0001:0003b760       ?getStatusActiveLoggers@LogerManager@log4z@zsummer@@UAEIXZ 0043c760 f   log4z.obj
 0001:0003b7f0       ?getStatusTotalPopQueue@LogerManager@log4z@zsummer@@UAE_KXZ 0043c7f0 f i log4z.obj
 0001:0003b840       ?getStatusTotalPushQueue@LogerManager@log4z@zsummer@@UAE_KXZ 0043c840 f i log4z.obj
 0001:0003b890       ?getStatusTotalWriteBytes@LogerManager@log4z@zsummer@@UAE_KXZ 0043c890 f i log4z.obj
 0001:0003b8e0       ?getStatusTotalWriteCount@LogerManager@log4z@zsummer@@UAE_KXZ 0043c8e0 f i log4z.obj
 0001:0003b930       ?get_allocator@?$basic_string@DU?$char_traits@D@std@@V?$allocator@D@2@@std@@QBE?AV?$allocator@D@2@XZ 0043c930 f i log4z.obj
 0001:0003b9e0       ?hotChange@LogerManager@log4z@zsummer@@QAE_NHW4LogDataType@23@HABV?$basic_string@DU?$char_traits@D@std@@V?$allocator@D@2@@std@@@Z 0043c9e0 f   log4z.obj
 0001:0003bca0       ?isLoggerEnable@LogerManager@log4z@zsummer@@UAE_NH@Z 0043cca0 f   log4z.obj
 0001:0003bd10       ?isOpen@Log4zFileHandler@log4z@zsummer@@QAE_NXZ 0043cd10 f i log4z.obj
 0001:0003bd80       ?length@?$basic_string@DU?$char_traits@D@std@@V?$allocator@D@2@@std@@QBEIXZ 0043cd80 f i log4z.obj
 0001:0003bde0       ?length@?$char_traits@D@std@@SAIPBD@Z 0043cde0 f i log4z.obj
 0001:0003be60       ?lock@LockHelper@log4z@zsummer@@QAEXXZ 0043ce60 f   log4z.obj
 0001:0003bec0       ?lower_bound@?$_Tree@V?$_Tmap_traits@V?$basic_string@DU?$char_traits@D@std@@V?$allocator@D@2@@std@@HU?$less@V?$basic_string@DU?$char_traits@D@std@@V?$allocator@D@2@@std@@@2@V?$allocator@U?$pair@$$CBV?$basic_string@DU?$char_traits@D@std@@V?$allocator@D@2@@std@@H@std@@@2@$0A@@std@@@std@@QAE?AV?$_Tree_iterator@V?$_Tree_val@U?$_Tree_simple_types@U?$pair@$$CBV?$basic_string@DU?$char_traits@D@std@@V?$allocator@D@2@@std@@H@std@@@std@@@std@@@2@ABV?$basic_string@DU?$char_traits@D@std@@V?$allocator@D@2@@2@@Z 0043cec0 f i log4z.obj
 0001:0003bf50       ?lower_bound@?$_Tree@V?$_Tmap_traits@V?$basic_string@DU?$char_traits@D@std@@V?$allocator@D@2@@std@@ULoggerInfo@log4z@zsummer@@U?$less@V?$basic_string@DU?$char_traits@D@std@@V?$allocator@D@2@@std@@@2@V?$allocator@U?$pair@$$CBV?$basic_string@DU?$char_traits@D@std@@V?$allocator@D@2@@std@@ULoggerInfo@log4z@zsummer@@@std@@@2@$0A@@std@@@std@@QAE?AV?$_Tree_iterator@V?$_Tree_val@U?$_Tree_simple_types@U?$pair@$$CBV?$basic_string@DU?$char_traits@D@std@@V?$allocator@D@2@@std@@ULoggerInfo@log4z@zsummer@@@std@@@std@@@std@@@2@ABV?$basic_string@DU?$char_traits@D@std@@V?$allocator@D@2@@2@@Z 0043cf50 f i log4z.obj
 0001:0003bfe0       ?makeLogData@LogerManager@log4z@zsummer@@MAEPAULogData@23@HH@Z 0043cfe0 f   log4z.obj
 0001:0003c7d0       ?max_size@?$_Tree@V?$_Tmap_traits@V?$basic_string@DU?$char_traits@D@std@@V?$allocator@D@2@@std@@HU?$less@V?$basic_string@DU?$char_traits@D@std@@V?$allocator@D@2@@std@@@2@V?$allocator@U?$pair@$$CBV?$basic_string@DU?$char_traits@D@std@@V?$allocator@D@2@@std@@H@std@@@2@$0A@@std@@@std@@QBEIXZ 0043d7d0 f i log4z.obj
 0001:0003c840       ?max_size@?$_Tree@V?$_Tmap_traits@V?$basic_string@DU?$char_traits@D@std@@V?$allocator@D@2@@std@@ULoggerInfo@log4z@zsummer@@U?$less@V?$basic_string@DU?$char_traits@D@std@@V?$allocator@D@2@@std@@@2@V?$allocator@U?$pair@$$CBV?$basic_string@DU?$char_traits@D@std@@V?$allocator@D@2@@std@@ULoggerInfo@log4z@zsummer@@@std@@@2@$0A@@std@@@std@@QBEIXZ 0043d840 f i log4z.obj
 0001:0003c8b0       ?max_size@?$_Wrap_alloc@V?$allocator@D@std@@@std@@QBEIU_Nil@2@@Z 0043d8b0 f i log4z.obj
 0001:0003c910       ?max_size@?$_Wrap_alloc@V?$allocator@PAULogData@log4z@zsummer@@@std@@@std@@QBEIU_Nil@2@@Z 0043d910 f i log4z.obj
 0001:0003c970       ?max_size@?$_Wrap_alloc@V?$allocator@U?$_List_node@U?$pair@_JV?$basic_string@DU?$char_traits@D@std@@V?$allocator@D@2@@std@@@std@@PAX@std@@@std@@@std@@QBEIU_Nil@2@@Z 0043d970 f i log4z.obj
 0001:0003c9d0       ?max_size@?$_Wrap_alloc@V?$allocator@U?$_Tree_node@U?$pair@$$CBV?$basic_string@DU?$char_traits@D@std@@V?$allocator@D@2@@std@@H@std@@PAX@std@@@std@@@std@@QBEIU_Nil@2@@Z 0043d9d0 f i log4z.obj
 0001:0003ca30       ?max_size@?$_Wrap_alloc@V?$allocator@U?$_Tree_node@U?$pair@$$CBV?$basic_string@DU?$char_traits@D@std@@V?$allocator@D@2@@std@@ULoggerInfo@log4z@zsummer@@@std@@PAX@std@@@std@@@std@@QBEIU_Nil@2@@Z 0043da30 f i log4z.obj
 0001:0003ca90       ?max_size@?$allocator@D@std@@QBEIXZ 0043da90 f i log4z.obj
 0001:0003cad0       ?max_size@?$allocator@PAULogData@log4z@zsummer@@@std@@QBEIXZ 0043dad0 f i log4z.obj
 0001:0003cb10       ?max_size@?$allocator@U?$_List_node@U?$pair@_JV?$basic_string@DU?$char_traits@D@std@@V?$allocator@D@2@@std@@@std@@PAX@std@@@std@@QBEIXZ 0043db10 f i log4z.obj
 0001:0003cb50       ?max_size@?$allocator@U?$_Tree_node@U?$pair@$$CBV?$basic_string@DU?$char_traits@D@std@@V?$allocator@D@2@@std@@H@std@@PAX@std@@@std@@QBEIXZ 0043db50 f i log4z.obj
 0001:0003cb90       ?max_size@?$allocator@U?$_Tree_node@U?$pair@$$CBV?$basic_string@DU?$char_traits@D@std@@V?$allocator@D@2@@std@@ULoggerInfo@log4z@zsummer@@@std@@PAX@std@@@std@@QBEIXZ 0043db90 f i log4z.obj
 0001:0003cbd0       ?max_size@?$allocator_traits@V?$allocator@D@std@@@std@@SAIABV?$allocator@D@2@@Z 0043dbd0 f i log4z.obj
 0001:0003cc20       ?max_size@?$allocator_traits@V?$allocator@PAULogData@log4z@zsummer@@@std@@@std@@SAIABV?$allocator@PAULogData@log4z@zsummer@@@2@@Z 0043dc20 f i log4z.obj
 0001:0003cc70       ?max_size@?$allocator_traits@V?$allocator@U?$_List_node@U?$pair@_JV?$basic_string@DU?$char_traits@D@std@@V?$allocator@D@2@@std@@@std@@PAX@std@@@std@@@std@@SAIABV?$allocator@U?$_List_node@U?$pair@_JV?$basic_string@DU?$char_traits@D@std@@V?$allocator@D@2@@std@@@std@@PAX@std@@@2@@Z 0043dc70 f i log4z.obj
 0001:0003ccc0       ?max_size@?$allocator_traits@V?$allocator@U?$_Tree_node@U?$pair@$$CBV?$basic_string@DU?$char_traits@D@std@@V?$allocator@D@2@@std@@H@std@@PAX@std@@@std@@@std@@SAIABV?$allocator@U?$_Tree_node@U?$pair@$$CBV?$basic_string@DU?$char_traits@D@std@@V?$allocator@D@2@@std@@H@std@@PAX@std@@@2@@Z 0043dcc0 f i log4z.obj
 0001:0003cd10       ?max_size@?$allocator_traits@V?$allocator@U?$_Tree_node@U?$pair@$$CBV?$basic_string@DU?$char_traits@D@std@@V?$allocator@D@2@@std@@ULoggerInfo@log4z@zsummer@@@std@@PAX@std@@@std@@@std@@SAIABV?$allocator@U?$_Tree_node@U?$pair@$$CBV?$basic_string@DU?$char_traits@D@std@@V?$allocator@D@2@@std@@ULoggerInfo@log4z@zsummer@@@std@@PAX@std@@@2@@Z 0043dd10 f i log4z.obj
 0001:0003cd60       ?max_size@?$basic_string@DU?$char_traits@D@std@@V?$allocator@D@2@@std@@QBEIXZ 0043dd60 f i log4z.obj
 0001:0003ce00       ?max_size@?$deque@PAULogData@log4z@zsummer@@V?$allocator@PAULogData@log4z@zsummer@@@std@@@std@@QBEIXZ 0043de00 f i log4z.obj
 0001:0003ce70       ?max_size@?$list@U?$pair@_JV?$basic_string@DU?$char_traits@D@std@@V?$allocator@D@2@@std@@@std@@V?$allocator@U?$pair@_JV?$basic_string@DU?$char_traits@D@std@@V?$allocator@D@2@@std@@@std@@@2@@std@@QBEIXZ 0043de70 f i log4z.obj
 0001:0003cee0       ?max_size@?$vector@PAULogData@log4z@zsummer@@V?$allocator@PAULogData@log4z@zsummer@@@std@@@std@@QBEIXZ 0043dee0 f i log4z.obj
 0001:0003cf50       ?move@?$char_traits@D@std@@SAPADPADPBDI@Z 0043df50 f i log4z.obj
 0001:0003cfe0       ?onHotChange@LogerManager@log4z@zsummer@@IAE_NHW4LogDataType@23@HABV?$basic_string@DU?$char_traits@D@std@@V?$allocator@D@2@@std@@@Z 0043dfe0 f   log4z.obj
 0001:0003d250       ?open@Log4zFileHandler@log4z@zsummer@@QAEJPBD0@Z 0043e250 f i log4z.obj
 0001:0003d3a0       ?openLogger@LogerManager@log4z@zsummer@@IAE_NPAULogData@23@@Z 0043e3a0 f   log4z.obj
 0001:0003ee70       ?pointer_to@?$pointer_traits@PAD@std@@SAPADAAD@Z 0043fe70 f i log4z.obj
 0001:0003eec0       ?pointer_to@?$pointer_traits@PAU?$pair@$$CBV?$basic_string@DU?$char_traits@D@std@@V?$allocator@D@2@@std@@H@std@@@std@@SAPAU?$pair@$$CBV?$basic_string@DU?$char_traits@D@std@@V?$allocator@D@2@@std@@H@2@AAU32@@Z 0043fec0 f i log4z.obj
 0001:0003ef10       ?pointer_to@?$pointer_traits@PAU?$pair@$$CBV?$basic_string@DU?$char_traits@D@std@@V?$allocator@D@2@@std@@ULoggerInfo@log4z@zsummer@@@std@@@std@@SAPAU?$pair@$$CBV?$basic_string@DU?$char_traits@D@std@@V?$allocator@D@2@@std@@ULoggerInfo@log4z@zsummer@@@2@AAU32@@Z 0043ff10 f i log4z.obj
 0001:0003ef60       ?popLog@LogerManager@log4z@zsummer@@IAE_NAAPAULogData@23@@Z 0043ff60 f   log4z.obj
 0001:0003f0d0       ?pop_back@?$deque@PAULogData@log4z@zsummer@@V?$allocator@PAULogData@log4z@zsummer@@@std@@@std@@QAEXXZ 004400d0 f i log4z.obj
 0001:0003f230       ?pop_back@?$vector@PAULogData@log4z@zsummer@@V?$allocator@PAULogData@log4z@zsummer@@@std@@@std@@QAEXXZ 00440230 f i log4z.obj
 0001:0003f340       ?pop_front@?$deque@PAULogData@log4z@zsummer@@V?$allocator@PAULogData@log4z@zsummer@@@std@@@std@@QAEXXZ 00440340 f i log4z.obj
 0001:0003f4c0       ?pop_front@?$list@U?$pair@_JV?$basic_string@DU?$char_traits@D@std@@V?$allocator@D@2@@std@@@std@@V?$allocator@U?$pair@_JV?$basic_string@DU?$char_traits@D@std@@V?$allocator@D@2@@std@@@std@@@2@@std@@QAEXXZ 004404c0 f i log4z.obj
 0001:0003f5d0       ?post@SemHelper@log4z@zsummer@@QAE_NXZ 004405d0 f   log4z.obj
 0001:0003f660       ?prePushLog@LogerManager@log4z@zsummer@@UAE_NHH@Z 00440660 f   log4z.obj
 0001:0003f820       ?pushLog@LogerManager@log4z@zsummer@@UAE_NPAULogData@23@PBDH@Z 00440820 f   log4z.obj
 0001:0003fda0       ?push_back@?$deque@PAULogData@log4z@zsummer@@V?$allocator@PAULogData@log4z@zsummer@@@std@@@std@@QAEXABQAULogData@log4z@zsummer@@@Z 00440da0 f i log4z.obj
 0001:0003ff80       ?push_back@?$list@U?$pair@_JV?$basic_string@DU?$char_traits@D@std@@V?$allocator@D@2@@std@@@std@@V?$allocator@U?$pair@_JV?$basic_string@DU?$char_traits@D@std@@V?$allocator@D@2@@std@@@std@@@2@@std@@QAEX$$QAU?$pair@_JV?$basic_string@DU?$char_traits@D@std@@V?$allocator@D@2@@std@@@2@@Z 00440f80 f i log4z.obj
 0001:00040010       ?push_back@?$vector@PAULogData@log4z@zsummer@@V?$allocator@PAULogData@log4z@zsummer@@@std@@@std@@QAEXABQAULogData@log4z@zsummer@@@Z 00441010 f i log4z.obj
 0001:00040220       ?readContent@Log4zFileHandler@log4z@zsummer@@QAE?BV?$basic_string@DU?$char_traits@D@std@@V?$allocator@D@2@@std@@XZ 00441220 f i log4z.obj
 0001:00040410       ?removeFile@Log4zFileHandler@log4z@zsummer@@QAE_NABV?$basic_string@DU?$char_traits@D@std@@V?$allocator@D@2@@std@@@Z 00441410 f i log4z.obj
 0001:000404b0       ?replace@?$basic_string@DU?$char_traits@D@std@@V?$allocator@D@2@@std@@QAEAAV12@IIABV12@II@Z 004414b0 f i log4z.obj
 0001:00040880       ?replace@?$basic_string@DU?$char_traits@D@std@@V?$allocator@D@2@@std@@QAEAAV12@IIPBDI@Z 00441880 f i log4z.obj
 0001:00040ab0       ?replace@?$basic_string@DU?$char_traits@D@std@@V?$allocator@D@2@@std@@QAEAAV12@V?$_String_const_iterator@V?$_String_val@U?$_Simple_types@D@std@@@std@@@2@0V?$_String_iterator@V?$_String_val@U?$_Simple_types@D@std@@@std@@@2@1@Z 00441ab0 f i log4z.obj
 0001:00040ca0       ?rfind@?$basic_string@DU?$char_traits@D@std@@V?$allocator@D@2@@std@@QBEIPBDI@Z 00441ca0 f i log4z.obj
 0001:00040d30       ?rfind@?$basic_string@DU?$char_traits@D@std@@V?$allocator@D@2@@std@@QBEIPBDII@Z 00441d30 f i log4z.obj
 0001:00040ef0       ?run@LogerManager@log4z@zsummer@@MAEXXZ 00441ef0 f   log4z.obj
 0001:00041a50       ?select_on_container_copy_construction@?$_Wrap_alloc@V?$allocator@D@std@@@std@@QBE?AU12@U_Nil@2@@Z 00442a50 f i log4z.obj
 0001:00041ac0       ?select_on_container_copy_construction@?$_Wrap_alloc@V?$allocator@U?$_List_node@U?$pair@_JV?$basic_string@DU?$char_traits@D@std@@V?$allocator@D@2@@std@@@std@@PAX@std@@@std@@@std@@QBE?AU12@U_Nil@2@@Z 00442ac0 f i log4z.obj
 0001:00041b30       ?select_on_container_copy_construction@?$allocator_traits@V?$allocator@D@std@@@std@@SA?AV?$allocator@D@2@ABV32@@Z 00442b30 f i log4z.obj
 0001:00041b90       ?select_on_container_copy_construction@?$allocator_traits@V?$allocator@U?$_List_node@U?$pair@_JV?$basic_string@DU?$char_traits@D@std@@V?$allocator@D@2@@std@@@std@@PAX@std@@@std@@@std@@SA?AV?$allocator@U?$_List_node@U?$pair@_JV?$basic_string@DU?$char_traits@D@std@@V?$allocator@D@2@@std@@@std@@PAX@std@@@2@ABV32@@Z 00442b90 f i log4z.obj
 0001:00041bf0       ?setAutoUpdate@LogerManager@log4z@zsummer@@UAE_NH@Z 00442bf0 f   log4z.obj
 0001:00041c40       ?setLoggerDisplay@LogerManager@log4z@zsummer@@UAE_NH_N@Z 00442c40 f   log4z.obj
 0001:00041d40       ?setLoggerFileLine@LogerManager@log4z@zsummer@@UAE_NH_N@Z 00442d40 f   log4z.obj
 0001:00041e40       ?setLoggerLevel@LogerManager@log4z@zsummer@@UAE_NHH@Z 00442e40 f   log4z.obj
 0001:00041f90       ?setLoggerLimitsize@LogerManager@log4z@zsummer@@UAE_NHI@Z 00442f90 f   log4z.obj
 0001:000420a0       ?setLoggerMonthdir@LogerManager@log4z@zsummer@@UAE_NH_N@Z 004430a0 f   log4z.obj
 0001:000421a0       ?setLoggerName@LogerManager@log4z@zsummer@@UAE_NHPBD@Z 004431a0 f   log4z.obj
 0001:000422d0       ?setLoggerOutFile@LogerManager@log4z@zsummer@@UAE_NH_N@Z 004432d0 f   log4z.obj
 0001:000423d0       ?setLoggerPath@LogerManager@log4z@zsummer@@UAE_NHPBD@Z 004433d0 f   log4z.obj
 0001:00042570       ?setLoggerReserveTime@LogerManager@log4z@zsummer@@UAE_NH_J@Z 00443570 f   log4z.obj
 0001:00042670       ?showColorText@LogerManager@log4z@zsummer@@IAEXPBDH@Z 00443670 f   log4z.obj
 0001:00042820       ?size@?$_Tree@V?$_Tmap_traits@V?$basic_string@DU?$char_traits@D@std@@V?$allocator@D@2@@std@@HU?$less@V?$basic_string@DU?$char_traits@D@std@@V?$allocator@D@2@@std@@@2@V?$allocator@U?$pair@$$CBV?$basic_string@DU?$char_traits@D@std@@V?$allocator@D@2@@std@@H@std@@@2@$0A@@std@@@std@@QBEIXZ 00443820 f i log4z.obj
 0001:00042880       ?size@?$deque@PAULogData@log4z@zsummer@@V?$allocator@PAULogData@log4z@zsummer@@@std@@@std@@QBEIXZ 00443880 f i log4z.obj
 0001:000428e0       ?size@?$list@U?$pair@_JV?$basic_string@DU?$char_traits@D@std@@V?$allocator@D@2@@std@@@std@@V?$allocator@U?$pair@_JV?$basic_string@DU?$char_traits@D@std@@V?$allocator@D@2@@std@@@std@@@2@@std@@QBEIXZ 004438e0 f i log4z.obj
 0001:00042940       ?size@?$vector@PAULogData@log4z@zsummer@@V?$allocator@PAULogData@log4z@zsummer@@@std@@@std@@QBEIXZ 00443940 f i log4z.obj
 0001:00042c30       ?start@LogerManager@log4z@zsummer@@UAE_NXZ 00443c30 f   log4z.obj
 0001:00042d10       ?start@ThreadHelper@log4z@zsummer@@QAE_NXZ 00443d10 f   log4z.obj
 0001:00042dd0       ?stop@LogerManager@log4z@zsummer@@UAE_NXZ 00443dd0 f   log4z.obj
 0001:00042ec0       ?substr@?$basic_string@DU?$char_traits@D@std@@V?$allocator@D@2@@std@@QBE?AV12@II@Z 00443ec0 f i log4z.obj
 0001:00042f60       ?swap@?$deque@PAULogData@log4z@zsummer@@V?$allocator@PAULogData@log4z@zsummer@@@std@@@std@@QAEXAAV12@@Z 00443f60 f i log4z.obj
 0001:00043460       ?unLock@LockHelper@log4z@zsummer@@QAEXXZ 00444460 f   log4z.obj
 0001:000434c0       ?updateConfig@LogerManager@log4z@zsummer@@UAE_NXZ 004444c0 f   log4z.obj
 0001:00043700       ?wait@SemHelper@log4z@zsummer@@QAE_NH@Z 00444700 f   log4z.obj
 0001:00043790       ?wait@ThreadHelper@log4z@zsummer@@QAE_NXZ 00444790 f   log4z.obj
 0001:00043800       ?write@Log4zFileHandler@log4z@zsummer@@QAEXPBDI@Z 00444800 f i log4z.obj
 0001:000438a0       ?writeChar@Log4zStream@log4z@zsummer@@QAEAAV123@D@Z 004448a0 f i log4z.obj
 0001:00043920       ?writeLongLong@Log4zStream@log4z@zsummer@@QAEAAV123@_JHH@Z 00444920 f i log4z.obj
 0001:000439c0       ?writeString@Log4zStream@log4z@zsummer@@QAEAAV123@PBD@Z 004449c0 f i log4z.obj
 0001:00043a30       ?writeString@Log4zStream@log4z@zsummer@@QAEAAV123@PBDI@Z 00444a30 f i log4z.obj
 0001:00043ae0       ?writeULongLong@Log4zStream@log4z@zsummer@@QAEAAV123@_KHH@Z 00444ae0 f i log4z.obj
 0001:00044110       __vfprintf_l               00445110 f i log4z.obj
 0001:00044250       _printf                    00445250 f i log4z.obj
 0001:00044340       ??0CMiniDump@@QAE@XZ       00445340 f   MiniDump.obj
 0001:00044380       ??1CMiniDump@@QAE@XZ       00445380 f   MiniDump.obj
 0001:000443c0       ?ApplicationCrashHandler@CMiniDump@@CAJPAU_EXCEPTION_POINTERS@@@Z 004453c0 f   MiniDump.obj
 0001:00044640       ?CreateDumpFile@CMiniDump@@CAXPBDPAU_EXCEPTION_POINTERS@@@Z 00445640 f   MiniDump.obj
 0001:00044770       ?EnableAutoDump@CMiniDump@@SAXE@Z 00445770 f   MiniDump.obj
 0001:000447e0       ?OnBnClickedOk@CAddPatch@@QAEXXZ 004457e0 f   AddPatch.obj
 0001:00044a30       ?OnCbnSelchangeCombo1@CAddPatch@@QAEXXZ 00445a30 f   AddPatch.obj
 0001:00044ae0       ?OnBnClickedOk2@CAddPatch@@QAEXXZ 00445ae0 f   AddPatch.obj
 0001:00044b30       ??$?0$$V@?$_Compressed_pair@U?$_Wrap_alloc@V?$allocator@E@std@@@std@@V?$_Vector_val@U?$_Simple_types@E@std@@@2@$00@std@@QAE@U_Zero_then_variadic_args_t@1@@Z 00445b30 f i AddPatch.obj
 0001:00044b90       ??$?0$$V@?$_Compressed_pair@U?$_Wrap_alloc@V?$allocator@U?$_List_node@U_ShellCode@@PAX@std@@@std@@@std@@V?$_List_val@U?$_List_simple_types@U_ShellCode@@@std@@@2@$00@std@@QAE@U_Zero_then_variadic_args_t@1@@Z 00445b90 f i AddPatch.obj
 0001:00044bf0       ??$?0AAU?$_Wrap_alloc@V?$allocator@E@std@@@std@@@?$_Wrap_alloc@V?$allocator@U_Container_proxy@std@@@std@@@std@@QAE@AAU?$_Wrap_alloc@V?$allocator@E@std@@@1@@Z 00445bf0 f i AddPatch.obj
 0001:00044c60       ??$?0AAU?$_Wrap_alloc@V?$allocator@U?$_List_node@U_ShellCode@@PAX@std@@@std@@@std@@@?$_Wrap_alloc@V?$allocator@U_Container_proxy@std@@@std@@@std@@QAE@AAU?$_Wrap_alloc@V?$allocator@U?$_List_node@U_ShellCode@@PAX@std@@@std@@@1@@Z 00445c60 f i AddPatch.obj
 0001:00044cd0       ??$?0E@?$allocator@U_Container_proxy@std@@@std@@QAE@ABV?$allocator@E@1@@Z 00445cd0 f i AddPatch.obj
 0001:00044d10       ??$?0U?$_List_node@U_ShellCode@@PAX@std@@@?$allocator@U_Container_proxy@std@@@std@@QAE@ABV?$allocator@U?$_List_node@U_ShellCode@@PAX@std@@@1@@Z 00445d10 f i AddPatch.obj
 0001:00044d50       ??$?0U?$_Wrap_alloc@V?$allocator@E@std@@@std@@$$V@?$_Compressed_pair@U?$_Wrap_alloc@V?$allocator@E@std@@@std@@V?$_Vector_val@U?$_Simple_types@E@std@@@2@$00@std@@QAE@U_One_then_variadic_args_t@1@$$QAU?$_Wrap_alloc@V?$allocator@E@std@@@1@@Z 00445d50 f i AddPatch.obj
 0001:00044dc0       ??$?0U?$_Wrap_alloc@V?$allocator@E@std@@@std@@X@?$_Vector_alloc@U?$_Vec_base_types@EV?$allocator@E@std@@@std@@@std@@QAE@$$QAU?$_Wrap_alloc@V?$allocator@E@std@@@1@@Z 00445dc0 f i AddPatch.obj
 0001:00044e80       ??$?0V?$allocator@E@std@@@?$_Wrap_alloc@V?$allocator@E@std@@@std@@QAE@$$QAV?$allocator@E@1@@Z 00445e80 f i AddPatch.obj
 0001:00044ef0       ??$_Buynode@ABU_ShellCode@@@?$_List_buy@U_ShellCode@@V?$allocator@U_ShellCode@@@std@@@std@@QAEPAU?$_List_node@U_ShellCode@@PAX@1@PAU21@0ABU_ShellCode@@@Z 00445ef0 f i AddPatch.obj
 0001:00045030       ??$_Copy_memmove@PAEPAE@std@@YAPAEPAE00@Z 00446030 f i AddPatch.obj
 0001:000450c0       ??$_Copy_memmove@PBEPAE@std@@YAPAEPBE0PAE@Z 004460c0 f i AddPatch.obj
 0001:00045150       ??$_Destroy_range1@V?$allocator@E@std@@PAE@std@@YAXPAE0AAU?$_Wrap_alloc@V?$allocator@E@std@@@0@U?$integral_constant@_N$00@0@@Z 00446150 f i AddPatch.obj
 0001:00045180       ??$_Destroy_range@V?$allocator@E@std@@PAE@std@@YAXPAE0AAU?$_Wrap_alloc@V?$allocator@E@std@@@0@@Z 00446180 f i AddPatch.obj
 0001:000451f0       ??$_Insert@ABU_ShellCode@@@?$list@U_ShellCode@@V?$allocator@U_ShellCode@@@std@@@std@@QAEXV?$_List_unchecked_const_iterator@V?$_List_val@U?$_List_simple_types@U_ShellCode@@@std@@@std@@U_Iterator_base0@2@@1@ABU_ShellCode@@@Z 004461f0 f i AddPatch.obj
 0001:000452c0       ??$_Ptr_copy_cat@$$CBEE@std@@YA?AU_Really_trivial_ptr_iterator_tag@0@ABQBEABQAE@Z 004462c0 f i AddPatch.obj
 0001:00045300       ??$_Ptr_move_cat@EE@std@@YA?AU_Really_trivial_ptr_iterator_tag@0@ABQAE0@Z 00446300 f i AddPatch.obj
 0001:00045340       ??$_Rechecked@PAEPAE@std@@YAAAPAEAAPAEPAE@Z 00446340 f i AddPatch.obj
 0001:00045380       ??$_Ucopy@V?$_Vector_const_iterator@V?$_Vector_val@U?$_Simple_types@E@std@@@std@@@std@@@?$vector@EV?$allocator@E@std@@@std@@IAEPAEV?$_Vector_const_iterator@V?$_Vector_val@U?$_Simple_types@E@std@@@std@@@1@0PAE@Z 00446380 f i AddPatch.obj
 0001:000454c0       ??$_Umove@PAE@?$vector@EV?$allocator@E@std@@@std@@IAEPAEPAE00@Z 004464c0 f i AddPatch.obj
 0001:00045530       ??$_Unchecked@PAE@std@@YAPAEPAE@Z 00446530 f i AddPatch.obj
 0001:00045570       ??$_Unchecked@V?$_Vector_val@U?$_Simple_types@E@std@@@std@@@std@@YAPBEV?$_Vector_const_iterator@V?$_Vector_val@U?$_Simple_types@E@std@@@std@@@0@@Z 00446570 f i AddPatch.obj
 0001:00045620       ??$_Uninitialized_copy@V?$_Vector_const_iterator@V?$_Vector_val@U?$_Simple_types@E@std@@@std@@@std@@PAEV?$allocator@E@2@@std@@YAPAEV?$_Vector_const_iterator@V?$_Vector_val@U?$_Simple_types@E@std@@@std@@@0@0PAEAAU?$_Wrap_alloc@V?$allocator@E@std@@@0@@Z 00446620 f i AddPatch.obj
 0001:00045790       ??$_Uninitialized_copy_al_unchecked1@$$CBEEV?$allocator@E@std@@@std@@YAPAEPBE0PAEAAU?$_Wrap_alloc@V?$allocator@E@std@@@0@U_Really_trivial_ptr_iterator_tag@0@U?$integral_constant@_N$00@0@@Z 00446790 f i AddPatch.obj
 0001:000457f0       ??$_Uninitialized_copy_al_unchecked@PBEPAEV?$allocator@E@std@@@std@@YAPAEPBE0PAEAAU?$_Wrap_alloc@V?$allocator@E@std@@@0@@Z 004467f0 f i AddPatch.obj
 0001:00045880       ??$_Uninitialized_default_fill_n1@PAEIV?$allocator@E@std@@@std@@YAXPAEIAAU?$_Wrap_alloc@V?$allocator@E@std@@@0@U?$integral_constant@_N$00@0@@Z 00446880 f i AddPatch.obj
 0001:000458e0       ??$_Uninitialized_default_fill_n@PAEIV?$allocator@E@std@@@std@@YAXPAEIAAU?$_Wrap_alloc@V?$allocator@E@std@@@0@@Z 004468e0 f i AddPatch.obj
 0001:00045950       ??$_Uninitialized_move@PAEPAEV?$allocator@E@std@@@std@@YAPAEPAE00AAU?$_Wrap_alloc@V?$allocator@E@std@@@0@@Z 00446950 f i AddPatch.obj
 0001:000459f0       ??$_Uninitialized_move_al_unchecked1@EEV?$allocator@E@std@@@std@@YAPAEPAE00AAU?$_Wrap_alloc@V?$allocator@E@std@@@0@U_Really_trivial_ptr_iterator_tag@0@U?$integral_constant@_N$00@0@@Z 004469f0 f i AddPatch.obj
 0001:00045a50       ??$_Uninitialized_move_al_unchecked@PAEPAEV?$allocator@E@std@@@std@@YAPAEPAE00AAU?$_Wrap_alloc@V?$allocator@E@std@@@0@@Z 00446a50 f i AddPatch.obj
 0001:00045ae0       ??$__vcrt_va_start_verify_argument_type@QB_W@@YAXXZ 00446ae0 f i AddPatch.obj
 0001:00045b10       ??$addressof@PAU?$_List_node@U_ShellCode@@PAX@std@@@std@@YAPAPAU?$_List_node@U_ShellCode@@PAX@0@AAPAU10@@Z 00446b10 f i AddPatch.obj
 0001:00045b50       ??$addressof@U_ShellCode@@@std@@YAPAU_ShellCode@@AAU1@@Z 00446b50 f i AddPatch.obj
 0001:00045b90       ??$construct@PAU?$_List_node@U_ShellCode@@PAX@std@@AAPAU12@@?$_Wrap_alloc@V?$allocator@U?$_List_node@U_ShellCode@@PAX@std@@@std@@@std@@QAEXPAPAU?$_List_node@U_ShellCode@@PAX@1@AAPAU21@@Z 00446b90 f i AddPatch.obj
 0001:00045c00       ??$construct@PAU?$_List_node@U_ShellCode@@PAX@std@@AAPAU12@@?$allocator@U?$_List_node@U_ShellCode@@PAX@std@@@std@@QAEXPAPAU?$_List_node@U_ShellCode@@PAX@1@AAPAU21@@Z 00446c00 f i AddPatch.obj
 0001:00045cb0       ??$construct@PAU?$_List_node@U_ShellCode@@PAX@std@@AAPAU12@@?$allocator_traits@V?$allocator@U?$_List_node@U_ShellCode@@PAX@std@@@std@@@std@@SAXAAV?$allocator@U?$_List_node@U_ShellCode@@PAX@std@@@1@PAPAU?$_List_node@U_ShellCode@@PAX@1@AAPAU31@@Z 00446cb0 f i AddPatch.obj
 0001:00045d10       ??$construct@U_ShellCode@@ABU1@@?$_Wrap_alloc@V?$allocator@U?$_List_node@U_ShellCode@@PAX@std@@@std@@@std@@QAEXPAU_ShellCode@@ABU2@@Z 00446d10 f i AddPatch.obj
 0001:00045d80       ??$construct@U_ShellCode@@ABU1@@?$allocator@U?$_List_node@U_ShellCode@@PAX@std@@@std@@QAEXPAU_ShellCode@@ABU2@@Z 00446d80 f i AddPatch.obj
 0001:00045e80       ??$construct@U_ShellCode@@ABU1@@?$allocator_traits@V?$allocator@U?$_List_node@U_ShellCode@@PAX@std@@@std@@@std@@SAXAAV?$allocator@U?$_List_node@U_ShellCode@@PAX@std@@@1@PAU_ShellCode@@ABU3@@Z 00446e80 f i AddPatch.obj
 0001:00045ee0       ??$destroy@PAU?$_List_node@U_ShellCode@@PAX@std@@@?$_Wrap_alloc@V?$allocator@U?$_List_node@U_ShellCode@@PAX@std@@@std@@@std@@QAEXPAPAU?$_List_node@U_ShellCode@@PAX@1@@Z 00446ee0 f i AddPatch.obj
 0001:00045f40       ??$destroy@PAU?$_List_node@U_ShellCode@@PAX@std@@@?$allocator@U?$_List_node@U_ShellCode@@PAX@std@@@std@@QAEXPAPAU?$_List_node@U_ShellCode@@PAX@1@@Z 00446f40 f i AddPatch.obj
 0001:00045f80       ??$destroy@PAU?$_List_node@U_ShellCode@@PAX@std@@@?$allocator_traits@V?$allocator@U?$_List_node@U_ShellCode@@PAX@std@@@std@@@std@@SAXAAV?$allocator@U?$_List_node@U_ShellCode@@PAX@std@@@1@PAPAU?$_List_node@U_ShellCode@@PAX@1@@Z 00446f80 f i AddPatch.obj
 0001:00045fd0       ??$destroy@U_ShellCode@@@?$_Wrap_alloc@V?$allocator@U?$_List_node@U_ShellCode@@PAX@std@@@std@@@std@@QAEXPAU_ShellCode@@@Z 00446fd0 f i AddPatch.obj
 0001:00046030       ??$destroy@U_ShellCode@@@?$allocator@U?$_List_node@U_ShellCode@@PAX@std@@@std@@QAEXPAU_ShellCode@@@Z 00447030 f i AddPatch.obj
 0001:00046090       ??$destroy@U_ShellCode@@@?$allocator_traits@V?$allocator@U?$_List_node@U_ShellCode@@PAX@std@@@std@@@std@@SAXAAV?$allocator@U?$_List_node@U_ShellCode@@PAX@std@@@1@PAU_ShellCode@@@Z 00447090 f i AddPatch.obj
 0001:000460e0       ??$forward@AAPAU?$_List_node@U_ShellCode@@PAX@std@@@std@@YAAAPAU?$_List_node@U_ShellCode@@PAX@0@AAPAU10@@Z 004470e0 f i AddPatch.obj
 0001:00046120       ??$forward@AAU?$_Wrap_alloc@V?$allocator@E@std@@@std@@@std@@YAAAU?$_Wrap_alloc@V?$allocator@E@std@@@0@AAU10@@Z 00447120 f i AddPatch.obj
 0001:00046160       ??$forward@AAU?$_Wrap_alloc@V?$allocator@U?$_List_node@U_ShellCode@@PAX@std@@@std@@@std@@@std@@YAAAU?$_Wrap_alloc@V?$allocator@U?$_List_node@U_ShellCode@@PAX@std@@@std@@@0@AAU10@@Z 00447160 f i AddPatch.obj
 0001:000461a0       ??$forward@ABU_ShellCode@@@std@@YAABU_ShellCode@@ABU1@@Z 004471a0 f i AddPatch.obj
 0001:000461e0       ??$forward@U?$_Wrap_alloc@V?$allocator@E@std@@@std@@@std@@YA$$QAU?$_Wrap_alloc@V?$allocator@E@std@@@0@AAU10@@Z 004471e0 f i AddPatch.obj
 0001:00046220       ??$forward@V?$allocator@E@std@@@std@@YA$$QAV?$allocator@E@0@AAV10@@Z 00447220 f i AddPatch.obj
 0001:00046260       ??$move@AAU?$_Wrap_alloc@V?$allocator@E@std@@@std@@@std@@YA$$QAU?$_Wrap_alloc@V?$allocator@E@std@@@0@AAU10@@Z 00447260 f i AddPatch.obj
 0001:000462a0       ??0?$CTraceCategoryEx@$0CAAA@$0A@@ATL@@QAE@PBD@Z 004472a0 f i AddPatch.obj
 0001:00046300       ??0?$CTraceCategoryEx@$0CAAAA@$0A@@ATL@@QAE@PBD@Z 00447300 f i AddPatch.obj
 0001:00046360       ??0?$_Iterator012@Ubidirectional_iterator_tag@std@@U_ShellCode@@HPBU3@ABU3@U_Iterator_base12@2@@std@@QAE@$$QAU01@@Z 00447360 f i AddPatch.obj
 0001:000463c0       ??0?$_Iterator012@Ubidirectional_iterator_tag@std@@U_ShellCode@@HPBU3@ABU3@U_Iterator_base12@2@@std@@QAE@ABU01@@Z 004473c0 f i AddPatch.obj
 0001:00046420       ??0?$_Iterator012@Ubidirectional_iterator_tag@std@@U_ShellCode@@HPBU3@ABU3@U_Iterator_base12@2@@std@@QAE@XZ 00447420 f i AddPatch.obj
 0001:00046480       ??0?$_Iterator012@Urandom_access_iterator_tag@std@@EHPBEABEU_Iterator_base12@2@@std@@QAE@ABU01@@Z 00447480 f i AddPatch.obj
 0001:000464e0       ??0?$_Iterator012@Urandom_access_iterator_tag@std@@EHPBEABEU_Iterator_base12@2@@std@@QAE@XZ 004474e0 f i AddPatch.obj
 0001:00046540       ??0?$_List_alloc@U?$_List_base_types@U_ShellCode@@V?$allocator@U_ShellCode@@@std@@@std@@@std@@QAE@XZ 00447540 f i AddPatch.obj
 0001:00046650       ??0?$_List_buy@U_ShellCode@@V?$allocator@U_ShellCode@@@std@@@std@@QAE@XZ 00447650 f i AddPatch.obj
 0001:000466b0       ??0?$_List_const_iterator@V?$_List_val@U?$_List_simple_types@U_ShellCode@@@std@@@std@@@std@@QAE@$$QAV01@@Z 004476b0 f i AddPatch.obj
 0001:00046710       ??0?$_List_const_iterator@V?$_List_val@U?$_List_simple_types@U_ShellCode@@@std@@@std@@@std@@QAE@ABV01@@Z 00447710 f i AddPatch.obj
 0001:00046770       ??0?$_List_const_iterator@V?$_List_val@U?$_List_simple_types@U_ShellCode@@@std@@@std@@@std@@QAE@PAU?$_List_node@U_ShellCode@@PAX@1@PBV?$_List_val@U?$_List_simple_types@U_ShellCode@@@std@@@1@@Z 00447770 f i AddPatch.obj
 0001:000467d0       ??0?$_List_iterator@V?$_List_val@U?$_List_simple_types@U_ShellCode@@@std@@@std@@@std@@QAE@$$QAV01@@Z 004477d0 f i AddPatch.obj
 0001:00046830       ??0?$_List_iterator@V?$_List_val@U?$_List_simple_types@U_ShellCode@@@std@@@std@@@std@@QAE@ABV01@@Z 00447830 f i AddPatch.obj
 0001:00046890       ??0?$_List_iterator@V?$_List_val@U?$_List_simple_types@U_ShellCode@@@std@@@std@@@std@@QAE@PAU?$_List_node@U_ShellCode@@PAX@1@PBV?$_List_val@U?$_List_simple_types@U_ShellCode@@@std@@@1@@Z 00447890 f i AddPatch.obj
 0001:000468f0       ??0?$_List_unchecked_const_iterator@V?$_List_val@U?$_List_simple_types@U_ShellCode@@@std@@@std@@U_Iterator_base0@2@@std@@QAE@PAU?$_List_node@U_ShellCode@@PAX@1@PBV?$_List_val@U?$_List_simple_types@U_ShellCode@@@std@@@1@@Z 004478f0 f i AddPatch.obj
 0001:00046960       ??0?$_List_unchecked_const_iterator@V?$_List_val@U?$_List_simple_types@U_ShellCode@@@std@@@std@@U_Iterator_base12@2@@std@@QAE@$$QAV01@@Z 00447960 f i AddPatch.obj
 0001:000469d0       ??0?$_List_unchecked_const_iterator@V?$_List_val@U?$_List_simple_types@U_ShellCode@@@std@@@std@@U_Iterator_base12@2@@std@@QAE@ABV01@@Z 004479d0 f i AddPatch.obj
 0001:00046a40       ??0?$_List_unchecked_const_iterator@V?$_List_val@U?$_List_simple_types@U_ShellCode@@@std@@@std@@U_Iterator_base12@2@@std@@QAE@PAU?$_List_node@U_ShellCode@@PAX@1@PBV?$_List_val@U?$_List_simple_types@U_ShellCode@@@std@@@1@@Z 00447a40 f i AddPatch.obj
 0001:00046b00       ??0?$_List_unchecked_iterator@V?$_List_val@U?$_List_simple_types@U_ShellCode@@@std@@@std@@@std@@QAE@PAU?$_List_node@U_ShellCode@@PAX@1@PBV?$_List_val@U?$_List_simple_types@U_ShellCode@@@std@@@1@@Z 00447b00 f i AddPatch.obj
 0001:00046b60       ??0?$_List_val@U?$_List_simple_types@U_ShellCode@@@std@@@std@@QAE@XZ 00447b60 f i AddPatch.obj
 0001:00046bd0       ??0?$_Vector_alloc@U?$_Vec_base_types@EV?$allocator@E@std@@@std@@@std@@QAE@XZ 00447bd0 f i AddPatch.obj
 0001:00046c80       ??0?$_Vector_const_iterator@V?$_Vector_val@U?$_Simple_types@E@std@@@std@@@std@@QAE@ABV01@@Z 00447c80 f i AddPatch.obj
 0001:00046cf0       ??0?$_Vector_const_iterator@V?$_Vector_val@U?$_Simple_types@E@std@@@std@@@std@@QAE@PAEPBU_Container_base12@1@@Z 00447cf0 f i AddPatch.obj
 0001:00046db0       ??0?$_Vector_val@U?$_Simple_types@E@std@@@std@@QAE@XZ 00447db0 f i AddPatch.obj
 0001:00046e30       ??0?$_Wrap_alloc@V?$allocator@E@std@@@std@@QAE@$$QAU01@@Z 00447e30 f i AddPatch.obj
 0001:00046ea0       ??0?$_Wrap_alloc@V?$allocator@E@std@@@std@@QAE@XZ 00447ea0 f i AddPatch.obj
 0001:00046f00       ??0?$_Wrap_alloc@V?$allocator@U?$_List_node@U_ShellCode@@PAX@std@@@std@@@std@@QAE@XZ 00447f00 f i AddPatch.obj
 0001:00046f60       ??0?$allocator@E@std@@QAE@ABV01@@Z 00447f60 f i AddPatch.obj
 0001:00046fa0       ??0?$allocator@E@std@@QAE@XZ 00447fa0 f i AddPatch.obj
 0001:00046fe0       ??0?$allocator@U?$_List_node@U_ShellCode@@PAX@std@@@std@@QAE@XZ 00447fe0 f i AddPatch.obj
 0001:00047020       ??0?$list@U_ShellCode@@V?$allocator@U_ShellCode@@@std@@@std@@QAE@XZ 00448020 f i AddPatch.obj
 0001:00047080       ??0?$vector@EV?$allocator@E@std@@@std@@QAE@ABV01@@Z 00448080 f i AddPatch.obj
 0001:00047220       ??0?$vector@EV?$allocator@E@std@@@std@@QAE@XZ 00448220 f i AddPatch.obj
 0001:000472b0       ??0ByteBuffer@@QAE@ABV0@@Z 004482b0 f i AddPatch.obj
 0001:00047340       ??0ByteBuffer@@QAE@XZ      00448340 f i AddPatch.obj
 0001:00047420       ??0CAddPatch@@QAE@PAVCWnd@@@Z 00448420 f   AddPatch.obj
 0001:00047530       ??0_ShellCode@@QAE@ABU0@@Z 00448530 f i AddPatch.obj
 0001:00047600       ??0_ShellCode@@QAE@XZ      00448600 f i AddPatch.obj
 0001:000476c0       ??1?$_Compressed_pair@U?$_Wrap_alloc@V?$allocator@E@std@@@std@@V?$_Vector_val@U?$_Simple_types@E@std@@@2@$00@std@@QAE@XZ 004486c0 f i AddPatch.obj
 0001:00047710       ??1?$_Compressed_pair@U?$_Wrap_alloc@V?$allocator@U?$_List_node@U_ShellCode@@PAX@std@@@std@@@std@@V?$_List_val@U?$_List_simple_types@U_ShellCode@@@std@@@2@$00@std@@QAE@XZ 00448710 f i AddPatch.obj
 0001:00047760       ??1?$_Iterator012@Ubidirectional_iterator_tag@std@@U_ShellCode@@HPBU3@ABU3@U_Iterator_base12@2@@std@@QAE@XZ 00448760 f i AddPatch.obj
 0001:000477b0       ??1?$_Iterator012@Urandom_access_iterator_tag@std@@EHPBEABEU_Iterator_base12@2@@std@@QAE@XZ 004487b0 f i AddPatch.obj
 0001:00047800       ??1?$_List_alloc@U?$_List_base_types@U_ShellCode@@V?$allocator@U_ShellCode@@@std@@@std@@@std@@QAE@XZ 00448800 f i AddPatch.obj
 0001:000478b0       ??1?$_List_buy@U_ShellCode@@V?$allocator@U_ShellCode@@@std@@@std@@QAE@XZ 004488b0 f i AddPatch.obj
 0001:00047900       ??1?$_List_const_iterator@V?$_List_val@U?$_List_simple_types@U_ShellCode@@@std@@@std@@@std@@QAE@XZ 00448900 f i AddPatch.obj
 0001:00047950       ??1?$_List_iterator@V?$_List_val@U?$_List_simple_types@U_ShellCode@@@std@@@std@@@std@@QAE@XZ 00448950 f i AddPatch.obj
 0001:000479a0       ??1?$_List_unchecked_const_iterator@V?$_List_val@U?$_List_simple_types@U_ShellCode@@@std@@@std@@U_Iterator_base12@2@@std@@QAE@XZ 004489a0 f i AddPatch.obj
 0001:000479f0       ??1?$_List_val@U?$_List_simple_types@U_ShellCode@@@std@@@std@@QAE@XZ 004489f0 f i AddPatch.obj
 0001:00047a40       ??1?$_Vector_alloc@U?$_Vec_base_types@EV?$allocator@E@std@@@std@@@std@@QAE@XZ 00448a40 f i AddPatch.obj
 0001:00047ad0       ??1?$_Vector_const_iterator@V?$_Vector_val@U?$_Simple_types@E@std@@@std@@@std@@QAE@XZ 00448ad0 f i AddPatch.obj
 0001:00047b20       ??1?$_Vector_val@U?$_Simple_types@E@std@@@std@@QAE@XZ 00448b20 f i AddPatch.obj
 0001:00047b70       ??1?$list@U_ShellCode@@V?$allocator@U_ShellCode@@@std@@@std@@QAE@XZ 00448b70 f i AddPatch.obj
 0001:00047c00       ??1?$vector@EV?$allocator@E@std@@@std@@QAE@XZ 00448c00 f i AddPatch.obj
 0001:00047c90       ??1ByteBuffer@@UAE@XZ      00448c90 f i AddPatch.obj
 0001:00047d30       ??1CAddPatch@@UAE@XZ       00448d30 f   AddPatch.obj
 0001:00047dd0       ??1CDialogEx@@UAE@XZ       00448dd0 f i AddPatch.obj
 0001:00047e50       ??1_ShellCode@@QAE@XZ      00448e50 f i AddPatch.obj
 0001:00047ec0       ??8?$_List_const_iterator@V?$_List_val@U?$_List_simple_types@U_ShellCode@@@std@@@std@@@std@@QBE_NABV01@@Z 00448ec0 f i AddPatch.obj
 0001:00048010       ??9?$_List_const_iterator@V?$_List_val@U?$_List_simple_types@U_ShellCode@@@std@@@std@@@std@@QBE_NABV01@@Z 00449010 f i AddPatch.obj
 0001:000480a0       ??A?$vector@EV?$allocator@E@std@@@std@@QAEAAEI@Z 004490a0 f i AddPatch.obj
 0001:000481c0       ??A?$vector@EV?$allocator@E@std@@@std@@QBEABEI@Z 004491c0 f i AddPatch.obj
 0001:000482e0       ??C?$_List_iterator@V?$_List_val@U?$_List_simple_types@U_ShellCode@@@std@@@std@@@std@@QBEPAU_ShellCode@@XZ 004492e0 f i AddPatch.obj
 0001:00048340       ??D?$_List_const_iterator@V?$_List_val@U?$_List_simple_types@U_ShellCode@@@std@@@std@@@std@@QBEABU_ShellCode@@XZ 00449340 f i AddPatch.obj
 0001:00048480       ??D?$_List_iterator@V?$_List_val@U?$_List_simple_types@U_ShellCode@@@std@@@std@@@std@@QBEAAU_ShellCode@@XZ 00449480 f i AddPatch.obj
 0001:000484d0       ??E?$_List_const_iterator@V?$_List_val@U?$_List_simple_types@U_ShellCode@@@std@@@std@@@std@@QAEAAV01@XZ 004494d0 f i AddPatch.obj
 0001:00048620       ??E?$_List_iterator@V?$_List_val@U?$_List_simple_types@U_ShellCode@@@std@@@std@@@std@@QAE?AV01@H@Z 00449620 f i AddPatch.obj
 0001:00048740       ??E?$_List_iterator@V?$_List_val@U?$_List_simple_types@U_ShellCode@@@std@@@std@@@std@@QAEAAV01@XZ 00449740 f i AddPatch.obj
 0001:000487a0       ??_EByteBuffer@@UAEPAXI@Z  004497a0 f i AddPatch.obj
 0001:000487a0       ??_GByteBuffer@@UAEPAXI@Z  004497a0 f i AddPatch.obj
 0001:00048810       ??_ECAddPatch@@UAEPAXI@Z   00449810 f i AddPatch.obj
 0001:00048810       ??_GCAddPatch@@UAEPAXI@Z   00449810 f i AddPatch.obj
 0001:000488a0       ??_G_ShellCode@@QAEPAXI@Z  004498a0 f i AddPatch.obj
 0001:00048910       ?DoDataExchange@CAddPatch@@MAEXPAVCDataExchange@@@Z 00449910 f   AddPatch.obj
 0001:000489c0       ?GetApplicationPath@CAddPatch@@QAE?AV?$CStringT@DV?$StrTraitMFC_DLL@DV?$ChTraitsCRT@D@ATL@@@@@ATL@@XZ 004499c0 f   AddPatch.obj
 0001:00048bf0       ?GetMessageMap@CAddPatch@@MBEPBUAFX_MSGMAP@@XZ 00449bf0 f   AddPatch.obj
 0001:00048c40       ?GetRuntimeClass@CAddPatch@@UBEPAUCRuntimeClass@@XZ 00449c40 f   AddPatch.obj
 0001:00048c80       ?GetThisClass@CAddPatch@@SGPAUCRuntimeClass@@XZ 00449c80 f   AddPatch.obj
 0001:00048cc0       ?GetThisMessageMap@CAddPatch@@KGPBUAFX_MSGMAP@@XZ 00449cc0 f   AddPatch.obj
 0001:00048d00       ?InitDisaDate@CAddPatch@@QAEHPAEI@Z 00449d00 f   AddPatch.obj
 0001:000490d0       ?LoadShellCodes@CAddPatch@@QAEXAAV?$list@U_ShellCode@@V?$allocator@U_ShellCode@@@std@@@std@@@Z 0044a0d0 f   AddPatch.obj
 0001:00049510       ?OnInitDialog@CAddPatch@@UAEHXZ 0044a510 f   AddPatch.obj
 0001:00049990       ?RegisterCategory@CTrace@ATL@@SAXPBDI@Z 0044a990 f i AddPatch.obj
 0001:00049b30       ?_Alloc_proxy@?$_List_alloc@U?$_List_base_types@U_ShellCode@@V?$allocator@U_ShellCode@@@std@@@std@@@std@@QAEXXZ 0044ab30 f i AddPatch.obj
 0001:00049c30       ?_Alloc_proxy@?$_Vector_alloc@U?$_Vec_base_types@EV?$allocator@E@std@@@std@@@std@@QAEXXZ 0044ac30 f i AddPatch.obj
 0001:00049d30       ?_Buy@?$vector@EV?$allocator@E@std@@@std@@IAE_NI@Z 0044ad30 f i AddPatch.obj
 0001:00049e40       ?_Buyheadnode@?$_List_alloc@U?$_List_base_types@U_ShellCode@@V?$allocator@U_ShellCode@@@std@@@std@@@std@@QAEPAU?$_List_node@U_ShellCode@@PAX@2@XZ 0044ae40 f i AddPatch.obj
 0001:00049ea0       ?_Buynode0@?$_List_alloc@U?$_List_base_types@U_ShellCode@@V?$allocator@U_ShellCode@@@std@@@std@@@std@@QAEPAU?$_List_node@U_ShellCode@@PAX@2@PAU32@0@Z 0044aea0 f i AddPatch.obj
 0001:0004a030       ?_Destroy@?$vector@EV?$allocator@E@std@@@std@@IAEXPAE0@Z 0044b030 f i AddPatch.obj
 0001:0004a0a0       ?_Free_proxy@?$_List_alloc@U?$_List_base_types@U_ShellCode@@V?$allocator@U_ShellCode@@@std@@@std@@@std@@QAEXXZ 0044b0a0 f i AddPatch.obj
 0001:0004a190       ?_Free_proxy@?$_Vector_alloc@U?$_Vec_base_types@EV?$allocator@E@std@@@std@@@std@@QAEXXZ 0044b190 f i AddPatch.obj
 0001:0004a280       ?_Freeheadnode@?$_List_alloc@U?$_List_base_types@U_ShellCode@@V?$allocator@U_ShellCode@@@std@@@std@@@std@@QAEXPAU?$_List_node@U_ShellCode@@PAX@2@@Z 0044b280 f i AddPatch.obj
 0001:0004a340       ?_Freenode@?$_List_buy@U_ShellCode@@V?$allocator@U_ShellCode@@@std@@@std@@QAEXPAU?$_List_node@U_ShellCode@@PAX@2@@Z 0044b340 f i AddPatch.obj
 0001:0004a430       ?_GetBaseClass@CAddPatch@@KGPAUCRuntimeClass@@XZ 0044b430 f   AddPatch.obj
 0001:0004a480       ?_Get_data@?$_List_alloc@U?$_List_base_types@U_ShellCode@@V?$allocator@U_ShellCode@@@std@@@std@@@std@@QAEAAV?$_List_val@U?$_List_simple_types@U_ShellCode@@@std@@@2@XZ 0044b480 f i AddPatch.obj
 0001:0004a4d0       ?_Get_data@?$_List_alloc@U?$_List_base_types@U_ShellCode@@V?$allocator@U_ShellCode@@@std@@@std@@@std@@QBEABV?$_List_val@U?$_List_simple_types@U_ShellCode@@@std@@@2@XZ 0044b4d0 f i AddPatch.obj
 0001:0004a520       ?_Get_data@?$_Vector_alloc@U?$_Vec_base_types@EV?$allocator@E@std@@@std@@@std@@QAEAAV?$_Vector_val@U?$_Simple_types@E@std@@@2@XZ 0044b520 f i AddPatch.obj
 0001:0004a570       ?_Get_data@?$_Vector_alloc@U?$_Vec_base_types@EV?$allocator@E@std@@@std@@@std@@QBEABV?$_Vector_val@U?$_Simple_types@E@std@@@2@XZ 0044b570 f i AddPatch.obj
 0001:0004a5c0       ?_Get_first@?$_Compressed_pair@U?$_Wrap_alloc@V?$allocator@E@std@@@std@@V?$_Vector_val@U?$_Simple_types@E@std@@@2@$00@std@@QAEAAU?$_Wrap_alloc@V?$allocator@E@std@@@2@XZ 0044b5c0 f i AddPatch.obj
 0001:0004a600       ?_Get_first@?$_Compressed_pair@U?$_Wrap_alloc@V?$allocator@E@std@@@std@@V?$_Vector_val@U?$_Simple_types@E@std@@@2@$00@std@@QBEABU?$_Wrap_alloc@V?$allocator@E@std@@@2@XZ 0044b600 f i AddPatch.obj
 0001:0004a640       ?_Get_first@?$_Compressed_pair@U?$_Wrap_alloc@V?$allocator@U?$_List_node@U_ShellCode@@PAX@std@@@std@@@std@@V?$_List_val@U?$_List_simple_types@U_ShellCode@@@std@@@2@$00@std@@QAEAAU?$_Wrap_alloc@V?$allocator@U?$_List_node@U_ShellCode@@PAX@std@@@std@@@2@XZ 0044b640 f i AddPatch.obj
 0001:0004a680       ?_Get_first@?$_Compressed_pair@U?$_Wrap_alloc@V?$allocator@U?$_List_node@U_ShellCode@@PAX@std@@@std@@@std@@V?$_List_val@U?$_List_simple_types@U_ShellCode@@@std@@@2@$00@std@@QBEABU?$_Wrap_alloc@V?$allocator@U?$_List_node@U_ShellCode@@PAX@std@@@std@@@2@XZ 0044b680 f i AddPatch.obj
 0001:0004a6c0       ?_Get_second@?$_Compressed_pair@U?$_Wrap_alloc@V?$allocator@E@std@@@std@@V?$_Vector_val@U?$_Simple_types@E@std@@@2@$00@std@@QAEAAV?$_Vector_val@U?$_Simple_types@E@std@@@2@XZ 0044b6c0 f i AddPatch.obj
 0001:0004a700       ?_Get_second@?$_Compressed_pair@U?$_Wrap_alloc@V?$allocator@E@std@@@std@@V?$_Vector_val@U?$_Simple_types@E@std@@@2@$00@std@@QBEABV?$_Vector_val@U?$_Simple_types@E@std@@@2@XZ 0044b700 f i AddPatch.obj
 0001:0004a740       ?_Get_second@?$_Compressed_pair@U?$_Wrap_alloc@V?$allocator@U?$_List_node@U_ShellCode@@PAX@std@@@std@@@std@@V?$_List_val@U?$_List_simple_types@U_ShellCode@@@std@@@2@$00@std@@QAEAAV?$_List_val@U?$_List_simple_types@U_ShellCode@@@std@@@2@XZ 0044b740 f i AddPatch.obj
 0001:0004a780       ?_Get_second@?$_Compressed_pair@U?$_Wrap_alloc@V?$allocator@U?$_List_node@U_ShellCode@@PAX@std@@@std@@@std@@V?$_List_val@U?$_List_simple_types@U_ShellCode@@@std@@@2@$00@std@@QBEABV?$_List_val@U?$_List_simple_types@U_ShellCode@@@std@@@2@XZ 0044b780 f i AddPatch.obj
 0001:0004a7c0       ?_Getal@?$_List_alloc@U?$_List_base_types@U_ShellCode@@V?$allocator@U_ShellCode@@@std@@@std@@@std@@QAEAAU?$_Wrap_alloc@V?$allocator@U?$_List_node@U_ShellCode@@PAX@std@@@std@@@2@XZ 0044b7c0 f i AddPatch.obj
 0001:0004a810       ?_Getal@?$_List_alloc@U?$_List_base_types@U_ShellCode@@V?$allocator@U_ShellCode@@@std@@@std@@@std@@QBEABU?$_Wrap_alloc@V?$allocator@U?$_List_node@U_ShellCode@@PAX@std@@@std@@@2@XZ 0044b810 f i AddPatch.obj
 0001:0004a860       ?_Getal@?$_Vector_alloc@U?$_Vec_base_types@EV?$allocator@E@std@@@std@@@std@@QAEAAU?$_Wrap_alloc@V?$allocator@E@std@@@2@XZ 0044b860 f i AddPatch.obj
 0001:0004a8b0       ?_Getal@?$_Vector_alloc@U?$_Vec_base_types@EV?$allocator@E@std@@@std@@@std@@QBEABU?$_Wrap_alloc@V?$allocator@E@std@@@2@XZ 0044b8b0 f i AddPatch.obj
 0001:0004a900       ?_Getpfirst@?$_List_alloc@U?$_List_base_types@U_ShellCode@@V?$allocator@U_ShellCode@@@std@@@std@@@std@@QBEPAPAU_Iterator_base12@2@XZ 0044b900 f i AddPatch.obj
 0001:0004a960       ?_Getpfirst@?$_Vector_alloc@U?$_Vec_base_types@EV?$allocator@E@std@@@std@@@std@@QBEPAPAU_Iterator_base12@2@XZ 0044b960 f i AddPatch.obj
 0001:0004a9c0       ?_Grow_to@?$vector@EV?$allocator@E@std@@@std@@IBEII@Z 0044b9c0 f i AddPatch.obj
 0001:0004aa70       ?_Incsize@?$list@U_ShellCode@@V?$allocator@U_ShellCode@@@std@@@std@@QAEXI@Z 0044ba70 f i AddPatch.obj
 0001:0004ab20       ?_Myend@?$_Vector_alloc@U?$_Vec_base_types@EV?$allocator@E@std@@@std@@@std@@QAEAAPAEXZ 0044bb20 f i AddPatch.obj
 0001:0004ab80       ?_Myend@?$_Vector_alloc@U?$_Vec_base_types@EV?$allocator@E@std@@@std@@@std@@QBEABQAEXZ 0044bb80 f i AddPatch.obj
 0001:0004abe0       ?_Myfirst@?$_Vector_alloc@U?$_Vec_base_types@EV?$allocator@E@std@@@std@@@std@@QAEAAPAEXZ 0044bbe0 f i AddPatch.obj
 0001:0004ac40       ?_Myfirst@?$_Vector_alloc@U?$_Vec_base_types@EV?$allocator@E@std@@@std@@@std@@QBEABQAEXZ 0044bc40 f i AddPatch.obj
 0001:0004aca0       ?_Myhead@?$_List_alloc@U?$_List_base_types@U_ShellCode@@V?$allocator@U_ShellCode@@@std@@@std@@@std@@QAEAAPAU?$_List_node@U_ShellCode@@PAX@2@XZ 0044bca0 f i AddPatch.obj
 0001:0004ad00       ?_Mylast@?$_Vector_alloc@U?$_Vec_base_types@EV?$allocator@E@std@@@std@@@std@@QAEAAPAEXZ 0044bd00 f i AddPatch.obj
 0001:0004ad60       ?_Mylast@?$_Vector_alloc@U?$_Vec_base_types@EV?$allocator@E@std@@@std@@@std@@QBEABQAEXZ 0044bd60 f i AddPatch.obj
 0001:0004adc0       ?_Mynode@?$_List_unchecked_const_iterator@V?$_List_val@U?$_List_simple_types@U_ShellCode@@@std@@@std@@U_Iterator_base0@2@@std@@QBEPAU?$_List_node@U_ShellCode@@PAX@2@XZ 0044bdc0 f i AddPatch.obj
 0001:0004ae00       ?_Myproxy@?$_List_alloc@U?$_List_base_types@U_ShellCode@@V?$allocator@U_ShellCode@@@std@@@std@@@std@@QAEAAPAU_Container_proxy@2@XZ 0044be00 f i AddPatch.obj
 0001:0004ae50       ?_Myproxy@?$_Vector_alloc@U?$_Vec_base_types@EV?$allocator@E@std@@@std@@@std@@QAEAAPAU_Container_proxy@2@XZ 0044be50 f i AddPatch.obj
 0001:0004aea0       ?_Mysize@?$_List_alloc@U?$_List_base_types@U_ShellCode@@V?$allocator@U_ShellCode@@@std@@@std@@@std@@QAEAAIXZ 0044bea0 f i AddPatch.obj
 0001:0004af00       ?_Myval@?$_List_alloc@U?$_List_base_types@U_ShellCode@@V?$allocator@U_ShellCode@@@std@@@std@@@std@@SAAAU_ShellCode@@PAU?$_List_node@U_ShellCode@@PAX@2@@Z 0044bf00 f i AddPatch.obj
 0001:0004af50       ?_Myval@?$_List_val@U?$_List_simple_types@U_ShellCode@@@std@@@std@@SAAAU_ShellCode@@PAU?$_List_node@U_ShellCode@@PAX@2@@Z 0044bf50 f i AddPatch.obj
 0001:0004af90       ?_Nextnode@?$_List_alloc@U?$_List_base_types@U_ShellCode@@V?$allocator@U_ShellCode@@@std@@@std@@@std@@SAAAPAU?$_List_node@U_ShellCode@@PAX@2@PAU32@@Z 0044bf90 f i AddPatch.obj
 0001:0004afe0       ?_Nextnode@?$_List_val@U?$_List_simple_types@U_ShellCode@@@std@@@std@@SAAAPAU?$_List_node@U_ShellCode@@PAX@2@PAU32@@Z 0044bfe0 f i AddPatch.obj
 0001:0004b020       ?_Orphan_all@?$_List_alloc@U?$_List_base_types@U_ShellCode@@V?$allocator@U_ShellCode@@@std@@@std@@@std@@QAEXXZ 0044c020 f i AddPatch.obj
 0001:0004b080       ?_Orphan_all@?$_Vector_alloc@U?$_Vec_base_types@EV?$allocator@E@std@@@std@@@std@@QAEXXZ 0044c080 f i AddPatch.obj
 0001:0004b0e0       ?_Orphan_ptr@?$list@U_ShellCode@@V?$allocator@U_ShellCode@@@std@@@std@@QAEXPAU?$_List_node@U_ShellCode@@PAX@2@@Z 0044c0e0 f i AddPatch.obj
 0001:0004b260       ?_Orphan_range@?$vector@EV?$allocator@E@std@@@std@@IBEXPAE0@Z 0044c260 f i AddPatch.obj
 0001:0004b3d0       ?_Pop_back_n@?$vector@EV?$allocator@E@std@@@std@@QAEXI@Z 0044c3d0 f i AddPatch.obj
 0001:0004b480       ?_Prevnode@?$_List_alloc@U?$_List_base_types@U_ShellCode@@V?$allocator@U_ShellCode@@@std@@@std@@@std@@SAAAPAU?$_List_node@U_ShellCode@@PAX@2@PAU32@@Z 0044c480 f i AddPatch.obj
 0001:0004b4d0       ?_Prevnode@?$_List_val@U?$_List_simple_types@U_ShellCode@@@std@@@std@@SAAAPAU?$_List_node@U_ShellCode@@PAX@2@PAU32@@Z 0044c4d0 f i AddPatch.obj
 0001:0004b510       ?_Reallocate@?$vector@EV?$allocator@E@std@@@std@@IAEXI@Z 0044c510 f i AddPatch.obj
 0001:0004b6f0       ?_Reserve@?$vector@EV?$allocator@E@std@@@std@@IAEXI@Z 0044c6f0 f i AddPatch.obj
 0001:0004b7a0       ?_Tidy@?$list@U_ShellCode@@V?$allocator@U_ShellCode@@@std@@@std@@QAEXXZ 0044c7a0 f i AddPatch.obj
 0001:0004b7f0       ?_Tidy@?$vector@EV?$allocator@E@std@@@std@@IAEXXZ 0044c7f0 f i AddPatch.obj
 0001:0004b8f0       ?_Unchecked@?$_Vector_const_iterator@V?$_Vector_val@U?$_Simple_types@E@std@@@std@@@std@@QBEPBEXZ 0044c8f0 f i AddPatch.obj
 0001:0004b930       ?_Unchecked_end@?$list@U_ShellCode@@V?$allocator@U_ShellCode@@@std@@@std@@QAE?AV?$_List_unchecked_iterator@V?$_List_val@U?$_List_simple_types@U_ShellCode@@@std@@@std@@@2@XZ 0044c930 f i AddPatch.obj
 0001:0004b9a0       ?_Unused_capacity@?$vector@EV?$allocator@E@std@@@std@@QBEIXZ 0044c9a0 f i AddPatch.obj
 0001:0004ba10       ?_Xlen@?$vector@EV?$allocator@E@std@@@std@@IBEXXZ 0044ca10 f i AddPatch.obj
 0001:0004ba70       ?allocate@?$_Wrap_alloc@V?$allocator@E@std@@@std@@QAEPAEI@Z 0044ca70 f i AddPatch.obj
 0001:0004bad0       ?allocate@?$_Wrap_alloc@V?$allocator@U?$_List_node@U_ShellCode@@PAX@std@@@std@@@std@@QAEPAU?$_List_node@U_ShellCode@@PAX@2@I@Z 0044cad0 f i AddPatch.obj
 0001:0004bb30       ?allocate@?$allocator@E@std@@QAEPAEI@Z 0044cb30 f i AddPatch.obj
 0001:0004bb90       ?allocate@?$allocator@U?$_List_node@U_ShellCode@@PAX@std@@@std@@QAEPAU?$_List_node@U_ShellCode@@PAX@2@I@Z 0044cb90 f i AddPatch.obj
 0001:0004bbf0       ?append@ByteBuffer@@QAEXPBEI@Z 0044cbf0 f i AddPatch.obj
 0001:0004bcc0       ?begin@?$list@U_ShellCode@@V?$allocator@U_ShellCode@@@std@@@std@@QAE?AV?$_List_iterator@V?$_List_val@U?$_List_simple_types@U_ShellCode@@@std@@@std@@@2@XZ 0044ccc0 f i AddPatch.obj
 0001:0004bd70       ?begin@?$vector@EV?$allocator@E@std@@@std@@QBE?AV?$_Vector_const_iterator@V?$_Vector_val@U?$_Simple_types@E@std@@@std@@@2@XZ 0044cd70 f i AddPatch.obj
 0001:0004be20       ?capacity@?$vector@EV?$allocator@E@std@@@std@@QBEIXZ 0044ce20 f i AddPatch.obj
 0001:0004be90       ?clear@?$list@U_ShellCode@@V?$allocator@U_ShellCode@@@std@@@std@@QAEXXZ 0044ce90 f i AddPatch.obj
 0001:0004bfe0       ?clear@?$vector@EV?$allocator@E@std@@@std@@QAEXXZ 0044cfe0 f i AddPatch.obj
 0001:0004c0b0       ?clear@ByteBuffer@@QAEXXZ  0044d0b0 f i AddPatch.obj
 0001:0004c120       ?contents@ByteBuffer@@QBEPBEXZ 0044d120 f i AddPatch.obj
 0001:0004c1a0       ?deallocate@?$_Wrap_alloc@V?$allocator@E@std@@@std@@QAEXPAEI@Z 0044d1a0 f i AddPatch.obj
 0001:0004c200       ?deallocate@?$_Wrap_alloc@V?$allocator@U?$_List_node@U_ShellCode@@PAX@std@@@std@@@std@@QAEXPAU?$_List_node@U_ShellCode@@PAX@2@I@Z 0044d200 f i AddPatch.obj
 0001:0004c260       ?deallocate@?$allocator@E@std@@QAEXPAEI@Z 0044d260 f i AddPatch.obj
 0001:0004c2c0       ?deallocate@?$allocator@U?$_List_node@U_ShellCode@@PAX@std@@@std@@QAEXPAU?$_List_node@U_ShellCode@@PAX@2@I@Z 0044d2c0 f i AddPatch.obj
 0001:0004c320       ?end@?$list@U_ShellCode@@V?$allocator@U_ShellCode@@@std@@@std@@QAE?AV?$_List_iterator@V?$_List_val@U?$_List_simple_types@U_ShellCode@@@std@@@std@@@2@XZ 0044d320 f i AddPatch.obj
 0001:0004c3d0       ?end@?$vector@EV?$allocator@E@std@@@std@@QBE?AV?$_Vector_const_iterator@V?$_Vector_val@U?$_Simple_types@E@std@@@std@@@2@XZ 0044d3d0 f i AddPatch.obj
 0001:0004c480       ?max_size@?$_Wrap_alloc@V?$allocator@E@std@@@std@@QBEIU_Nil@2@@Z 0044d480 f i AddPatch.obj
 0001:0004c4e0       ?max_size@?$_Wrap_alloc@V?$allocator@U?$_List_node@U_ShellCode@@PAX@std@@@std@@@std@@QBEIU_Nil@2@@Z 0044d4e0 f i AddPatch.obj
 0001:0004c540       ?max_size@?$allocator@E@std@@QBEIXZ 0044d540 f i AddPatch.obj
 0001:0004c580       ?max_size@?$allocator@U?$_List_node@U_ShellCode@@PAX@std@@@std@@QBEIXZ 0044d580 f i AddPatch.obj
 0001:0004c5c0       ?max_size@?$allocator_traits@V?$allocator@E@std@@@std@@SAIABV?$allocator@E@2@@Z 0044d5c0 f i AddPatch.obj
 0001:0004c610       ?max_size@?$allocator_traits@V?$allocator@U?$_List_node@U_ShellCode@@PAX@std@@@std@@@std@@SAIABV?$allocator@U?$_List_node@U_ShellCode@@PAX@std@@@2@@Z 0044d610 f i AddPatch.obj
 0001:0004c660       ?max_size@?$list@U_ShellCode@@V?$allocator@U_ShellCode@@@std@@@std@@QBEIXZ 0044d660 f i AddPatch.obj
 0001:0004c6d0       ?max_size@?$vector@EV?$allocator@E@std@@@std@@QBEIXZ 0044d6d0 f i AddPatch.obj
 0001:0004c740       ?pointer_to@?$pointer_traits@PAU_ShellCode@@@std@@SAPAU_ShellCode@@AAU3@@Z 0044d740 f i AddPatch.obj
 0001:0004c790       ?push_back@?$list@U_ShellCode@@V?$allocator@U_ShellCode@@@std@@@std@@QAEXABU_ShellCode@@@Z 0044d790 f i AddPatch.obj
 0001:0004c810       ?reserve@?$vector@EV?$allocator@E@std@@@std@@QAEXI@Z 0044d810 f i AddPatch.obj
 0001:0004c890       ?resize@?$vector@EV?$allocator@E@std@@@std@@QAEXI@Z 0044d890 f i AddPatch.obj
 0001:0004ca20       ?select_on_container_copy_construction@?$_Wrap_alloc@V?$allocator@E@std@@@std@@QBE?AU12@U_Nil@2@@Z 0044da20 f i AddPatch.obj
 0001:0004ca90       ?select_on_container_copy_construction@?$allocator_traits@V?$allocator@E@std@@@std@@SA?AV?$allocator@E@2@ABV32@@Z 0044da90 f i AddPatch.obj
 0001:0004caf0       ?size@?$vector@EV?$allocator@E@std@@@std@@QBEIXZ 0044daf0 f i AddPatch.obj
 0001:0004cb60       ?size@ByteBuffer@@QBEIXZ   0044db60 f i AddPatch.obj
 0001:0004cbc0       __vswprintf_s_l            0044dbc0 f i AddPatch.obj
 0001:0004cc70       _swprintf_s                0044dc70 f i AddPatch.obj
 0001:0004ccf0       ?OnBnClickedButton1@CAddSectionDlg@@QAEXXZ 0044dcf0 f   AddSectionDlg.obj
 0001:0004d0e0       ?OnEnChangeEdit4@CAddSectionDlg@@QAEXXZ 0044e0e0 f   AddSectionDlg.obj
 0001:0004d390       ??0?$_Iterator012@Urandom_access_iterator_tag@std@@U_IMAGE_SECTION_HEADER@@HPBU3@ABU3@U_Iterator_base12@2@@std@@QAE@ABU01@@Z 0044e390 f i AddSectionDlg.obj
 0001:0004d3f0       ??0?$_Iterator012@Urandom_access_iterator_tag@std@@U_IMAGE_SECTION_HEADER@@HPBU3@ABU3@U_Iterator_base12@2@@std@@QAE@XZ 0044e3f0 f i AddSectionDlg.obj
 0001:0004d450       ??0?$_Vector_const_iterator@V?$_Vector_val@U?$_Simple_types@U_IMAGE_SECTION_HEADER@@@std@@@std@@@std@@QAE@ABV01@@Z 0044e450 f i AddSectionDlg.obj
 0001:0004d4c0       ??0?$_Vector_const_iterator@V?$_Vector_val@U?$_Simple_types@U_IMAGE_SECTION_HEADER@@@std@@@std@@@std@@QAE@PAU_IMAGE_SECTION_HEADER@@PBU_Container_base12@1@@Z 0044e4c0 f i AddSectionDlg.obj
 0001:0004d580       ??0?$_Vector_iterator@V?$_Vector_val@U?$_Simple_types@U_IMAGE_SECTION_HEADER@@@std@@@std@@@std@@QAE@ABV01@@Z 0044e580 f i AddSectionDlg.obj
 0001:0004d5e0       ??0?$_Vector_iterator@V?$_Vector_val@U?$_Simple_types@U_IMAGE_SECTION_HEADER@@@std@@@std@@@std@@QAE@PAU_IMAGE_SECTION_HEADER@@PBU_Container_base12@1@@Z 0044e5e0 f i AddSectionDlg.obj
 0001:0004d640       ??0CAddSectionDlg@@QAE@PAVCWnd@@@Z 0044e640 f   AddSectionDlg.obj
 0001:0004d780       ??1?$_Iterator012@Urandom_access_iterator_tag@std@@U_IMAGE_SECTION_HEADER@@HPBU3@ABU3@U_Iterator_base12@2@@std@@QAE@XZ 0044e780 f i AddSectionDlg.obj
 0001:0004d7d0       ??1?$_Vector_const_iterator@V?$_Vector_val@U?$_Simple_types@U_IMAGE_SECTION_HEADER@@@std@@@std@@@std@@QAE@XZ 0044e7d0 f i AddSectionDlg.obj
 0001:0004d820       ??1?$_Vector_iterator@V?$_Vector_val@U?$_Simple_types@U_IMAGE_SECTION_HEADER@@@std@@@std@@@std@@QAE@XZ 0044e820 f i AddSectionDlg.obj
 0001:0004d870       ??1CAddSectionDlg@@UAE@XZ  0044e870 f   AddSectionDlg.obj
 0001:0004d940       ??D?$_Vector_const_iterator@V?$_Vector_val@U?$_Simple_types@U_IMAGE_SECTION_HEADER@@@std@@@std@@@std@@QBEABU_IMAGE_SECTION_HEADER@@XZ 0044e940 f i AddSectionDlg.obj
 0001:0004da70       ??D?$_Vector_iterator@V?$_Vector_val@U?$_Simple_types@U_IMAGE_SECTION_HEADER@@@std@@@std@@@std@@QBEAAU_IMAGE_SECTION_HEADER@@XZ 0044ea70 f i AddSectionDlg.obj
 0001:0004dac0       ??G?$_Vector_iterator@V?$_Vector_val@U?$_Simple_types@U_IMAGE_SECTION_HEADER@@@std@@@std@@@std@@QBE?AV01@H@Z 0044eac0 f i AddSectionDlg.obj
 0001:0004dbe0       ??Y?$_Vector_const_iterator@V?$_Vector_val@U?$_Simple_types@U_IMAGE_SECTION_HEADER@@@std@@@std@@@std@@QAEAAV01@H@Z 0044ebe0 f i AddSectionDlg.obj
 0001:0004dd40       ??Y?$_Vector_iterator@V?$_Vector_val@U?$_Simple_types@U_IMAGE_SECTION_HEADER@@@std@@@std@@@std@@QAEAAV01@H@Z 0044ed40 f i AddSectionDlg.obj
 0001:0004dda0       ??Z?$_Vector_iterator@V?$_Vector_val@U?$_Simple_types@U_IMAGE_SECTION_HEADER@@@std@@@std@@@std@@QAEAAV01@H@Z 0044eda0 f i AddSectionDlg.obj
 0001:0004de00       ??_ECAddSectionDlg@@UAEPAXI@Z 0044ee00 f i AddSectionDlg.obj
 0001:0004de00       ??_GCAddSectionDlg@@UAEPAXI@Z 0044ee00 f i AddSectionDlg.obj
 0001:0004de90       ?DoDataExchange@CAddSectionDlg@@MAEXPAVCDataExchange@@@Z 0044ee90 f   AddSectionDlg.obj
 0001:0004dfa0       ?GetMessageMap@CAddSectionDlg@@MBEPBUAFX_MSGMAP@@XZ 0044efa0 f   AddSectionDlg.obj
 0001:0004dff0       ?GetRuntimeClass@CAddSectionDlg@@UBEPAUCRuntimeClass@@XZ 0044eff0 f   AddSectionDlg.obj
 0001:0004e030       ?GetThisClass@CAddSectionDlg@@SGPAUCRuntimeClass@@XZ 0044f030 f   AddSectionDlg.obj
 0001:0004e070       ?GetThisMessageMap@CAddSectionDlg@@KGPBUAFX_MSGMAP@@XZ 0044f070 f   AddSectionDlg.obj
 0001:0004e0b0       ?OnInitDialog@CAddSectionDlg@@UAEHXZ 0044f0b0 f   AddSectionDlg.obj
 0001:0004e470       ?_GetBaseClass@CAddSectionDlg@@KGPAUCRuntimeClass@@XZ 0044f470 f   AddSectionDlg.obj
 0001:0004e4c0       ?_Get_data@?$_Vector_alloc@U?$_Vec_base_types@U_IMAGE_SECTION_HEADER@@V?$allocator@U_IMAGE_SECTION_HEADER@@@std@@@std@@@std@@QAEAAV?$_Vector_val@U?$_Simple_types@U_IMAGE_SECTION_HEADER@@@std@@@2@XZ 0044f4c0 f i AddSectionDlg.obj
 0001:0004e510       ?_Get_second@?$_Compressed_pair@U?$_Wrap_alloc@V?$allocator@U_IMAGE_SECTION_HEADER@@@std@@@std@@V?$_Vector_val@U?$_Simple_types@U_IMAGE_SECTION_HEADER@@@std@@@2@$00@std@@QAEAAV?$_Vector_val@U?$_Simple_types@U_IMAGE_SECTION_HEADER@@@std@@@2@XZ 0044f510 f i AddSectionDlg.obj
 0001:0004e550       ?_Mylast@?$_Vector_alloc@U?$_Vec_base_types@U_IMAGE_SECTION_HEADER@@V?$allocator@U_IMAGE_SECTION_HEADER@@@std@@@std@@@std@@QAEAAPAU_IMAGE_SECTION_HEADER@@XZ 0044f550 f i AddSectionDlg.obj
 0001:0004e5b0       ?back@?$vector@U_IMAGE_SECTION_HEADER@@V?$allocator@U_IMAGE_SECTION_HEADER@@@std@@@std@@QAEAAU_IMAGE_SECTION_HEADER@@XZ 0044f5b0 f i AddSectionDlg.obj
 0001:0004e6e0       ?end@?$vector@U_IMAGE_SECTION_HEADER@@V?$allocator@U_IMAGE_SECTION_HEADER@@@std@@@std@@QAE?AV?$_Vector_iterator@V?$_Vector_val@U?$_Simple_types@U_IMAGE_SECTION_HEADER@@@std@@@std@@@2@XZ 0044f6e0 f i AddSectionDlg.obj
 0001:0004e790       ?OnBnClickedMfcbutton@DataDirectoryDlg@@QAEXI@Z 0044f790 f   DataDirectoryDlg.obj
 0001:0004ee60       ??0DataDirectoryDlg@@QAE@PAVCWnd@@@Z 0044fe60 f   DataDirectoryDlg.obj
 0001:0004eee0       ??1DataDirectoryDlg@@UAE@XZ 0044fee0 f   DataDirectoryDlg.obj
 0001:0004efd0       ??_EDataDirectoryDlg@@UAEPAXI@Z 0044ffd0 f i DataDirectoryDlg.obj
 0001:0004efd0       ??_GDataDirectoryDlg@@UAEPAXI@Z 0044ffd0 f i DataDirectoryDlg.obj
 0001:0004f060       ?DoDataExchange@DataDirectoryDlg@@MAEXPAVCDataExchange@@@Z 00450060 f   DataDirectoryDlg.obj
 0001:0004f0c0       ?GetMessageMap@DataDirectoryDlg@@MBEPBUAFX_MSGMAP@@XZ 004500c0 f   DataDirectoryDlg.obj
 0001:0004f110       ?GetRuntimeClass@DataDirectoryDlg@@UBEPAUCRuntimeClass@@XZ 00450110 f   DataDirectoryDlg.obj
 0001:0004f150       ?GetThisClass@DataDirectoryDlg@@SGPAUCRuntimeClass@@XZ 00450150 f   DataDirectoryDlg.obj
 0001:0004f190       ?GetThisMessageMap@DataDirectoryDlg@@KGPBUAFX_MSGMAP@@XZ 00450190 f   DataDirectoryDlg.obj
 0001:0004f1d0       ?OnInitDialog@DataDirectoryDlg@@UAEHXZ 004501d0 f   DataDirectoryDlg.obj
 0001:00050040       ?_GetBaseClass@DataDirectoryDlg@@KGPAUCRuntimeClass@@XZ 00451040 f   DataDirectoryDlg.obj
 0001:00050090       ??$_Unfancy@_W@std@@YAPA_WPA_W@Z 00451090 f i DialogFirst.obj
 0001:000500d0       ??0Data_t@_bstr_t@@QAE@PB_W@Z 004510d0 f i DialogFirst.obj
 0001:00050170       ??0DialogFirst@@QAE@PAVCWnd@@@Z 00451170 f   DialogFirst.obj
 0001:000504c0       ??0_bstr_t@@QAE@PB_W@Z     004514c0 f i DialogFirst.obj
 0001:000505d0       ??1Data_t@_bstr_t@@AAE@XZ  004515d0 f i DialogFirst.obj
 0001:00050620       ??1DialogFirst@@UAE@XZ     00451620 f   DialogFirst.obj
 0001:00050890       ??1_bstr_t@@QAE@XZ         00451890 f i DialogFirst.obj
 0001:000508e0       ??2Data_t@_bstr_t@@SAPAXI@Z 004518e0 f i DialogFirst.obj
 0001:00050930       ??A?$vector@U_DelayItem@@V?$allocator@U_DelayItem@@@std@@@std@@QAEAAU_DelayItem@@I@Z 00451930 f i DialogFirst.obj
 0001:00050a50       ??A?$vector@U_ImportItem@@V?$allocator@U_ImportItem@@@std@@@std@@QAEAAU_ImportItem@@I@Z 00451a50 f i DialogFirst.obj
 0001:00050b70       ??A?$vector@U_OrdinalFuncs@@V?$allocator@U_OrdinalFuncs@@@std@@@std@@QAEAAU_OrdinalFuncs@@I@Z 00451b70 f i DialogFirst.obj
 0001:00050c90       ??A?$vector@U_RelocItem@@V?$allocator@U_RelocItem@@@std@@@std@@QAEAAU_RelocItem@@I@Z 00451c90 f i DialogFirst.obj
 0001:00050db0       ??A?$vector@U_ResourceItem@@V?$allocator@U_ResourceItem@@@std@@@std@@QAEAAU_ResourceItem@@I@Z 00451db0 f i DialogFirst.obj
 0001:00050ed0       ??B_bstr_t@@QBEPADXZ       00451ed0 f i DialogFirst.obj
 0001:00050f50       ??_GData_t@_bstr_t@@AAEPAXI@Z 00451f50 f i DialogFirst.obj
 0001:00050fc0       ??_GDialogFirst@@UAEPAXI@Z 00451fc0 f i DialogFirst.obj
 0001:00050fc0       ??_EDialogFirst@@UAEPAXI@Z 00451fc0 f i DialogFirst.obj
 0001:00051050       ?DoDataExchange@DialogFirst@@MAEXPAVCDataExchange@@@Z 00452050 f   DialogFirst.obj
 0001:000513f0       ?EnumChildProc@DialogFirst@@CGHPAUHWND__@@J@Z 004523f0 f   DialogFirst.obj
 0001:00051520       ?GetMessageMap@DialogFirst@@MBEPBUAFX_MSGMAP@@XZ 00452520 f   DialogFirst.obj
 0001:00051570       ?GetRuntimeClass@DialogFirst@@UBEPAUCRuntimeClass@@XZ 00452570 f   DialogFirst.obj
 0001:000515b0       ?GetString@Data_t@_bstr_t@@QBEPBDXZ 004525b0 f i DialogFirst.obj
 0001:00051620       ?GetThisClass@DialogFirst@@SGPAUCRuntimeClass@@XZ 00452620 f   DialogFirst.obj
 0001:00051660       ?GetThisMessageMap@DialogFirst@@KGPBUAFX_MSGMAP@@XZ 00452660 f   DialogFirst.obj
 0001:000516a0       ?Init@DialogFirst@@QAEXH@Z 004526a0 f   DialogFirst.obj
 0001:00051740       ?OnInitDialog@DialogFirst@@UAEHXZ 00452740 f   DialogFirst.obj
 0001:000517a0       ?Release@Data_t@_bstr_t@@QAEKXZ 004527a0 f i DialogFirst.obj
 0001:00051850       ?Reset@DialogFirst@@AAEXXZ 00452850 f   DialogFirst.obj
 0001:000518c0       ?SetDlgUI@DialogFirst@@AAEHXZ 004528c0 f   DialogFirst.obj
 0001:00052a50       ?SetExportCtrl@DialogFirst@@AAEHXZ 00453a50 f   DialogFirst.obj
 0001:00052f00       ?SetImportCtrl@DialogFirst@@AAEHXZ 00453f00 f   DialogFirst.obj
 0001:00053530       ?SetRelay@DialogFirst@@AAEHXZ 00454530 f   DialogFirst.obj
 0001:00053b80       ?SetReloc@DialogFirst@@AAEHXZ 00454b80 f   DialogFirst.obj
 0001:00054080       ?SetResource@DialogFirst@@AAEHXZ 00455080 f   DialogFirst.obj
 0001:000544c0       ?WorkThreadProc@DialogFirst@@CGIPAX@Z 004554c0 f   DialogFirst.obj
 0001:00054be0       ?_Free@Data_t@_bstr_t@@AAEXXZ 00455be0 f i DialogFirst.obj
 0001:00054c90       ?_Free@_bstr_t@@AAEXXZ     00455c90 f i DialogFirst.obj
 0001:00054d00       ?_GetBaseClass@DialogFirst@@KGPAUCRuntimeClass@@XZ 00455d00 f   DialogFirst.obj
 0001:00054d50       ?_Get_data@?$_String_alloc@U?$_String_base_types@_WV?$allocator@_W@std@@@std@@@std@@QBEABV?$_String_val@U?$_Simple_types@_W@std@@@2@XZ 00455d50 f i DialogFirst.obj
 0001:00054da0       ?_Get_data@?$_Vector_alloc@U?$_Vec_base_types@U_DelayItem@@V?$allocator@U_DelayItem@@@std@@@std@@@std@@QAEAAV?$_Vector_val@U?$_Simple_types@U_DelayItem@@@std@@@2@XZ 00455da0 f i DialogFirst.obj
 0001:00054df0       ?_Get_data@?$_Vector_alloc@U?$_Vec_base_types@U_DelayItem@@V?$allocator@U_DelayItem@@@std@@@std@@@std@@QBEABV?$_Vector_val@U?$_Simple_types@U_DelayItem@@@std@@@2@XZ 00455df0 f i DialogFirst.obj
 0001:00054e40       ?_Get_data@?$_Vector_alloc@U?$_Vec_base_types@U_ImportItem@@V?$allocator@U_ImportItem@@@std@@@std@@@std@@QAEAAV?$_Vector_val@U?$_Simple_types@U_ImportItem@@@std@@@2@XZ 00455e40 f i DialogFirst.obj
 0001:00054e90       ?_Get_data@?$_Vector_alloc@U?$_Vec_base_types@U_ImportItem@@V?$allocator@U_ImportItem@@@std@@@std@@@std@@QBEABV?$_Vector_val@U?$_Simple_types@U_ImportItem@@@std@@@2@XZ 00455e90 f i DialogFirst.obj
 0001:00054ee0       ?_Get_data@?$_Vector_alloc@U?$_Vec_base_types@U_OrdinalFuncs@@V?$allocator@U_OrdinalFuncs@@@std@@@std@@@std@@QAEAAV?$_Vector_val@U?$_Simple_types@U_OrdinalFuncs@@@std@@@2@XZ 00455ee0 f i DialogFirst.obj
 0001:00054f30       ?_Get_data@?$_Vector_alloc@U?$_Vec_base_types@U_OrdinalFuncs@@V?$allocator@U_OrdinalFuncs@@@std@@@std@@@std@@QBEABV?$_Vector_val@U?$_Simple_types@U_OrdinalFuncs@@@std@@@2@XZ 00455f30 f i DialogFirst.obj
 0001:00054f80       ?_Get_data@?$_Vector_alloc@U?$_Vec_base_types@U_RelocItem@@V?$allocator@U_RelocItem@@@std@@@std@@@std@@QAEAAV?$_Vector_val@U?$_Simple_types@U_RelocItem@@@std@@@2@XZ 00455f80 f i DialogFirst.obj
 0001:00054fd0       ?_Get_data@?$_Vector_alloc@U?$_Vec_base_types@U_RelocItem@@V?$allocator@U_RelocItem@@@std@@@std@@@std@@QBEABV?$_Vector_val@U?$_Simple_types@U_RelocItem@@@std@@@2@XZ 00455fd0 f i DialogFirst.obj
 0001:00055020       ?_Get_data@?$_Vector_alloc@U?$_Vec_base_types@U_ResourceItem@@V?$allocator@U_ResourceItem@@@std@@@std@@@std@@QAEAAV?$_Vector_val@U?$_Simple_types@U_ResourceItem@@@std@@@2@XZ 00456020 f i DialogFirst.obj
 0001:00055070       ?_Get_data@?$_Vector_alloc@U?$_Vec_base_types@U_ResourceItem@@V?$allocator@U_ResourceItem@@@std@@@std@@@std@@QBEABV?$_Vector_val@U?$_Simple_types@U_ResourceItem@@@std@@@2@XZ 00456070 f i DialogFirst.obj
 0001:000550c0       ?_Get_second@?$_Compressed_pair@U?$_Wrap_alloc@V?$allocator@U_DelayItem@@@std@@@std@@V?$_Vector_val@U?$_Simple_types@U_DelayItem@@@std@@@2@$00@std@@QAEAAV?$_Vector_val@U?$_Simple_types@U_DelayItem@@@std@@@2@XZ 004560c0 f i DialogFirst.obj
 0001:00055100       ?_Get_second@?$_Compressed_pair@U?$_Wrap_alloc@V?$allocator@U_DelayItem@@@std@@@std@@V?$_Vector_val@U?$_Simple_types@U_DelayItem@@@std@@@2@$00@std@@QBEABV?$_Vector_val@U?$_Simple_types@U_DelayItem@@@std@@@2@XZ 00456100 f i DialogFirst.obj
 0001:00055140       ?_Get_second@?$_Compressed_pair@U?$_Wrap_alloc@V?$allocator@U_ImportItem@@@std@@@std@@V?$_Vector_val@U?$_Simple_types@U_ImportItem@@@std@@@2@$00@std@@QAEAAV?$_Vector_val@U?$_Simple_types@U_ImportItem@@@std@@@2@XZ 00456140 f i DialogFirst.obj
 0001:00055180       ?_Get_second@?$_Compressed_pair@U?$_Wrap_alloc@V?$allocator@U_ImportItem@@@std@@@std@@V?$_Vector_val@U?$_Simple_types@U_ImportItem@@@std@@@2@$00@std@@QBEABV?$_Vector_val@U?$_Simple_types@U_ImportItem@@@std@@@2@XZ 00456180 f i DialogFirst.obj
 0001:000551c0       ?_Get_second@?$_Compressed_pair@U?$_Wrap_alloc@V?$allocator@U_OrdinalFuncs@@@std@@@std@@V?$_Vector_val@U?$_Simple_types@U_OrdinalFuncs@@@std@@@2@$00@std@@QAEAAV?$_Vector_val@U?$_Simple_types@U_OrdinalFuncs@@@std@@@2@XZ 004561c0 f i DialogFirst.obj
 0001:00055200       ?_Get_second@?$_Compressed_pair@U?$_Wrap_alloc@V?$allocator@U_OrdinalFuncs@@@std@@@std@@V?$_Vector_val@U?$_Simple_types@U_OrdinalFuncs@@@std@@@2@$00@std@@QBEABV?$_Vector_val@U?$_Simple_types@U_OrdinalFuncs@@@std@@@2@XZ 00456200 f i DialogFirst.obj
 0001:00055240       ?_Get_second@?$_Compressed_pair@U?$_Wrap_alloc@V?$allocator@U_RelocItem@@@std@@@std@@V?$_Vector_val@U?$_Simple_types@U_RelocItem@@@std@@@2@$00@std@@QAEAAV?$_Vector_val@U?$_Simple_types@U_RelocItem@@@std@@@2@XZ 00456240 f i DialogFirst.obj
 0001:00055280       ?_Get_second@?$_Compressed_pair@U?$_Wrap_alloc@V?$allocator@U_RelocItem@@@std@@@std@@V?$_Vector_val@U?$_Simple_types@U_RelocItem@@@std@@@2@$00@std@@QBEABV?$_Vector_val@U?$_Simple_types@U_RelocItem@@@std@@@2@XZ 00456280 f i DialogFirst.obj
 0001:000552c0       ?_Get_second@?$_Compressed_pair@U?$_Wrap_alloc@V?$allocator@U_ResourceItem@@@std@@@std@@V?$_Vector_val@U?$_Simple_types@U_ResourceItem@@@std@@@2@$00@std@@QAEAAV?$_Vector_val@U?$_Simple_types@U_ResourceItem@@@std@@@2@XZ 004562c0 f i DialogFirst.obj
 0001:00055300       ?_Get_second@?$_Compressed_pair@U?$_Wrap_alloc@V?$allocator@U_ResourceItem@@@std@@@std@@V?$_Vector_val@U?$_Simple_types@U_ResourceItem@@@std@@@2@$00@std@@QBEABV?$_Vector_val@U?$_Simple_types@U_ResourceItem@@@std@@@2@XZ 00456300 f i DialogFirst.obj
 0001:00055340       ?_Get_second@?$_Compressed_pair@U?$_Wrap_alloc@V?$allocator@_W@std@@@std@@V?$_String_val@U?$_Simple_types@_W@std@@@2@$00@std@@QBEABV?$_String_val@U?$_Simple_types@_W@std@@@2@XZ 00456340 f i DialogFirst.obj
 0001:00055380       ?_Myfirst@?$_Vector_alloc@U?$_Vec_base_types@U_DelayItem@@V?$allocator@U_DelayItem@@@std@@@std@@@std@@QAEAAPAU_DelayItem@@XZ 00456380 f i DialogFirst.obj
 0001:000553e0       ?_Myfirst@?$_Vector_alloc@U?$_Vec_base_types@U_DelayItem@@V?$allocator@U_DelayItem@@@std@@@std@@@std@@QBEABQAU_DelayItem@@XZ 004563e0 f i DialogFirst.obj
 0001:00055440       ?_Myfirst@?$_Vector_alloc@U?$_Vec_base_types@U_ImportItem@@V?$allocator@U_ImportItem@@@std@@@std@@@std@@QAEAAPAU_ImportItem@@XZ 00456440 f i DialogFirst.obj
 0001:000554a0       ?_Myfirst@?$_Vector_alloc@U?$_Vec_base_types@U_ImportItem@@V?$allocator@U_ImportItem@@@std@@@std@@@std@@QBEABQAU_ImportItem@@XZ 004564a0 f i DialogFirst.obj
 0001:00055500       ?_Myfirst@?$_Vector_alloc@U?$_Vec_base_types@U_OrdinalFuncs@@V?$allocator@U_OrdinalFuncs@@@std@@@std@@@std@@QAEAAPAU_OrdinalFuncs@@XZ 00456500 f i DialogFirst.obj
 0001:00055560       ?_Myfirst@?$_Vector_alloc@U?$_Vec_base_types@U_OrdinalFuncs@@V?$allocator@U_OrdinalFuncs@@@std@@@std@@@std@@QBEABQAU_OrdinalFuncs@@XZ 00456560 f i DialogFirst.obj
 0001:000555c0       ?_Myfirst@?$_Vector_alloc@U?$_Vec_base_types@U_RelocItem@@V?$allocator@U_RelocItem@@@std@@@std@@@std@@QAEAAPAU_RelocItem@@XZ 004565c0 f i DialogFirst.obj
 0001:00055620       ?_Myfirst@?$_Vector_alloc@U?$_Vec_base_types@U_RelocItem@@V?$allocator@U_RelocItem@@@std@@@std@@@std@@QBEABQAU_RelocItem@@XZ 00456620 f i DialogFirst.obj
 0001:00055680       ?_Myfirst@?$_Vector_alloc@U?$_Vec_base_types@U_ResourceItem@@V?$allocator@U_ResourceItem@@@std@@@std@@@std@@QAEAAPAU_ResourceItem@@XZ 00456680 f i DialogFirst.obj
 0001:000556e0       ?_Myfirst@?$_Vector_alloc@U?$_Vec_base_types@U_ResourceItem@@V?$allocator@U_ResourceItem@@@std@@@std@@@std@@QBEABQAU_ResourceItem@@XZ 004566e0 f i DialogFirst.obj
 0001:00055740       ?_Mylast@?$_Vector_alloc@U?$_Vec_base_types@U_DelayItem@@V?$allocator@U_DelayItem@@@std@@@std@@@std@@QBEABQAU_DelayItem@@XZ 00456740 f i DialogFirst.obj
 0001:000557a0       ?_Mylast@?$_Vector_alloc@U?$_Vec_base_types@U_ImportItem@@V?$allocator@U_ImportItem@@@std@@@std@@@std@@QBEABQAU_ImportItem@@XZ 004567a0 f i DialogFirst.obj
 0001:00055800       ?_Mylast@?$_Vector_alloc@U?$_Vec_base_types@U_OrdinalFuncs@@V?$allocator@U_OrdinalFuncs@@@std@@@std@@@std@@QBEABQAU_OrdinalFuncs@@XZ 00456800 f i DialogFirst.obj
 0001:00055860       ?_Mylast@?$_Vector_alloc@U?$_Vec_base_types@U_RelocItem@@V?$allocator@U_RelocItem@@@std@@@std@@@std@@QBEABQAU_RelocItem@@XZ 00456860 f i DialogFirst.obj
 0001:000558c0       ?_Mylast@?$_Vector_alloc@U?$_Vec_base_types@U_ResourceItem@@V?$allocator@U_ResourceItem@@@std@@@std@@@std@@QBEABQAU_ResourceItem@@XZ 004568c0 f i DialogFirst.obj
 0001:00055920       ?_Myptr@?$_String_alloc@U?$_String_base_types@_WV?$allocator@_W@std@@@std@@@std@@QBEPB_WXZ 00456920 f i DialogFirst.obj
 0001:00055980       ?_Myptr@?$_String_val@U?$_Simple_types@_W@std@@@std@@QBEPB_WXZ 00456980 f i DialogFirst.obj
 0001:00055a10       ?c_str@?$basic_string@_WU?$char_traits@_W@std@@V?$allocator@_W@2@@std@@QBEPB_WXZ 00456a10 f i DialogFirst.obj
 0001:00055aa0       ?size@?$vector@U_DelayItem@@V?$allocator@U_DelayItem@@@std@@@std@@QBEIXZ 00456aa0 f i DialogFirst.obj
 0001:00055b10       ?size@?$vector@U_ImportItem@@V?$allocator@U_ImportItem@@@std@@@std@@QBEIXZ 00456b10 f i DialogFirst.obj
 0001:00055b80       ?size@?$vector@U_OrdinalFuncs@@V?$allocator@U_OrdinalFuncs@@@std@@@std@@QBEIXZ 00456b80 f i DialogFirst.obj
 0001:00055bf0       ?size@?$vector@U_RelocItem@@V?$allocator@U_RelocItem@@@std@@@std@@QBEIXZ 00456bf0 f i DialogFirst.obj
 0001:00055c60       ?size@?$vector@U_ResourceItem@@V?$allocator@U_ResourceItem@@@std@@@std@@QBEIXZ 00456c60 f i DialogFirst.obj
 0001:00055ec0       ??0CDisaDialog@@QAE@PAVCWnd@@@Z 00456ec0 f   DisaDialog.obj
 0001:00055fa0       ??1CDisaDialog@@UAE@XZ     00456fa0 f   DisaDialog.obj
 0001:00056020       ??_GCDisaDialog@@UAEPAXI@Z 00457020 f i DisaDialog.obj
 0001:00056020       ??_ECDisaDialog@@UAEPAXI@Z 00457020 f i DisaDialog.obj
 0001:000560b0       ?DoDataExchange@CDisaDialog@@MAEXPAVCDataExchange@@@Z 004570b0 f   DisaDialog.obj
 0001:00056130       ?GetMessageMap@CDisaDialog@@MBEPBUAFX_MSGMAP@@XZ 00457130 f   DisaDialog.obj
 0001:00056180       ?GetRuntimeClass@CDisaDialog@@UBEPAUCRuntimeClass@@XZ 00457180 f   DisaDialog.obj
 0001:000561c0       ?GetThisClass@CDisaDialog@@SGPAUCRuntimeClass@@XZ 004571c0 f   DisaDialog.obj
 0001:00056200       ?GetThisMessageMap@CDisaDialog@@KGPBUAFX_MSGMAP@@XZ 00457200 f   DisaDialog.obj
 0001:00056240       ?InitDisaDate@CDisaDialog@@QAEHXZ 00457240 f   DisaDialog.obj
 0001:000565b0       ?OnInitDialog@CDisaDialog@@UAEHXZ 004575b0 f   DisaDialog.obj
 0001:00056620       ?SetDlgUI@CDisaDialog@@QAEXXZ 00457620 f   DisaDialog.obj
 0001:00056a50       ?_GetBaseClass@CDisaDialog@@KGPAUCRuntimeClass@@XZ 00457a50 f   DisaDialog.obj
 0001:00056aa0       ?_AfxInitManaged@@YAHXZ    00457aa0 f i GlobeVar.obj
 0001:00056ad0       ??$AtlAdd@H@ATL@@YAJPAHHH@Z 00457ad0 f i GlobeVar.obj
 0001:00056b50       ??$AtlAdd@I@ATL@@YAJPAIII@Z 00457b50 f i GlobeVar.obj
 0001:00056bc0       ??$AtlAdd@K@ATL@@YAJPAKKK@Z 00457bc0 f i GlobeVar.obj
 0001:00056c30       ??$AtlAlignUp@H@ATL@@YGHHK@Z 00457c30 f i GlobeVar.obj
 0001:00056c80       ??$AtlMultiply@I@ATL@@YAJPAIII@Z 00457c80 f i GlobeVar.obj
 0001:00056d00       ??$AtlMultiply@K@ATL@@YAJPAKKK@Z 00457d00 f i GlobeVar.obj
 0001:00056d80       ??0?$CHeapPtr@DVCCRTAllocator@ATL@@@ATL@@QAE@XZ 00457d80 f i GlobeVar.obj
 0001:00056de0       ??0?$CHeapPtr@_WVCCRTAllocator@ATL@@@ATL@@QAE@XZ 00457de0 f i GlobeVar.obj
 0001:00056e40       ??0?$CHeapPtrBase@DVCCRTAllocator@ATL@@@ATL@@IAE@XZ 00457e40 f i GlobeVar.obj
 0001:00056e90       ??0?$CHeapPtrBase@_WVCCRTAllocator@ATL@@@ATL@@IAE@XZ 00457e90 f i GlobeVar.obj
 0001:00056ee0       ??0?$CSimpleArray@GV?$CSimpleArrayEqualHelper@G@ATL@@@ATL@@QAE@XZ 00457ee0 f i GlobeVar.obj
 0001:00056f40       ??0?$CTraceCategoryEx@$00$0A@@ATL@@QAE@PBD@Z 00457f40 f i GlobeVar.obj
 0001:00056fa0       ??0?$CTraceCategoryEx@$01$0A@@ATL@@QAE@PBD@Z 00457fa0 f i GlobeVar.obj
 0001:00057000       ??0?$CTraceCategoryEx@$03$0A@@ATL@@QAE@PBD@Z 00458000 f i GlobeVar.obj
 0001:00057060       ??0?$CTraceCategoryEx@$07$0A@@ATL@@QAE@PBD@Z 00458060 f i GlobeVar.obj
 0001:000570c0       ??0?$CTraceCategoryEx@$0BA@$0A@@ATL@@QAE@PBD@Z 004580c0 f i GlobeVar.obj
 0001:00057120       ??0?$CTraceCategoryEx@$0BAA@$0A@@ATL@@QAE@PBD@Z 00458120 f i GlobeVar.obj
 0001:00057180       ??0?$CTraceCategoryEx@$0BAAA@$0A@@ATL@@QAE@PBD@Z 00458180 f i GlobeVar.obj
 0001:000571e0       ??0?$CTraceCategoryEx@$0BAAAA@$0A@@ATL@@QAE@PBD@Z 004581e0 f i GlobeVar.obj
 0001:00057240       ??0?$CTraceCategoryEx@$0BAAAAA@$0A@@ATL@@QAE@PBD@Z 00458240 f i GlobeVar.obj
 0001:000572a0       ??0?$CTraceCategoryEx@$0CA@$0A@@ATL@@QAE@PBD@Z 004582a0 f i GlobeVar.obj
 0001:00057300       ??0?$CTraceCategoryEx@$0CAA@$0A@@ATL@@QAE@PBD@Z 00458300 f i GlobeVar.obj
 0001:00057360       ??0?$CTraceCategoryEx@$0CAAAAA@$0A@@ATL@@QAE@PBD@Z 00458360 f i GlobeVar.obj
 0001:000573c0       ??0?$CTraceCategoryEx@$0EA@$0A@@ATL@@QAE@PBD@Z 004583c0 f i GlobeVar.obj
 0001:00057420       ??0?$CTraceCategoryEx@$0EAA@$0A@@ATL@@QAE@PBD@Z 00458420 f i GlobeVar.obj
 0001:00057480       ??0?$CTraceCategoryEx@$0EAAA@$0A@@ATL@@QAE@PBD@Z 00458480 f i GlobeVar.obj
 0001:000574e0       ??0?$CTraceCategoryEx@$0EAAAA@$0A@@ATL@@QAE@PBD@Z 004584e0 f i GlobeVar.obj
 0001:00057540       ??0?$CTraceCategoryEx@$0EAAAAA@$0A@@ATL@@QAE@PBD@Z 00458540 f i GlobeVar.obj
 0001:000575a0       ??0?$CTraceCategoryEx@$0IA@$0A@@ATL@@QAE@PBD@Z 004585a0 f i GlobeVar.obj
 0001:00057600       ??0?$CTraceCategoryEx@$0IAA@$0A@@ATL@@QAE@PBD@Z 00458600 f i GlobeVar.obj
 0001:00057660       ??0?$CTraceCategoryEx@$0IAAA@$0A@@ATL@@QAE@PBD@Z 00458660 f i GlobeVar.obj
 0001:000576c0       ??0?$CTraceCategoryEx@$0IAAAA@$0A@@ATL@@QAE@PBD@Z 004586c0 f i GlobeVar.obj
 0001:00057720       ??0CAtlComModule@ATL@@QAE@XZ 00458720 f i GlobeVar.obj
 0001:00057850       ??0CAtlStringMgr@ATL@@QAE@PAUIAtlMemMgr@1@@Z 00458850 f i GlobeVar.obj
 0001:000578e0       ??0CAtlWinModule@ATL@@QAE@XZ 004588e0 f i GlobeVar.obj
 0001:000579b0       ??0CComCriticalSection@ATL@@QAE@XZ 004589b0 f i GlobeVar.obj
 0001:00057a10       ??0CDCCache@CImage@ATL@@QAE@XZ 00458a10 f i GlobeVar.obj
 0001:00057a80       ??0CInitGDIPlus@CImage@ATL@@QAE@XZ 00458a80 f i GlobeVar.obj
 0001:00057b30       ??0CNilStringData@ATL@@QAE@XZ 00458b30 f i GlobeVar.obj
 0001:00057bd0       ??0CPreserveLastError@ATL@@QAE@XZ 00458bd0 f i GlobeVar.obj
 0001:00057c40       ??0CTraceFileAndLineInfo@ATL@@QAE@PBDH@Z 00458c40 f i GlobeVar.obj
 0001:00057c90       ??0CWin32Heap@ATL@@QAE@PAX@Z 00458c90 f i GlobeVar.obj
 0001:00057d40       ??0_ATL_COM_MODULE70@ATL@@QAE@XZ 00458d40 f i GlobeVar.obj
 0001:00057da0       ??0_ATL_WIN_MODULE70@ATL@@QAE@XZ 00458da0 f i GlobeVar.obj
 0001:00057e50       ??1?$CHeapPtr@DVCCRTAllocator@ATL@@@ATL@@QAE@XZ 00458e50 f i GlobeVar.obj
 0001:00057ea0       ??1?$CHeapPtr@_WVCCRTAllocator@ATL@@@ATL@@QAE@XZ 00458ea0 f i GlobeVar.obj
 0001:00057ef0       ??1?$CHeapPtrBase@DVCCRTAllocator@ATL@@@ATL@@QAE@XZ 00458ef0 f i GlobeVar.obj
 0001:00057f40       ??1?$CHeapPtrBase@_WVCCRTAllocator@ATL@@@ATL@@QAE@XZ 00458f40 f i GlobeVar.obj
 0001:00057f90       ??1?$CSimpleArray@GV?$CSimpleArrayEqualHelper@G@ATL@@@ATL@@QAE@XZ 00458f90 f i GlobeVar.obj
 0001:00058020       ??1CAtlComModule@ATL@@QAE@XZ 00459020 f i GlobeVar.obj
 0001:000580b0       ??1CAtlStringMgr@ATL@@UAE@XZ 004590b0 f i GlobeVar.obj
 0001:00058100       ??1CAtlWinModule@ATL@@QAE@XZ 00459100 f i GlobeVar.obj
 0001:00058190       ??1CComCriticalSection@ATL@@QAE@XZ 00459190 f i GlobeVar.obj
 0001:000581d0       ??1CDCCache@CImage@ATL@@QAE@XZ 004591d0 f i GlobeVar.obj
 0001:00058270       ??1CInitGDIPlus@CImage@ATL@@QAE@XZ 00459270 f i GlobeVar.obj
 0001:000582e0       ??1CPreserveLastError@ATL@@QAE@XZ 004592e0 f i GlobeVar.obj
 0001:00058340       ??1CWin32Heap@ATL@@UAE@XZ  00459340 f i GlobeVar.obj
 0001:00058410       ??1_ATL_COM_MODULE70@ATL@@QAE@XZ 00459410 f i GlobeVar.obj
 0001:00058470       ??1_ATL_WIN_MODULE70@ATL@@QAE@XZ 00459470 f i GlobeVar.obj
 0001:000584d0       ??A?$CSimpleArray@GV?$CSimpleArrayEqualHelper@G@ATL@@@ATL@@QAEAAGH@Z 004594d0 f i GlobeVar.obj
 0001:000585a0       ??B?$CHeapPtrBase@DVCCRTAllocator@ATL@@@ATL@@QBEPADXZ 004595a0 f i GlobeVar.obj
 0001:000585e0       ??B?$CHeapPtrBase@_WVCCRTAllocator@ATL@@@ATL@@QBEPA_WXZ 004595e0 f i GlobeVar.obj
 0001:00058620       ??B?$CTraceCategoryEx@$01$0A@@ATL@@QAEIXZ 00459620 f i GlobeVar.obj
 0001:00058660       ??B?$CTraceCategoryEx@$0CA@$0A@@ATL@@QAEIXZ 00459660 f i GlobeVar.obj
 0001:000586a0       ??RCTraceFileAndLineInfo@ATL@@QBAXHIPBDZZ 004596a0 f i GlobeVar.obj
 0001:000587c0       ??_ECAtlStringMgr@ATL@@UAEPAXI@Z 004597c0 f i GlobeVar.obj
 0001:000587c0       ??_GCAtlStringMgr@ATL@@UAEPAXI@Z 004597c0 f i GlobeVar.obj
 0001:00058830       ??_ECWin32Heap@ATL@@UAEPAXI@Z 00459830 f i GlobeVar.obj
 0001:00058830       ??_GCWin32Heap@ATL@@UAEPAXI@Z 00459830 f i GlobeVar.obj
 0001:000588a0       ??_H@YGXPAXIIP6EPAX0@Z@Z   004598a0 f i GlobeVar.obj
 0001:00058950       ?AddRef@CStringData@ATL@@QAEXXZ 00459950 f i GlobeVar.obj
 0001:000589f0       ?Allocate@?$CHeapPtr@DVCCRTAllocator@ATL@@@ATL@@QAE_NI@Z 004599f0 f i GlobeVar.obj
 0001:00058ab0       ?Allocate@?$CHeapPtr@_WVCCRTAllocator@ATL@@@ATL@@QAE_NI@Z 00459ab0 f i GlobeVar.obj
 0001:00058b70       ?Allocate@CAtlStringMgr@ATL@@UAEPAUCStringData@2@HH@Z 00459b70 f i GlobeVar.obj
 0001:00058e00       ?Allocate@CCRTAllocator@ATL@@SAPAXI@Z 00459e00 f i GlobeVar.obj
 0001:00058e60       ?Allocate@CWin32Heap@ATL@@UAEPAXI@Z 00459e60 f i GlobeVar.obj
 0001:00058ed0       ?AllocateBytes@?$CHeapPtrBase@DVCCRTAllocator@ATL@@@ATL@@QAE_NI@Z 00459ed0 f i GlobeVar.obj
 0001:00058f90       ?AllocateBytes@?$CHeapPtrBase@_WVCCRTAllocator@ATL@@@ATL@@QAE_NI@Z 00459f90 f i GlobeVar.obj
 0001:00059050       ?AtlWinModuleInit@ATL@@YGJPAU_ATL_WIN_MODULE70@1@@Z 0045a050 f i GlobeVar.obj
 0001:00059170       ?AtlWinModuleTerm@ATL@@YGJPAU_ATL_WIN_MODULE70@1@PAUHINSTANCE__@@@Z 0045a170 f i GlobeVar.obj
 0001:00059270       ?CImageStaticInitialize@CImage@ATL@@CA_NXZ 0045a270 f i GlobeVar.obj
 0001:000592c0       ?Clone@CAtlStringMgr@ATL@@UAEPAUIAtlStringMgr@2@XZ 0045a2c0 f i GlobeVar.obj
 0001:00059300       ?Create16EditWindow@@YAXPAEIII@Z 0045a300 f   GlobeVar.obj
 0001:00059410       ?Free@?$CHeapPtrBase@DVCCRTAllocator@ATL@@@ATL@@QAEXXZ 0045a410 f i GlobeVar.obj
 0001:00059480       ?Free@?$CHeapPtrBase@_WVCCRTAllocator@ATL@@@ATL@@QAEXXZ 0045a480 f i GlobeVar.obj
 0001:000594f0       ?Free@CAtlStringMgr@ATL@@UAEXPAUCStringData@2@@Z 0045a4f0 f i GlobeVar.obj
 0001:000595f0       ?Free@CCRTAllocator@ATL@@SAXPAX@Z 0045a5f0 f i GlobeVar.obj
 0001:00059650       ?Free@CWin32Heap@ATL@@UAEXPAX@Z 0045a650 f i GlobeVar.obj
 0001:00059710       ?GetCDCCacheInstance@CImage@ATL@@CAPAVCDCCache@12@XZ 0045a710 f i GlobeVar.obj
 0001:000597c0       ?GetCategoryName@CTrace@ATL@@CAPA_WI@Z 0045a7c0 f i GlobeVar.obj
 0001:00059840       ?GetInitGDIPlusInstance@CImage@ATL@@CAPAVCInitGDIPlus@12@XZ 0045a840 f i GlobeVar.obj
 0001:000598f0       ?GetInstance@CAtlStringMgr@ATL@@SAPAUIAtlStringMgr@2@XZ 0045a8f0 f i GlobeVar.obj
 0001:00059a30       ?GetModuleInstance@CAtlBaseModule@ATL@@QAEPAUHINSTANCE__@@XZ 0045aa30 f i GlobeVar.obj
 0001:00059a70       ?GetNilString@CAtlStringMgr@ATL@@UAEPAUCStringData@2@XZ 0045aa70 f i GlobeVar.obj
 0001:00059ad0       ?GetSize@?$CSimpleArray@GV?$CSimpleArrayEqualHelper@G@ATL@@@ATL@@QBEHXZ 0045aad0 f i GlobeVar.obj
 0001:00059b10       ?GetSize@CWin32Heap@ATL@@UAEIPAX@Z 0045ab10 f i GlobeVar.obj
 0001:00059b80       ?Init@CComCriticalSection@ATL@@QAEJXZ 0045ab80 f i GlobeVar.obj
 0001:00059c10       ?Reallocate@CAtlStringMgr@ATL@@UAEPAUCStringData@2@PAU32@HH@Z 0045ac10 f i GlobeVar.obj
 0001:00059ec0       ?Reallocate@CWin32Heap@ATL@@UAEPAXPAXI@Z 0045aec0 f i GlobeVar.obj
 0001:00059f90       ?ReleaseGDIPlus@CInitGDIPlus@CImage@ATL@@QAEXXZ 0045af90 f i GlobeVar.obj
 0001:0005a030       ?RemoveAll@?$CSimpleArray@GV?$CSimpleArrayEqualHelper@G@ATL@@@ATL@@QAEXXZ 0045b030 f i GlobeVar.obj
 0001:0005a0f0       ?SetManager@CNilStringData@ATL@@QAEXPAUIAtlStringMgr@2@@Z 0045b0f0 f i GlobeVar.obj
 0001:0005a190       ?StaticInitialize@CAtlStringMgr@ATL@@CA_NXZ 0045b190 f i GlobeVar.obj
 0001:0005a1e0       ?Term@CAtlComModule@ATL@@QAEXXZ 0045b1e0 f i GlobeVar.obj
 0001:0005a2e0       ?Term@CAtlWinModule@ATL@@QAEXXZ 0045b2e0 f i GlobeVar.obj
 0001:0005a340       ?Term@CComCriticalSection@ATL@@QAEJXZ 0045b340 f i GlobeVar.obj
 0001:0005a3a0       ?TraceV@CTrace@ATL@@CAXPBDHIIPB_W@Z 0045b3a0 f i GlobeVar.obj
 0001:0005a700       ?TraceV@CTrace@ATL@@SAXPBDHII0PAD@Z 0045b700 f i GlobeVar.obj
 0001:0005a9b0       ?_AtlInitializeCriticalSectionEx@ATL@@YAHPAU_RTL_CRITICAL_SECTION@@KK@Z 0045b9b0 f i GlobeVar.obj
 0001:0005aa10       ?_AtlRaiseException@ATL@@YAXKK@Z 0045ba10 f i GlobeVar.obj
 0001:0005aa70       _HRESULT_FROM_WIN32        0045ba70 f i GlobeVar.obj
 0001:0005aae0       __vscprintf                0045bae0 f i GlobeVar.obj
 0001:0005ab40       __vscprintf_l              0045bb40 f i GlobeVar.obj
 0001:0005abf0       __vsnprintf_s              0045bbf0 f i GlobeVar.obj
 0001:0005ac60       __vsnprintf_s_l            0045bc60 f i GlobeVar.obj
 0001:0005ad10       ??0MFCEdit@@QAE@XZ         0045bd10 f   MFCEdit.obj
 0001:0005ad70       ??1MFCEdit@@UAE@XZ         0045bd70 f   MFCEdit.obj
 0001:0005add0       ??_EMFCEdit@@UAEPAXI@Z     0045bdd0 f i MFCEdit.obj
 0001:0005add0       ??_GMFCEdit@@UAEPAXI@Z     0045bdd0 f i MFCEdit.obj
 0001:0005ae60       ?GetMessageMap@MFCEdit@@MBEPBUAFX_MSGMAP@@XZ 0045be60 f   MFCEdit.obj
 0001:0005aeb0       ?GetRuntimeClass@MFCEdit@@UBEPAUCRuntimeClass@@XZ 0045beb0 f   MFCEdit.obj
 0001:0005aef0       ?GetThisClass@MFCEdit@@SGPAUCRuntimeClass@@XZ 0045bef0 f   MFCEdit.obj
 0001:0005af30       ?GetThisMessageMap@MFCEdit@@KGPBUAFX_MSGMAP@@XZ 0045bf30 f   MFCEdit.obj
 0001:0005af70       ?PreSubclassWindow@MFCEdit@@UAEXXZ 0045bf70 f   MFCEdit.obj
 0001:0005b010       ?_GetBaseClass@MFCEdit@@KGPAUCRuntimeClass@@XZ 0045c010 f   MFCEdit.obj
 0001:0005b060       ?OnMouseMove@MFCStatic@@QAEXIVCPoint@@@Z 0045c060 f   MFCStatic.obj
 0001:0005b0d0       ?OnMouseLeave@MFCStatic@@QAEXXZ 0045c0d0 f   MFCStatic.obj
 0001:0005b150       ??0MFCStatic@@QAE@XZ       0045c150 f   MFCStatic.obj
 0001:0005b1b0       ??1MFCStatic@@UAE@XZ       0045c1b0 f   MFCStatic.obj
 0001:0005b210       ??_GMFCStatic@@UAEPAXI@Z   0045c210 f i MFCStatic.obj
 0001:0005b210       ??_EMFCStatic@@UAEPAXI@Z   0045c210 f i MFCStatic.obj
 0001:0005b2a0       ?GetMessageMap@MFCStatic@@MBEPBUAFX_MSGMAP@@XZ 0045c2a0 f   MFCStatic.obj
 0001:0005b2f0       ?GetRuntimeClass@MFCStatic@@UBEPAUCRuntimeClass@@XZ 0045c2f0 f   MFCStatic.obj
 0001:0005b330       ?GetThisClass@MFCStatic@@SGPAUCRuntimeClass@@XZ 0045c330 f   MFCStatic.obj
 0001:0005b370       ?GetThisMessageMap@MFCStatic@@KGPBUAFX_MSGMAP@@XZ 0045c370 f   MFCStatic.obj
 0001:0005b3b0       ?PreSubclassWindow@MFCStatic@@UAEXXZ 0045c3b0 f   MFCStatic.obj
 0001:0005b450       ?_GetBaseClass@MFCStatic@@KGPAUCRuntimeClass@@XZ 0045c450 f   MFCStatic.obj
 0001:0005b4a0       ??0CRect@@QAE@XZ           0045c4a0 f i MFCStatus.obj
 0001:0005b510       ??0MFCStatus@@QAE@XZ       0045c510 f   MFCStatus.obj
 0001:0005b5d0       ??1MFCStatus@@UAE@XZ       0045c5d0 f   MFCStatus.obj
 0001:0005b640       ??_GMFCStatus@@UAEPAXI@Z   0045c640 f i MFCStatus.obj
 0001:0005b640       ??_EMFCStatus@@UAEPAXI@Z   0045c640 f i MFCStatus.obj
 0001:0005b6d0       ?GetMessageMap@MFCStatus@@MBEPBUAFX_MSGMAP@@XZ 0045c6d0 f   MFCStatus.obj
 0001:0005b720       ?GetRuntimeClass@MFCStatus@@UBEPAUCRuntimeClass@@XZ 0045c720 f   MFCStatus.obj
 0001:0005b760       ?GetThisClass@MFCStatus@@SGPAUCRuntimeClass@@XZ 0045c760 f   MFCStatus.obj
 0001:0005b7a0       ?GetThisMessageMap@MFCStatus@@KGPBUAFX_MSGMAP@@XZ 0045c7a0 f   MFCStatus.obj
 0001:0005b7e0       ?SetUI@MFCStatus@@QAEXXZ   0045c7e0 f   MFCStatus.obj
 0001:0005b9c0       ?_GetBaseClass@MFCStatus@@KGPAUCRuntimeClass@@XZ 0045c9c0 f   MFCStatus.obj
 0001:0005ba10       ?OnLvnColumnclick@MyListCtrl@@QAEXPAUtagNMHDR@@PAJ@Z 0045ca10 f   MyListCtrl.obj
 0001:0005bb70       ?OnNMClick@MyListCtrl@@QAEXPAUtagNMHDR@@PAJ@Z 0045cb70 f   MyListCtrl.obj
 0001:0005bbc0       ?OnLvnItemchanged@MyListCtrl@@QAEXPAUtagNMHDR@@PAJ@Z 0045cbc0 f   MyListCtrl.obj
 0001:0005cf90       ??0MyListCtrl@@QAE@XZ      0045df90 f   MyListCtrl.obj
 0001:0005cff0       ??1MyListCtrl@@UAE@XZ      0045dff0 f   MyListCtrl.obj
 0001:0005d050       ??A?$vector@U_ElementItem@@V?$allocator@U_ElementItem@@@std@@@std@@QAEAAU_ElementItem@@I@Z 0045e050 f i MyListCtrl.obj
 0001:0005d170       ??A?$vector@U_EntryDataItem@@V?$allocator@U_EntryDataItem@@@std@@@std@@QAEAAU_EntryDataItem@@I@Z 0045e170 f i MyListCtrl.obj
 0001:0005d290       ??A?$vector@U_ThunkItem@@V?$allocator@U_ThunkItem@@@std@@@std@@QAEAAU_ThunkItem@@I@Z 0045e290 f i MyListCtrl.obj
 0001:0005d3b0       ??_EMyListCtrl@@UAEPAXI@Z  0045e3b0 f i MyListCtrl.obj
 0001:0005d3b0       ??_GMyListCtrl@@UAEPAXI@Z  0045e3b0 f i MyListCtrl.obj
 0001:0005d440       ?Clear@MyListCtrl@@QAEXXZ  0045e440 f   MyListCtrl.obj
 0001:0005d4f0       ?GetHeaderCtrl@CMFCListCtrl@@UAEAAVCMFCHeaderCtrl@@XZ 0045e4f0 f i MyListCtrl.obj
 0001:0005d530       ?GetMessageMap@MyListCtrl@@MBEPBUAFX_MSGMAP@@XZ 0045e530 f   MyListCtrl.obj
 0001:0005d580       ?GetRuntimeClass@MyListCtrl@@UBEPAUCRuntimeClass@@XZ 0045e580 f   MyListCtrl.obj
 0001:0005d5c0       ?GetThisClass@MyListCtrl@@SGPAUCRuntimeClass@@XZ 0045e5c0 f   MyListCtrl.obj
 0001:0005d600       ?GetThisMessageMap@MyListCtrl@@KGPBUAFX_MSGMAP@@XZ 0045e600 f   MyListCtrl.obj
 0001:0005d640       ?ListCompare@MyListCtrl@@SGHJJJ@Z 0045e640 f   MyListCtrl.obj
 0001:0005db50       ?OnGetCellBkColor@CMFCListCtrl@@UAEKHH@Z 0045eb50 f i MyListCtrl.obj
 0001:0005dbb0       ?OnGetCellFont@CMFCListCtrl@@UAEPAUHFONT__@@HHK@Z 0045ebb0 f i MyListCtrl.obj
 0001:0005dbf0       ?OnGetCellTextColor@CMFCListCtrl@@UAEKHH@Z 0045ebf0 f i MyListCtrl.obj
 0001:0005dc50       ?PreSubclassWindow@MyListCtrl@@MAEXXZ 0045ec50 f   MyListCtrl.obj
 0001:0005dd10       ?SetHeaders@MyListCtrl@@QAEXQAY0IA@DH@Z 0045ed10 f   MyListCtrl.obj
 0001:0005de60       ?SetStyle@MyListCtrl@@QAEXK@Z 0045ee60 f   MyListCtrl.obj
 0001:0005df00       ?Width@CRect@@QBEHXZ       0045ef00 f i MyListCtrl.obj
 0001:0005df50       ?_GetBaseClass@MyListCtrl@@KGPAUCRuntimeClass@@XZ 0045ef50 f   MyListCtrl.obj
 0001:0005dfa0       ?_Get_data@?$_Vector_alloc@U?$_Vec_base_types@U_ElementItem@@V?$allocator@U_ElementItem@@@std@@@std@@@std@@QAEAAV?$_Vector_val@U?$_Simple_types@U_ElementItem@@@std@@@2@XZ 0045efa0 f i MyListCtrl.obj
 0001:0005dff0       ?_Get_data@?$_Vector_alloc@U?$_Vec_base_types@U_ElementItem@@V?$allocator@U_ElementItem@@@std@@@std@@@std@@QBEABV?$_Vector_val@U?$_Simple_types@U_ElementItem@@@std@@@2@XZ 0045eff0 f i MyListCtrl.obj
 0001:0005e040       ?_Get_data@?$_Vector_alloc@U?$_Vec_base_types@U_EntryDataItem@@V?$allocator@U_EntryDataItem@@@std@@@std@@@std@@QAEAAV?$_Vector_val@U?$_Simple_types@U_EntryDataItem@@@std@@@2@XZ 0045f040 f i MyListCtrl.obj
 0001:0005e090       ?_Get_data@?$_Vector_alloc@U?$_Vec_base_types@U_EntryDataItem@@V?$allocator@U_EntryDataItem@@@std@@@std@@@std@@QBEABV?$_Vector_val@U?$_Simple_types@U_EntryDataItem@@@std@@@2@XZ 0045f090 f i MyListCtrl.obj
 0001:0005e0e0       ?_Get_data@?$_Vector_alloc@U?$_Vec_base_types@U_ThunkItem@@V?$allocator@U_ThunkItem@@@std@@@std@@@std@@QAEAAV?$_Vector_val@U?$_Simple_types@U_ThunkItem@@@std@@@2@XZ 0045f0e0 f i MyListCtrl.obj
 0001:0005e130       ?_Get_data@?$_Vector_alloc@U?$_Vec_base_types@U_ThunkItem@@V?$allocator@U_ThunkItem@@@std@@@std@@@std@@QBEABV?$_Vector_val@U?$_Simple_types@U_ThunkItem@@@std@@@2@XZ 0045f130 f i MyListCtrl.obj
 0001:0005e180       ?_Get_second@?$_Compressed_pair@U?$_Wrap_alloc@V?$allocator@U_ElementItem@@@std@@@std@@V?$_Vector_val@U?$_Simple_types@U_ElementItem@@@std@@@2@$00@std@@QAEAAV?$_Vector_val@U?$_Simple_types@U_ElementItem@@@std@@@2@XZ 0045f180 f i MyListCtrl.obj
 0001:0005e1c0       ?_Get_second@?$_Compressed_pair@U?$_Wrap_alloc@V?$allocator@U_ElementItem@@@std@@@std@@V?$_Vector_val@U?$_Simple_types@U_ElementItem@@@std@@@2@$00@std@@QBEABV?$_Vector_val@U?$_Simple_types@U_ElementItem@@@std@@@2@XZ 0045f1c0 f i MyListCtrl.obj
 0001:0005e200       ?_Get_second@?$_Compressed_pair@U?$_Wrap_alloc@V?$allocator@U_EntryDataItem@@@std@@@std@@V?$_Vector_val@U?$_Simple_types@U_EntryDataItem@@@std@@@2@$00@std@@QAEAAV?$_Vector_val@U?$_Simple_types@U_EntryDataItem@@@std@@@2@XZ 0045f200 f i MyListCtrl.obj
 0001:0005e240       ?_Get_second@?$_Compressed_pair@U?$_Wrap_alloc@V?$allocator@U_EntryDataItem@@@std@@@std@@V?$_Vector_val@U?$_Simple_types@U_EntryDataItem@@@std@@@2@$00@std@@QBEABV?$_Vector_val@U?$_Simple_types@U_EntryDataItem@@@std@@@2@XZ 0045f240 f i MyListCtrl.obj
 0001:0005e280       ?_Get_second@?$_Compressed_pair@U?$_Wrap_alloc@V?$allocator@U_ThunkItem@@@std@@@std@@V?$_Vector_val@U?$_Simple_types@U_ThunkItem@@@std@@@2@$00@std@@QAEAAV?$_Vector_val@U?$_Simple_types@U_ThunkItem@@@std@@@2@XZ 0045f280 f i MyListCtrl.obj
 0001:0005e2c0       ?_Get_second@?$_Compressed_pair@U?$_Wrap_alloc@V?$allocator@U_ThunkItem@@@std@@@std@@V?$_Vector_val@U?$_Simple_types@U_ThunkItem@@@std@@@2@$00@std@@QBEABV?$_Vector_val@U?$_Simple_types@U_ThunkItem@@@std@@@2@XZ 0045f2c0 f i MyListCtrl.obj
 0001:0005e300       ?_Myfirst@?$_Vector_alloc@U?$_Vec_base_types@U_ElementItem@@V?$allocator@U_ElementItem@@@std@@@std@@@std@@QAEAAPAU_ElementItem@@XZ 0045f300 f i MyListCtrl.obj
 0001:0005e360       ?_Myfirst@?$_Vector_alloc@U?$_Vec_base_types@U_ElementItem@@V?$allocator@U_ElementItem@@@std@@@std@@@std@@QBEABQAU_ElementItem@@XZ 0045f360 f i MyListCtrl.obj
 0001:0005e3c0       ?_Myfirst@?$_Vector_alloc@U?$_Vec_base_types@U_EntryDataItem@@V?$allocator@U_EntryDataItem@@@std@@@std@@@std@@QAEAAPAU_EntryDataItem@@XZ 0045f3c0 f i MyListCtrl.obj
 0001:0005e420       ?_Myfirst@?$_Vector_alloc@U?$_Vec_base_types@U_EntryDataItem@@V?$allocator@U_EntryDataItem@@@std@@@std@@@std@@QBEABQAU_EntryDataItem@@XZ 0045f420 f i MyListCtrl.obj
 0001:0005e480       ?_Myfirst@?$_Vector_alloc@U?$_Vec_base_types@U_ThunkItem@@V?$allocator@U_ThunkItem@@@std@@@std@@@std@@QAEAAPAU_ThunkItem@@XZ 0045f480 f i MyListCtrl.obj
 0001:0005e4e0       ?_Myfirst@?$_Vector_alloc@U?$_Vec_base_types@U_ThunkItem@@V?$allocator@U_ThunkItem@@@std@@@std@@@std@@QBEABQAU_ThunkItem@@XZ 0045f4e0 f i MyListCtrl.obj
 0001:0005e540       ?_Mylast@?$_Vector_alloc@U?$_Vec_base_types@U_ElementItem@@V?$allocator@U_ElementItem@@@std@@@std@@@std@@QBEABQAU_ElementItem@@XZ 0045f540 f i MyListCtrl.obj
 0001:0005e5a0       ?_Mylast@?$_Vector_alloc@U?$_Vec_base_types@U_EntryDataItem@@V?$allocator@U_EntryDataItem@@@std@@@std@@@std@@QBEABQAU_EntryDataItem@@XZ 0045f5a0 f i MyListCtrl.obj
 0001:0005e600       ?_Mylast@?$_Vector_alloc@U?$_Vec_base_types@U_ThunkItem@@V?$allocator@U_ThunkItem@@@std@@@std@@@std@@QBEABQAU_ThunkItem@@XZ 0045f600 f i MyListCtrl.obj
 0001:0005e660       ?size@?$vector@U_ElementItem@@V?$allocator@U_ElementItem@@@std@@@std@@QBEIXZ 0045f660 f i MyListCtrl.obj
 0001:0005e6d0       ?size@?$vector@U_EntryDataItem@@V?$allocator@U_EntryDataItem@@@std@@@std@@QBEIXZ 0045f6d0 f i MyListCtrl.obj
 0001:0005e740       ?size@?$vector@U_ThunkItem@@V?$allocator@U_ThunkItem@@@std@@@std@@QBEIXZ 0045f740 f i MyListCtrl.obj
 0001:0005e7b0       ??0CPETOOLSApp@@QAE@XZ     0045f7b0 f   PETOOLS.obj
 0001:0005e820       ??1CPETOOLSApp@@UAE@XZ     0045f820 f i PETOOLS.obj
 0001:0005e870       ??_GCPETOOLSApp@@UAEPAXI@Z 0045f870 f i PETOOLS.obj
 0001:0005e870       ??_ECPETOOLSApp@@UAEPAXI@Z 0045f870 f i PETOOLS.obj
 0001:0005e900       ?GetApplicationRecoveryParameter@CWinApp@@UAEPAXXZ 0045f900 f i PETOOLS.obj
 0001:0005e940       ?GetApplicationRecoveryPingInterval@CWinApp@@UAEKXZ 0045f940 f i PETOOLS.obj
 0001:0005e980       ?GetApplicationRestartFlags@CWinApp@@UAEKXZ 0045f980 f i PETOOLS.obj
 0001:0005e9c0       ?GetMessageMap@CPETOOLSApp@@MBEPBUAFX_MSGMAP@@XZ 0045f9c0 f   PETOOLS.obj
 0001:0005ea10       ?GetThisMessageMap@CPETOOLSApp@@KGPBUAFX_MSGMAP@@XZ 0045fa10 f   PETOOLS.obj
 0001:0005ea50       ?InitInstance@CPETOOLSApp@@UAEHXZ 0045fa50 f   PETOOLS.obj
 0001:0005ecf0       ?ReopenPreviousFilesAtRestart@CWinApp@@UBEHXZ 0045fcf0 f i PETOOLS.obj
 0001:0005ed40       ?RestoreAutosavedFilesAtRestart@CWinApp@@UBEHXZ 0045fd40 f i PETOOLS.obj
 0001:0005ed90       ?SupportsApplicationRecovery@CWinApp@@UBEHXZ 0045fd90 f i PETOOLS.obj
 0001:0005ede0       ?SupportsAutosaveAtInterval@CWinApp@@UBEHXZ 0045fde0 f i PETOOLS.obj
 0001:0005ee30       ?SupportsAutosaveAtRestart@CWinApp@@UBEHXZ 0045fe30 f i PETOOLS.obj
 0001:0005ee80       ?SupportsRestartManager@CWinApp@@UBEHXZ 0045fe80 f i PETOOLS.obj
 0001:0005eed0       ?OnPaint@CPETOOLSDlg@@IAEXXZ 0045fed0 f   PETOOLSDlg.obj
 0001:0005f0d0       ?OnQueryDragIcon@CPETOOLSDlg@@IAEPAUHICON__@@XZ 004600d0 f   PETOOLSDlg.obj
 0001:0005f110       ?OnBnClickedMfcbutton1@CPETOOLSDlg@@QAEXXZ 00460110 f   PETOOLSDlg.obj
 0001:0005f640       ?OnBnClickedMfcbutton2@CPETOOLSDlg@@QAEXXZ 00460640 f   PETOOLSDlg.obj
 0001:0005fa40       ?OnBnClickedMfcbutton3@CPETOOLSDlg@@QAEXXZ 00460a40 f   PETOOLSDlg.obj
 0001:0005fb70       ?OnBnClickedMfcbutton4@CPETOOLSDlg@@QAEXXZ 00460b70 f   PETOOLSDlg.obj
 0001:0005fca0       ?OnBnClickedMfcbutton5@CPETOOLSDlg@@QAEXXZ 00460ca0 f   PETOOLSDlg.obj
 0001:0005fe40       ?OnBnClickedMfcbutton6@CPETOOLSDlg@@QAEXXZ 00460e40 f   PETOOLSDlg.obj
 0001:0005fef0       ?OnBnClickedMfcbutton7@CPETOOLSDlg@@QAEXXZ 00460ef0 f   PETOOLSDlg.obj
 0001:0005ff70       ?OnBnClickedMfcbutton8@CPETOOLSDlg@@QAEXXZ 00460f70 f   PETOOLSDlg.obj
 0001:00060110       ?OnOpen@CPETOOLSDlg@@QAEXXZ 00461110 f   PETOOLSDlg.obj
 0001:000602a0       ?OnDisa@CPETOOLSDlg@@QAEXXZ 004612a0 f   PETOOLSDlg.obj
 0001:000603e0       ?OnReset@CPETOOLSDlg@@QAEXXZ 004613e0 f   PETOOLSDlg.obj
 0001:00060470       ?OnClsRelocData@CPETOOLSDlg@@QAEXXZ 00461470 f   PETOOLSDlg.obj
 0001:00060610       ?OnEncryptImportTable@CPETOOLSDlg@@QAEXXZ 00461610 f   PETOOLSDlg.obj
 0001:000607a0       ?OnTest@CPETOOLSDlg@@QAEXXZ 004617a0 f   PETOOLSDlg.obj
 0001:00060840       ?OnUpdateUi@CPETOOLSDlg@@IAEJIJ@Z 00461840 f   PETOOLSDlg.obj
 0001:000609a0       ?OnSaveFile@CPETOOLSDlg@@QAEXXZ 004619a0 f   PETOOLSDlg.obj
 0001:00060b30       ?OnSaveAs@CPETOOLSDlg@@QAEXXZ 00461b30 f   PETOOLSDlg.obj
 0001:00060d90       ?OnAddPatch@CPETOOLSDlg@@QAEXXZ 00461d90 f   PETOOLSDlg.obj
 0001:00060ed0       ?OnAddSection@CPETOOLSDlg@@QAEXXZ 00461ed0 f   PETOOLSDlg.obj
 0001:00061020       ?OnEncrypt@CPETOOLSDlg@@QAEXXZ 00462020 f   PETOOLSDlg.obj
 0001:000610a0       ?OnPosCalc@CPETOOLSDlg@@QAEXXZ 004620a0 f   PETOOLSDlg.obj
 0001:00061240       ?OnHexEditView@CPETOOLSDlg@@QAEXXZ 00462240 f   PETOOLSDlg.obj
 0001:000612b0       ?OnBnClickedMfcbutton9@CPETOOLSDlg@@QAEXXZ 004622b0 f   PETOOLSDlg.obj
 0001:000613f0       ?OnBnClickedMfcbutton10@CPETOOLSDlg@@QAEXXZ 004623f0 f   PETOOLSDlg.obj
 0001:00061530       ?OnBnClickedMfcbutton11@CPETOOLSDlg@@QAEXXZ 00462530 f   PETOOLSDlg.obj
 0001:000615f0       ?DoDataExchange@CPETOOLSDlg@@MAEXPAVCDataExchange@@@Z 004625f0 f   PETOOLSDlg.obj
 0001:00061f20       ??0CRect@@QAE@HHHH@Z       00462f20 f i PETOOLSDlg.obj
 0001:00062740       ??_ECPETOOLSDlg@@UAEPAXI@Z 00463740 f i PETOOLSDlg.obj
 0001:00062740       ??_GCPETOOLSDlg@@UAEPAXI@Z 00463740 f i PETOOLSDlg.obj
 0001:000633b0       ?GetMessageMap@CPETOOLSDlg@@MBEPBUAFX_MSGMAP@@XZ 004643b0 f   PETOOLSDlg.obj
 0001:000633f0       ?GetThisMessageMap@CPETOOLSDlg@@KGPBUAFX_MSGMAP@@XZ 004643f0 f   PETOOLSDlg.obj
 0001:00063440       ?Height@CRect@@QBEHXZ      00464440 f i PETOOLSDlg.obj
 0001:00063710       ?Reset@CPETOOLSDlg@@QAEXXZ 00464710 f   PETOOLSDlg.obj
 0001:00063a70       ?SetControlUI@CPETOOLSDlg@@QAEXQADPAVCWnd@@PADH@Z 00464a70 f   PETOOLSDlg.obj
 0001:00063c00       ?SetControlUI@CPETOOLSDlg@@QAEXQADPAVMFCEdit@@PADHH@Z 00464c00 f   PETOOLSDlg.obj
 0001:00063ea0       ?SetControlUI@CPETOOLSDlg@@QAEXQADPAVMFCStatic@@PADH@Z 00464ea0 f   PETOOLSDlg.obj
 0001:00064cc0       ?SetCtrlContent@CPETOOLSDlg@@QAEHXZ 00465cc0 f   PETOOLSDlg.obj
 0001:00065cd0       ?SetDumpFunc@CPETOOLSDlg@@QAEHXZ 00466cd0 f   PETOOLSDlg.obj
 0001:00065d30       __tcscmp                   00466d30 f i PETOOLSDlg.obj
 0001:00065f20       ?OnBnClickedButton1@CPosCalcDlg@@QAEXXZ 00466f20 f   PosCalcDlg.obj
 0001:00065fd0       ?OnBnClickedButton2@CPosCalcDlg@@QAEXXZ 00466fd0 f   PosCalcDlg.obj
 0001:00066080       ?OnBnClickedButton3@CPosCalcDlg@@QAEXXZ 00467080 f   PosCalcDlg.obj
 0001:00066130       ?OnBnClickedButton4@CPosCalcDlg@@QAEXXZ 00467130 f   PosCalcDlg.obj
 0001:00066780       ?OnBnClickedButton5@CPosCalcDlg@@QAEXXZ 00467780 f   PosCalcDlg.obj
 0001:00066880       ??0CPosCalcDlg@@QAE@PAVCWnd@@@Z 00467880 f   PosCalcDlg.obj
 0001:000669b0       ??1CPosCalcDlg@@UAE@XZ     004679b0 f   PosCalcDlg.obj
 0001:00066a70       ??HATL@@YA?AV?$CStringT@DV?$StrTraitMFC_DLL@DV?$ChTraitsCRT@D@ATL@@@@@0@PBDABV10@@Z 00467a70 f i PosCalcDlg.obj
 0001:00066c20       ??_ECPosCalcDlg@@UAEPAXI@Z 00467c20 f i PosCalcDlg.obj
 0001:00066c20       ??_GCPosCalcDlg@@UAEPAXI@Z 00467c20 f i PosCalcDlg.obj
 0001:00066cb0       ?DoDataExchange@CPosCalcDlg@@MAEXPAVCDataExchange@@@Z 00467cb0 f   PosCalcDlg.obj
 0001:00066d60       ?GetMessageMap@CPosCalcDlg@@MBEPBUAFX_MSGMAP@@XZ 00467d60 f   PosCalcDlg.obj
 0001:00066db0       ?GetRuntimeClass@CPosCalcDlg@@UBEPAUCRuntimeClass@@XZ 00467db0 f   PosCalcDlg.obj
 0001:00066df0       ?GetThisClass@CPosCalcDlg@@SGPAUCRuntimeClass@@XZ 00467df0 f   PosCalcDlg.obj
 0001:00066e30       ?GetThisMessageMap@CPosCalcDlg@@KGPBUAFX_MSGMAP@@XZ 00467e30 f   PosCalcDlg.obj
 0001:00066e70       ?OnInitDialog@CPosCalcDlg@@UAEHXZ 00467e70 f   PosCalcDlg.obj
 0001:00066f20       ?_GetBaseClass@CPosCalcDlg@@KGPAUCRuntimeClass@@XZ 00467f20 f   PosCalcDlg.obj
 0001:00066f70       ?OnSetValue@CProBarThread@@QAEXIJ@Z 00467f70 f   ProBarThread.obj
 0001:00066fb0       ??0CProBarThread@@QAE@XZ   00467fb0 f   ProBarThread.obj
 0001:00067010       ??1CProBarThread@@UAE@XZ   00468010 f   ProBarThread.obj
 0001:00067070       ??_ECProBarThread@@UAEPAXI@Z 00468070 f i ProBarThread.obj
 0001:00067070       ??_GCProBarThread@@UAEPAXI@Z 00468070 f i ProBarThread.obj
 0001:00067100       ?Create@CProBarThread@@QAEXXZ 00468100 f   ProBarThread.obj
 0001:00067330       ?CreateObject@CProBarThread@@SGPAVCObject@@XZ 00468330 f   ProBarThread.obj
 0001:00067410       ?ExitInstance@CProBarThread@@UAEHXZ 00468410 f   ProBarThread.obj
 0001:00067480       ?GetMessageMap@CProBarThread@@MBEPBUAFX_MSGMAP@@XZ 00468480 f   ProBarThread.obj
 0001:000674d0       ?GetRuntimeClass@CProBarThread@@UBEPAUCRuntimeClass@@XZ 004684d0 f   ProBarThread.obj
 0001:00067510       ?GetThisClass@CProBarThread@@SGPAUCRuntimeClass@@XZ 00468510 f   ProBarThread.obj
 0001:00067550       ?GetThisMessageMap@CProBarThread@@KGPBUAFX_MSGMAP@@XZ 00468550 f   ProBarThread.obj
 0001:00067590       ?InitInstance@CProBarThread@@UAEHXZ 00468590 f   ProBarThread.obj
 0001:000675d0       ?SetProValue@CProBarThread@@QAEXH@Z 004685d0 f   ProBarThread.obj
 0001:00067680       ?ThreadProc1@@YAXPAX@Z     00468680 f   ProBarThread.obj
 0001:00067880       ?ThreadProc@@YAXPAX@Z      00468880 f   ProBarThread.obj
 0001:000678b0       ?_GetBaseClass@CProBarThread@@KGPAUCRuntimeClass@@XZ 004688b0 f   ProBarThread.obj
 0001:00067900       ??0CProgressDialog@@QAE@PAVCWnd@@@Z 00468900 f   ProgressDialog.obj
 0001:000679c0       ??1CProgressDialog@@UAE@XZ 004689c0 f   ProgressDialog.obj
 0001:00067a30       ??_GCProgressDialog@@UAEPAXI@Z 00468a30 f i ProgressDialog.obj
 0001:00067a30       ??_ECProgressDialog@@UAEPAXI@Z 00468a30 f i ProgressDialog.obj
 0001:00067ac0       ?DoDataExchange@CProgressDialog@@MAEXPAVCDataExchange@@@Z 00468ac0 f   ProgressDialog.obj
 0001:00067b40       ?GetMessageMap@CProgressDialog@@MBEPBUAFX_MSGMAP@@XZ 00468b40 f   ProgressDialog.obj
 0001:00067b90       ?GetRuntimeClass@CProgressDialog@@UBEPAUCRuntimeClass@@XZ 00468b90 f   ProgressDialog.obj
 0001:00067bd0       ?GetThisClass@CProgressDialog@@SGPAUCRuntimeClass@@XZ 00468bd0 f   ProgressDialog.obj
 0001:00067c10       ?GetThisMessageMap@CProgressDialog@@KGPBUAFX_MSGMAP@@XZ 00468c10 f   ProgressDialog.obj
 0001:00067c50       ?_GetBaseClass@CProgressDialog@@KGPAUCRuntimeClass@@XZ 00468c50 f   ProgressDialog.obj
 0001:00067ca0       ??0SectionsDlg@@QAE@PAVCWnd@@@Z 00468ca0 f   SectionsDlg.obj
 0001:00067d70       ??1SectionsDlg@@UAE@XZ     00468d70 f   SectionsDlg.obj
 0001:00067de0       ??A?$vector@U_IMAGE_SECTION_HEADER@@V?$allocator@U_IMAGE_SECTION_HEADER@@@std@@@std@@QAEAAU_IMAGE_SECTION_HEADER@@I@Z 00468de0 f i SectionsDlg.obj
 0001:00067f00       ??_ESectionsDlg@@UAEPAXI@Z 00468f00 f i SectionsDlg.obj
 0001:00067f00       ??_GSectionsDlg@@UAEPAXI@Z 00468f00 f i SectionsDlg.obj
 0001:00067f90       ?DoDataExchange@SectionsDlg@@MAEXPAVCDataExchange@@@Z 00468f90 f   SectionsDlg.obj
 0001:00068010       ?GetMessageMap@SectionsDlg@@MBEPBUAFX_MSGMAP@@XZ 00469010 f   SectionsDlg.obj
 0001:00068060       ?GetRuntimeClass@SectionsDlg@@UBEPAUCRuntimeClass@@XZ 00469060 f   SectionsDlg.obj
 0001:000680a0       ?GetThisClass@SectionsDlg@@SGPAUCRuntimeClass@@XZ 004690a0 f   SectionsDlg.obj
 0001:000680e0       ?GetThisMessageMap@SectionsDlg@@KGPBUAFX_MSGMAP@@XZ 004690e0 f   SectionsDlg.obj
 0001:00068120       ?OnInitDialog@SectionsDlg@@UAEHXZ 00469120 f   SectionsDlg.obj
 0001:00068710       ?_GetBaseClass@SectionsDlg@@KGPAUCRuntimeClass@@XZ 00469710 f   SectionsDlg.obj
 0001:00068760       ?_Get_data@?$_Vector_alloc@U?$_Vec_base_types@U_IMAGE_SECTION_HEADER@@V?$allocator@U_IMAGE_SECTION_HEADER@@@std@@@std@@@std@@QBEABV?$_Vector_val@U?$_Simple_types@U_IMAGE_SECTION_HEADER@@@std@@@2@XZ 00469760 f i SectionsDlg.obj
 0001:000687b0       ?_Get_second@?$_Compressed_pair@U?$_Wrap_alloc@V?$allocator@U_IMAGE_SECTION_HEADER@@@std@@@std@@V?$_Vector_val@U?$_Simple_types@U_IMAGE_SECTION_HEADER@@@std@@@2@$00@std@@QBEABV?$_Vector_val@U?$_Simple_types@U_IMAGE_SECTION_HEADER@@@std@@@2@XZ 004697b0 f i SectionsDlg.obj
 0001:000687f0       ?_Myfirst@?$_Vector_alloc@U?$_Vec_base_types@U_IMAGE_SECTION_HEADER@@V?$allocator@U_IMAGE_SECTION_HEADER@@@std@@@std@@@std@@QAEAAPAU_IMAGE_SECTION_HEADER@@XZ 004697f0 f i SectionsDlg.obj
 0001:00068850       ?_Myfirst@?$_Vector_alloc@U?$_Vec_base_types@U_IMAGE_SECTION_HEADER@@V?$allocator@U_IMAGE_SECTION_HEADER@@@std@@@std@@@std@@QBEABQAU_IMAGE_SECTION_HEADER@@XZ 00469850 f i SectionsDlg.obj
 0001:000688b0       ?_Mylast@?$_Vector_alloc@U?$_Vec_base_types@U_IMAGE_SECTION_HEADER@@V?$allocator@U_IMAGE_SECTION_HEADER@@@std@@@std@@@std@@QBEABQAU_IMAGE_SECTION_HEADER@@XZ 004698b0 f i SectionsDlg.obj
 0001:00068910       ?size@?$vector@U_IMAGE_SECTION_HEADER@@V?$allocator@U_IMAGE_SECTION_HEADER@@@std@@@std@@QBEIXZ 00469910 f i SectionsDlg.obj
 0001:00068980       @_RTC_AllocaHelper@12      00469980 f   MSVCRTD:_stack_.obj
 0001:000689c0       @_RTC_CheckStackVars2@12   004699c0 f   MSVCRTD:_stack_.obj
 0001:00068ad0       @_RTC_CheckStackVars@8     00469ad0 f   MSVCRTD:_stack_.obj
 0001:00068b40       __RTC_CheckEsp             00469b40 f   MSVCRTD:_stack_.obj
 0001:00068b80       @__security_check_cookie@4 00469b80 f   MSVCRTD:_secchk_.obj
 0001:00068ba0       __CRT_RTC_INIT             00469ba0 f   MSVCRTD:_init_.obj
 0001:00068bb0       __CRT_RTC_INITW            00469bb0 f   MSVCRTD:_init_.obj
 0001:00068bc0       __RTC_InitBase             00469bc0 f   MSVCRTD:_init_.obj
 0001:00068c00       __RTC_Shutdown             00469c00 f   MSVCRTD:_init_.obj
 0001:00068c20       ___raise_securityfailure   00469c20 f   MSVCRTD:gs_report.obj
 0001:00068c60       ___report_gsfailure        00469c60 f   MSVCRTD:gs_report.obj
 0001:00068db0       ___report_rangecheckfailure 00469db0 f   MSVCRTD:gs_report.obj
 0001:00068dc0       ___report_securityfailure  00469dc0 f   MSVCRTD:gs_report.obj
 0001:00068ed0       ___report_securityfailureEx 00469ed0 f   MSVCRTD:gs_report.obj
 0001:00069040       ??3@YAXPAX@Z               0046a040 f   MSVCRTD:delete_scalar.obj
 0001:00069060       ??_L@YGXPAXIHP6EX0@Z1@Z    0046a060 f   MSVCRTD:ehvecctr.obj
 0001:00069090       ??_L@YGXPAXIIP6EX0@Z1@Z    0046a090 f   MSVCRTD:ehvecctr.obj
 0001:00069180       ??_M@YGXPAXIHP6EX0@Z@Z     0046a180 f   MSVCRTD:ehvecdtr.obj
 0001:000691b0       ??_M@YGXPAXIIP6EX0@Z@Z     0046a1b0 f   MSVCRTD:ehvecdtr.obj
 0001:000692e0       ?__ArrayUnwind@@YGXPAXIIP6EX0@Z@Z 0046a2e0 f   MSVCRTD:ehvecdtr.obj
 0001:000693b0       ??2@YAPAXI@Z               0046a3b0 f   MSVCRTD:new_scalar.obj
 0001:00069410       ??3@YAXPAXI@Z              0046a410 f   MSVCRTD:delete_scalar_size.obj
 0001:00069430       ??$__crt_fast_decode_pointer@PAP6AXXZ@@YAPAP6AXXZQAP6AXXZ@Z 0046a430 f i MSVCRTD:utility.obj
 0001:00069460       ??$__crt_fast_encode_pointer@PAP6AXXZ@@YAPAP6AXXZQAP6AXXZ@Z 0046a460 f i MSVCRTD:utility.obj
 0001:000694a0       ?__crt_rotate_pointer_value@@YAIIH@Z 0046a4a0 f i MSVCRTD:utility.obj
 0001:000694b0       ?configure_argv@__scrt_narrow_argv_policy@@SAHXZ 0046a4b0 f i MSVCRTD:utility.obj
 0001:00069610       _NtCurrentTeb              0046a610 f i MSVCRTD:utility.obj
 0001:00069620       ___scrt_acquire_startup_lock 0046a620 f   MSVCRTD:utility.obj
 0001:00069680       ___scrt_dllmain_after_initialize_c 0046a680 f   MSVCRTD:utility.obj
 0001:000696c0       ___scrt_dllmain_before_initialize_c 0046a6c0 f   MSVCRTD:utility.obj
 0001:000696f0       ___scrt_dllmain_crt_thread_attach 0046a6f0 f   MSVCRTD:utility.obj
 0001:00069730       ___scrt_dllmain_crt_thread_detach 0046a730 f   MSVCRTD:utility.obj
 0001:00069750       ___scrt_dllmain_exception_filter 0046a750 f   MSVCRTD:utility.obj
 0001:000697b0       ___scrt_dllmain_uninitialize_c 0046a7b0 f   MSVCRTD:utility.obj
 0001:000697f0       ___scrt_dllmain_uninitialize_critical 0046a7f0 f   MSVCRTD:utility.obj
 0001:00069810       ___scrt_initialize_crt     0046a810 f   MSVCRTD:utility.obj
 0001:00069870       ___scrt_initialize_onexit_tables 0046a870 f   MSVCRTD:utility.obj
 0001:00069970       ___scrt_is_nonwritable_in_current_image 0046a970 f   MSVCRTD:utility.obj
 0001:00069af0       ___scrt_release_startup_lock 0046aaf0 f   MSVCRTD:utility.obj
 0001:00069b20       ___scrt_uninitialize_crt   0046ab20 f   MSVCRTD:utility.obj
 0001:00069b70       __onexit                   0046ab70 f   MSVCRTD:utility.obj
 0001:00069c00       _at_quick_exit             0046ac00 f   MSVCRTD:utility.obj
 0001:00069c60       _atexit                    0046ac60 f   MSVCRTD:utility.obj
 0001:00069de0       ??$__crt_fast_decode_pointer@P6GHPAU_RTL_CONDITION_VARIABLE@@PAU_RTL_CRITICAL_SECTION@@K@Z@@YAP6GHPAU_RTL_CONDITION_VARIABLE@@PAU_RTL_CRITICAL_SECTION@@K@ZQ6GH01K@Z@Z 0046ade0 f i MSVCRTD:thread_safe_statics.obj
 0001:00069e10       ??$__crt_fast_decode_pointer@P6GXPAU_RTL_CONDITION_VARIABLE@@@Z@@YAP6GXPAU_RTL_CONDITION_VARIABLE@@@ZQ6GX0@Z@Z 0046ae10 f i MSVCRTD:thread_safe_statics.obj
 0001:00069e40       ??$__crt_fast_encode_pointer@P6GHPAU_RTL_CONDITION_VARIABLE@@PAU_RTL_CRITICAL_SECTION@@K@Z@@YAP6GHPAU_RTL_CONDITION_VARIABLE@@PAU_RTL_CRITICAL_SECTION@@K@ZQ6GH01K@Z@Z 0046ae40 f i MSVCRTD:thread_safe_statics.obj
 0001:00069e80       ??$__crt_fast_encode_pointer@P6GXPAU_RTL_CONDITION_VARIABLE@@@Z@@YAP6GXPAU_RTL_CONDITION_VARIABLE@@@ZQ6GX0@Z@Z 0046ae80 f i MSVCRTD:thread_safe_statics.obj
 0001:00069ef0       __Init_thread_abort        0046aef0 f   MSVCRTD:thread_safe_statics.obj
 0001:00069f20       __Init_thread_footer       0046af20 f   MSVCRTD:thread_safe_statics.obj
 0001:00069f80       __Init_thread_header       0046af80 f   MSVCRTD:thread_safe_statics.obj
 0001:0006a010       __Init_thread_lock         0046b010 f   MSVCRTD:thread_safe_statics.obj
 0001:0006a030       __Init_thread_notify       0046b030 f   MSVCRTD:thread_safe_statics.obj
 0001:0006a0a0       __Init_thread_unlock       0046b0a0 f   MSVCRTD:thread_safe_statics.obj
 0001:0006a0c0       __Init_thread_wait         0046b0c0 f   MSVCRTD:thread_safe_statics.obj
 0001:0006a1b0       __alldiv                   0046b1b0 f   MSVCRTD:lldiv.obj
 0001:0006a290       __allmul                   0046b290 f   MSVCRTD:llmul.obj
 0001:0006a2e0       __allrem                   0046b2e0 f   MSVCRTD:llrem.obj
 0001:0006a3c0       __allshl                   0046b3c0 f   MSVCRTD:llshl.obj
 0001:0006a3f0       __aulldiv                  0046b3f0 f   MSVCRTD:ulldiv.obj
 0001:0006a480       __aullrem                  0046b480 f   MSVCRTD:ullrem.obj
 0001:0006a520       ??1type_info@@UAE@XZ       0046b520 f   MSVCRTD:std_type_info_static.obj
 0001:0006a540       ??_Gtype_info@@UAEPAXI@Z   0046b540 f i MSVCRTD:std_type_info_static.obj
 0001:0006a540       ??_Etype_info@@UAEPAXI@Z   0046b540 f i MSVCRTD:std_type_info_static.obj
 0001:0006a580       ??_U@YAPAXI@Z              0046b580 f   MSVCRTD:new_array.obj
 0001:0006a5a0       ??_V@YAXPAX@Z              0046b5a0 f   MSVCRTD:delete_array.obj
 0001:0006a5c0       __chkstk                   0046b5c0 f   MSVCRTD:chkstk.obj
 0001:0006a5c0       __alloca_probe             0046b5c0 f   MSVCRTD:chkstk.obj
 0001:0006a9d0       ?get_app_type@__scrt_winmain_policy@@SA?AW4_crt_app_type@@XZ 0046b9d0 f i MSVCRTD:exe_winmain.obj
 0001:0006aa20       _WinMainCRTStartup         0046ba20 f   MSVCRTD:exe_winmain.obj
 0001:0006abd0       ?_RTC_AllocaFailure@@YAXPAXPAU_RTC_ALLOCA_NODE@@H@Z 0046bbd0 f   MSVCRTD:_error_.obj
 0001:0006ad40       ?_RTC_Failure@@YAXPAXH@Z   0046bd40 f   MSVCRTD:_error_.obj
 0001:0006adb0       ?_RTC_StackFailure@@YAXPAXPBD@Z 0046bdb0 f   MSVCRTD:_error_.obj
 0001:0006b230       __RTC_UninitUse            0046c230 f   MSVCRTD:_error_.obj
 0001:0006b360       _sprintf_s                 0046c360 f i MSVCRTD:_error_.obj
 0001:0006b390       ?_RTC_GetErrorFunc@@YAP6AHHPBDH00ZZPBX@Z 0046c390 f   MSVCRTD:_userapi_.obj
 0001:0006b3a0       ?_RTC_GetErrorFuncW@@YAP6AHHPB_WH00ZZPBX@Z 0046c3a0 f   MSVCRTD:_userapi_.obj
 0001:0006b3b0       __RTC_GetErrDesc           0046c3b0 f   MSVCRTD:_userapi_.obj
 0001:0006b3d0       __RTC_NumErrors            0046c3d0 f   MSVCRTD:_userapi_.obj
 0001:0006b3e0       __RTC_SetErrorFunc         0046c3e0 f   MSVCRTD:_userapi_.obj
 0001:0006b410       __RTC_SetErrorFuncW        0046c410 f   MSVCRTD:_userapi_.obj
 0001:0006b440       __RTC_SetErrorType         0046c440 f   MSVCRTD:_userapi_.obj
 0001:0006b470       @_guard_check_icall@4      0046c470 f i MSVCRTD:checkcfg.obj
 0001:0006b490       __except_handler4          0046c490 f   MSVCRTD:_chandler4gs_.obj
 0001:0006b4c0       ??0bad_alloc@std@@AAE@QBD@Z 0046c4c0 f i MSVCRTD:throw_bad_alloc.obj
 0001:0006b4f0       ??0bad_alloc@std@@QAE@ABV01@@Z 0046c4f0 f i MSVCRTD:throw_bad_alloc.obj
 0001:0006b520       ??0bad_alloc@std@@QAE@XZ   0046c520 f i MSVCRTD:throw_bad_alloc.obj
 0001:0006b550       ??0bad_array_new_length@std@@QAE@ABV01@@Z 0046c550 f i MSVCRTD:throw_bad_alloc.obj
 0001:0006b580       ??0bad_array_new_length@std@@QAE@XZ 0046c580 f i MSVCRTD:throw_bad_alloc.obj
 0001:0006b5b0       ??0exception@std@@QAE@ABV01@@Z 0046c5b0 f i MSVCRTD:throw_bad_alloc.obj
 0001:0006b600       ??0exception@std@@QAE@QBDH@Z 0046c600 f i MSVCRTD:throw_bad_alloc.obj
 0001:0006b640       ??1bad_alloc@std@@UAE@XZ   0046c640 f i MSVCRTD:throw_bad_alloc.obj
 0001:0006b660       ??1bad_array_new_length@std@@UAE@XZ 0046c660 f i MSVCRTD:throw_bad_alloc.obj
 0001:0006b680       ??1exception@std@@UAE@XZ   0046c680 f i MSVCRTD:throw_bad_alloc.obj
 0001:0006b6b0       ??_Ebad_alloc@std@@UAEPAXI@Z 0046c6b0 f i MSVCRTD:throw_bad_alloc.obj
 0001:0006b6b0       ??_Gbad_alloc@std@@UAEPAXI@Z 0046c6b0 f i MSVCRTD:throw_bad_alloc.obj
 0001:0006b6f0       ??_Ebad_array_new_length@std@@UAEPAXI@Z 0046c6f0 f i MSVCRTD:throw_bad_alloc.obj
 0001:0006b6f0       ??_Gbad_array_new_length@std@@UAEPAXI@Z 0046c6f0 f i MSVCRTD:throw_bad_alloc.obj
 0001:0006b730       ??_Gexception@std@@UAEPAXI@Z 0046c730 f i MSVCRTD:throw_bad_alloc.obj
 0001:0006b730       ??_Eexception@std@@UAEPAXI@Z 0046c730 f i MSVCRTD:throw_bad_alloc.obj
 0001:0006b770       ?__scrt_throw_std_bad_alloc@@YAXXZ 0046c770 f   MSVCRTD:throw_bad_alloc.obj
 0001:0006b7a0       ?__scrt_throw_std_bad_array_new_length@@YAXXZ 0046c7a0 f   MSVCRTD:throw_bad_alloc.obj
 0001:0006b7d0       ?what@exception@std@@UBEPBDXZ 0046c7d0 f i MSVCRTD:throw_bad_alloc.obj
 0001:0006b810       ___isa_available_init      0046c810 f   MSVCRTD:_cpu_disp_.obj
 0001:0006bba0       __get_startup_argv_mode    0046cba0 f   MSVCRTD:argv_mode.obj
 0001:0006bbb0       ___scrt_is_ucrt_dll_in_use 0046cbb0 f   MSVCRTD:ucrt_detection.obj
 0001:0006bbe0       ___scrt_fastfail           0046cbe0 f   MSVCRTD:utility_desktop.obj
 0001:0006bd70       ___scrt_get_show_window_mode 0046cd70 f   MSVCRTD:utility_desktop.obj
 0001:0006bdc0       ___scrt_initialize_winrt   0046cdc0 f   MSVCRTD:utility_desktop.obj
 0001:0006bdd0       ___scrt_is_managed_app     0046cdd0 f   MSVCRTD:utility_desktop.obj
 0001:0006be80       ___scrt_set_unhandled_exception_filter 0046ce80 f   MSVCRTD:utility_desktop.obj
 0001:0006bea0       ___scrt_unhandled_exception_filter@4 0046cea0 f   MSVCRTD:utility_desktop.obj
 0001:0006bf20       __crt_debugger_hook        0046cf20 f   MSVCRTD:utility_desktop.obj
 0001:0006bf40       ___security_init_cookie    0046cf40 f   MSVCRTD:gs_support.obj
 0001:0006c060       __matherr                  0046d060 f   MSVCRTD:matherr.obj
 0001:0006c070       __get_startup_commit_mode  0046d070 f   MSVCRTD:commit_mode.obj
 0001:0006c080       __get_startup_file_mode    0046d080 f   MSVCRTD:file_mode.obj
 0001:0006c090       __get_startup_new_mode     0046d090 f   MSVCRTD:new_mode.obj
 0001:0006c0a0       __get_startup_thread_locale_mode 0046d0a0 f   MSVCRTD:thread_locale.obj
 0001:0006c0b0       ?__scrt_initialize_type_info@@YAXXZ 0046d0b0 f   MSVCRTD:tncleanup.obj
 0001:0006c0d0       ?__scrt_uninitialize_type_info@@YAXXZ 0046d0d0 f   MSVCRTD:tncleanup.obj
 0001:0006c0f0       __should_initialize_environment 0046d0f0 f   MSVCRTD:env_mode.obj
 0001:0006c100       __initialize_default_precision 0046d100 f   MSVCRTD:default_precision.obj
 0001:0006c130       __initialize_invalid_parameter_handler 0046d130 f   MSVCRTD:invalid_parameter_handler.obj
 0001:0006c140       __initialize_denormal_control 0046d140 f   MSVCRTD:denormal_control.obj
 0001:0006c150       ___local_stdio_scanf_options 0046d150 f i MSVCRTD:default_local_stdio_options.obj
 0001:0006c160       ___scrt_initialize_default_local_stdio_options 0046d160 f   MSVCRTD:default_local_stdio_options.obj
 0001:0006c1b0       ___scrt_is_user_matherr_present 0046d1b0 f   MSVCRTD:matherr_detection.obj
 0001:0006c1e0       ___scrt_get_dyn_tls_init_callback 0046d1e0 f   MSVCRTD:dyn_tls_init.obj
 0001:0006c1f0       ___scrt_get_dyn_tls_dtor_callback 0046d1f0 f   MSVCRTD:dyn_tls_dtor.obj
 0001:0006c200       __RTC_Initialize           0046d200 f   MSVCRTD:_initsect_.obj
 0001:0006c240       __RTC_Terminate            0046d240 f   MSVCRTD:_initsect_.obj
 0001:0006c840       ?_RTC_GetSrcLine@@YAHPAEPA_WKPAH1K@Z 0046d840 f   MSVCRTD:_pdblkup_.obj
 0001:0006cc70       @_guard_check_icall_nop@4  0046dc70 f i MSVCRTD:guard_support.obj
 0001:0006cc80       __guard_icall_checks_enforced 0046dc80 f i MSVCRTD:guard_support.obj
 0001:0006ccb0       ??0_Lockit@std@@QAE@H@Z    0046dcb0 f   msvcprtd:MSVCP140D.dll
 0001:0006ccb6       ??1_Lockit@std@@QAE@XZ     0046dcb6 f   msvcprtd:MSVCP140D.dll
 0001:0006ccbc       ?_Debug_message@std@@YAXPB_W0I@Z 0046dcbc f   msvcprtd:MSVCP140D.dll
 0001:0006ccc2       ?_Xbad_alloc@std@@YAXXZ    0046dcc2 f   msvcprtd:MSVCP140D.dll
 0001:0006ccc8       ?_Xlength_error@std@@YAXPBD@Z 0046dcc8 f   msvcprtd:MSVCP140D.dll
 0001:0006ccce       ?_Xout_of_range@std@@YAXPBD@Z 0046dcce f   msvcprtd:MSVCP140D.dll
 0001:0006ccd4       _PathIsDirectoryA@4        0046dcd4 f   shlwapi:SHLWAPI.dll
 0001:0006ccda       _StrToIntA@4               0046dcda f   shlwapi:SHLWAPI.dll
 0001:0006cce0       _StrToInt64ExA@12          0046dce0 f   shlwapi:SHLWAPI.dll
 0001:0006cce6       _GetDlgCtrlID@4            0046dce6 f   User32:USER32.dll
 0001:0006ccec       _GetSystemMetrics@4        0046dcec f   User32:USER32.dll
 0001:0006ccf2       _EnumChildWindows@12       0046dcf2 f   User32:USER32.dll
 0001:0006ccf8       _UnregisterClassA@8        0046dcf8 f   User32:USER32.dll
 0001:0006ccfe       _MessageBoxA@16            0046dcfe f   User32:USER32.dll
 0001:0006cd04       _GetWindowLongA@8          0046dd04 f   User32:USER32.dll
 0001:0006cd0a       _SetWindowLongA@12         0046dd0a f   User32:USER32.dll
 0001:0006cd10       _MiniDumpWriteDump@28      0046dd10 f   dbghelp:dbghelp.dll
 0001:0006cd16       ?GetThisMessageMap@CDialogEx@@KGPBUAFX_MSGMAP@@XZ 0046dd16 f   mfc140d:mfc140d.dll
 0001:0006cd1c       ??3CObject@@SGXPAX@Z       0046dd1c f   mfc140d:mfc140d.dll
 0001:0006cd22       ?Serialize@CObject@@UAEXAAVCArchive@@@Z 0046dd22 f   mfc140d:mfc140d.dll
 0001:0006cd28       ??B?$CSimpleStringT@D$00@ATL@@QBEPBDXZ 0046dd28 f   mfc140d:mfc140d.dll
 0001:0006cd2e       ?Append@?$CSimpleStringT@D$00@ATL@@QAEXPBD@Z 0046dd2e f   mfc140d:mfc140d.dll
 0001:0006cd34       ?Empty@?$CSimpleStringT@D$00@ATL@@QAEXXZ 0046dd34 f   mfc140d:mfc140d.dll
 0001:0006cd3a       ?GetBuffer@?$CSimpleStringT@D$00@ATL@@QAEPADH@Z 0046dd3a f   mfc140d:mfc140d.dll
 0001:0006cd40       ?GetLength@?$CSimpleStringT@D$00@ATL@@QBEHXZ 0046dd40 f   mfc140d:mfc140d.dll
 0001:0006cd46       ??0?$CStringT@DV?$StrTraitMFC_DLL@DV?$ChTraitsCRT@D@ATL@@@@@ATL@@QAE@XZ 0046dd46 f   mfc140d:mfc140d.dll
 0001:0006cd4c       ??0?$CStringT@DV?$StrTraitMFC_DLL@DV?$ChTraitsCRT@D@ATL@@@@@ATL@@QAE@ABV01@@Z 0046dd4c f   mfc140d:mfc140d.dll
 0001:0006cd52       ??0?$CStringT@DV?$StrTraitMFC_DLL@DV?$ChTraitsCRT@D@ATL@@@@@ATL@@QAE@PBD@Z 0046dd52 f   mfc140d:mfc140d.dll
 0001:0006cd58       ??1?$CStringT@DV?$StrTraitMFC_DLL@DV?$ChTraitsCRT@D@ATL@@@@@ATL@@QAE@XZ 0046dd58 f   mfc140d:mfc140d.dll
 0001:0006cd5e       ??4?$CStringT@DV?$StrTraitMFC_DLL@DV?$ChTraitsCRT@D@ATL@@@@@ATL@@QAEAAV01@ABV01@@Z 0046dd5e f   mfc140d:mfc140d.dll
 0001:0006cd64       ??Y?$CStringT@DV?$StrTraitMFC_DLL@DV?$ChTraitsCRT@D@ATL@@@@@ATL@@QAEAAV01@PBD@Z 0046dd64 f   mfc140d:mfc140d.dll
 0001:0006cd6a       ?Replace@?$CStringT@DV?$StrTraitMFC_DLL@DV?$ChTraitsCRT@D@ATL@@@@@ATL@@QAEHPBD0@Z 0046dd6a f   mfc140d:mfc140d.dll
 0001:0006cd70       ?Format@?$CStringT@DV?$StrTraitMFC_DLL@DV?$ChTraitsCRT@D@ATL@@@@@ATL@@QAAXPBDZZ 0046dd70 f   mfc140d:mfc140d.dll
 0001:0006cd76       ??0CFile@@QAE@XZ           0046dd76 f   mfc140d:mfc140d.dll
 0001:0006cd7c       ?Open@CFile@@UAEHPBDIPAVCFileException@@@Z 0046dd7c f   mfc140d:mfc140d.dll
 0001:0006cd82       ?GetLength@CFile@@UBE_KXZ  0046dd82 f   mfc140d:mfc140d.dll
 0001:0006cd88       ?Read@CFile@@UAEIPAXI@Z    0046dd88 f   mfc140d:mfc140d.dll
 0001:0006cd8e       ?Close@CFile@@UAEXXZ       0046dd8e f   mfc140d:mfc140d.dll
 0001:0006cd94       ??1CFile@@UAE@XZ           0046dd94 f   mfc140d:mfc140d.dll
 0001:0006cd9a       ??0CFileFind@@QAE@XZ       0046dd9a f   mfc140d:mfc140d.dll
 0001:0006cda0       ??1CFileFind@@UAE@XZ       0046dda0 f   mfc140d:mfc140d.dll
 0001:0006cda6       ?GetFileName@CFileFind@@UBE?AV?$CStringT@DV?$StrTraitMFC_DLL@DV?$ChTraitsCRT@D@ATL@@@@@ATL@@XZ 0046dda6 f   mfc140d:mfc140d.dll
 0001:0006cdac       ?IsDots@CFileFind@@UBEHXZ  0046ddac f   mfc140d:mfc140d.dll
 0001:0006cdb2       ?IsDirectory@CFileFind@@QBEHXZ 0046ddb2 f   mfc140d:mfc140d.dll
 0001:0006cdb8       ?FindFile@CFileFind@@UAEHPBDK@Z 0046ddb8 f   mfc140d:mfc140d.dll
 0001:0006cdbe       ?FindNextFileA@CFileFind@@UAEHXZ 0046ddbe f   mfc140d:mfc140d.dll
 0001:0006cdc4       ??1CBrush@@UAE@XZ          0046ddc4 f   mfc140d:mfc140d.dll
 0001:0006cdca       ?DDX_Control@@YGXPAVCDataExchange@@HAAVCWnd@@@Z 0046ddca f   mfc140d:mfc140d.dll
 0001:0006cdd0       ?IsInvokeAllowed@CCmdTarget@@UAEHJ@Z 0046ddd0 f   mfc140d:mfc140d.dll
 0001:0006cdd6       ?GetDispatchIID@CCmdTarget@@UAEHPAU_GUID@@@Z 0046ddd6 f   mfc140d:mfc140d.dll
 0001:0006cddc       ?GetTypeInfoCount@CCmdTarget@@UAEIXZ 0046dddc f   mfc140d:mfc140d.dll
 0001:0006cde2       ?GetTypeLibCache@CCmdTarget@@UAEPAVCTypeLibCache@@XZ 0046dde2 f   mfc140d:mfc140d.dll
 0001:0006cde8       ?GetTypeLib@CCmdTarget@@UAEJKPAPAUITypeLib@@@Z 0046dde8 f   mfc140d:mfc140d.dll
 0001:0006cdee       ?GetCommandMap@CCmdTarget@@MBEPBUAFX_OLECMDMAP@@XZ 0046ddee f   mfc140d:mfc140d.dll
 0001:0006cdf4       ?GetDispatchMap@CCmdTarget@@MBEPBUAFX_DISPMAP@@XZ 0046ddf4 f   mfc140d:mfc140d.dll
 0001:0006cdfa       ?GetConnectionMap@CCmdTarget@@MBEPBUAFX_CONNECTIONMAP@@XZ 0046ddfa f   mfc140d:mfc140d.dll
 0001:0006ce00       ?GetEventSinkMap@CCmdTarget@@MBEPBUAFX_EVENTSINKMAP@@XZ 0046de00 f   mfc140d:mfc140d.dll
 0001:0006ce06       ?OnCreateAggregates@CCmdTarget@@UAEHXZ 0046de06 f   mfc140d:mfc140d.dll
 0001:0006ce0c       ?GetInterfaceHook@CCmdTarget@@UAEPAUIUnknown@@PBX@Z 0046de0c f   mfc140d:mfc140d.dll
 0001:0006ce12       ?GetExtraConnectionPoints@CCmdTarget@@MAEHPAVCPtrArray@@@Z 0046de12 f   mfc140d:mfc140d.dll
 0001:0006ce18       ?GetConnectionHook@CCmdTarget@@MAEPAUIConnectionPoint@@ABU_GUID@@@Z 0046de18 f   mfc140d:mfc140d.dll
 0001:0006ce1e       ?PreSubclassWindow@CWnd@@UAEXXZ 0046de1e f   mfc140d:mfc140d.dll
 0001:0006ce24       ?Create@CWnd@@UAEHPBD0KABUtagRECT@@PAV1@IPAUCCreateContext@@@Z 0046de24 f   mfc140d:mfc140d.dll
 0001:0006ce2a       ?CreateEx@CWnd@@UAEHKPBD0KHHHHPAUHWND__@@PAUHMENU__@@PAX@Z 0046de2a f   mfc140d:mfc140d.dll
 0001:0006ce30       ?CreateEx@CWnd@@UAEHKPBD0KABUtagRECT@@PAV1@IPAX@Z 0046de30 f   mfc140d:mfc140d.dll
 0001:0006ce36       ?DestroyWindow@CWnd@@UAEHXZ 0046de36 f   mfc140d:mfc140d.dll
 0001:0006ce3c       ?PreCreateWindow@CWnd@@UAEHAAUtagCREATESTRUCTA@@@Z 0046de3c f   mfc140d:mfc140d.dll
 0001:0006ce42       ?CalcWindowRect@CWnd@@UAEXPAUtagRECT@@I@Z 0046de42 f   mfc140d:mfc140d.dll
 0001:0006ce48       ?SetWindowTextA@CWnd@@QAEXPBD@Z 0046de48 f   mfc140d:mfc140d.dll
 0001:0006ce4e       ?GetWindowTextA@CWnd@@QBEXAAV?$CStringT@DV?$StrTraitMFC_DLL@DV?$ChTraitsCRT@D@ATL@@@@@ATL@@@Z 0046de4e f   mfc140d:mfc140d.dll
 0001:0006ce54       ?GetMenu@CWnd@@UBEPAVCMenu@@XZ 0046de54 f   mfc140d:mfc140d.dll
 0001:0006ce5a       ?SetMenu@CWnd@@UAEHPAVCMenu@@@Z 0046de5a f   mfc140d:mfc140d.dll
 0001:0006ce60       ?OnToolHitTest@CWnd@@UBEHVCPoint@@PAUtagTOOLINFOA@@@Z 0046de60 f   mfc140d:mfc140d.dll
 0001:0006ce66       ?GetScrollBarCtrl@CWnd@@UBEPAVCScrollBar@@H@Z 0046de66 f   mfc140d:mfc140d.dll
 0001:0006ce6c       ?WinHelpA@CWnd@@UAEXKI@Z   0046de6c f   mfc140d:mfc140d.dll
 0001:0006ce72       ?HtmlHelpA@CWnd@@UAEXKI@Z  0046de72 f   mfc140d:mfc140d.dll
 0001:0006ce78       ?WinHelpInternal@CWnd@@UAEXKI@Z 0046de78 f   mfc140d:mfc140d.dll
 0001:0006ce7e       ?ContinueModal@CWnd@@UAEHXZ 0046de7e f   mfc140d:mfc140d.dll
 0001:0006ce84       ?EndModalLoop@CWnd@@UAEXH@Z 0046de84 f   mfc140d:mfc140d.dll
 0001:0006ce8a       ?OnDrawIconicThumbnailOrLivePreview@CWnd@@UAEXAAVCDC@@VCRect@@VCSize@@HAAH@Z 0046de8a f   mfc140d:mfc140d.dll
 0001:0006ce90       ?GetInterfaceMap@CWnd@@MBEPBUAFX_INTERFACEMAP@@XZ 0046de90 f   mfc140d:mfc140d.dll
 0001:0006ce96       ?EnsureStdObj@CWnd@@UAEJXZ 0046de96 f   mfc140d:mfc140d.dll
 0001:0006ce9c       ?get_accParent@CWnd@@UAEJPAPAUIDispatch@@@Z 0046de9c f   mfc140d:mfc140d.dll
 0001:0006cea2       ?get_accChildCount@CWnd@@UAEJPAJ@Z 0046dea2 f   mfc140d:mfc140d.dll
 0001:0006cea8       ?get_accChild@CWnd@@UAEJUtagVARIANT@@PAPAUIDispatch@@@Z 0046dea8 f   mfc140d:mfc140d.dll
 0001:0006ceae       ?get_accName@CWnd@@UAEJUtagVARIANT@@PAPA_W@Z 0046deae f   mfc140d:mfc140d.dll
 0001:0006ceb4       ?get_accValue@CWnd@@UAEJUtagVARIANT@@PAPA_W@Z 0046deb4 f   mfc140d:mfc140d.dll
 0001:0006ceba       ?get_accDescription@CWnd@@UAEJUtagVARIANT@@PAPA_W@Z 0046deba f   mfc140d:mfc140d.dll
 0001:0006cec0       ?get_accRole@CWnd@@UAEJUtagVARIANT@@PAU2@@Z 0046dec0 f   mfc140d:mfc140d.dll
 0001:0006cec6       ?get_accState@CWnd@@UAEJUtagVARIANT@@PAU2@@Z 0046dec6 f   mfc140d:mfc140d.dll
 0001:0006cecc       ?get_accHelp@CWnd@@UAEJUtagVARIANT@@PAPA_W@Z 0046decc f   mfc140d:mfc140d.dll
 0001:0006ced2       ?get_accHelpTopic@CWnd@@UAEJPAPA_WUtagVARIANT@@PAJ@Z 0046ded2 f   mfc140d:mfc140d.dll
 0001:0006ced8       ?get_accKeyboardShortcut@CWnd@@UAEJUtagVARIANT@@PAPA_W@Z 0046ded8 f   mfc140d:mfc140d.dll
 0001:0006cede       ?get_accFocus@CWnd@@UAEJPAUtagVARIANT@@@Z 0046dede f   mfc140d:mfc140d.dll
 0001:0006cee4       ?get_accSelection@CWnd@@UAEJPAUtagVARIANT@@@Z 0046dee4 f   mfc140d:mfc140d.dll
 0001:0006ceea       ?get_accDefaultAction@CWnd@@UAEJUtagVARIANT@@PAPA_W@Z 0046deea f   mfc140d:mfc140d.dll
 0001:0006cef0       ?accSelect@CWnd@@UAEJJUtagVARIANT@@@Z 0046def0 f   mfc140d:mfc140d.dll
 0001:0006cef6       ?accLocation@CWnd@@UAEJPAJ000UtagVARIANT@@@Z 0046def6 f   mfc140d:mfc140d.dll
 0001:0006cefc       ?accNavigate@CWnd@@UAEJJUtagVARIANT@@PAU2@@Z 0046defc f   mfc140d:mfc140d.dll
 0001:0006cf02       ?accHitTest@CWnd@@UAEJJJPAUtagVARIANT@@@Z 0046df02 f   mfc140d:mfc140d.dll
 0001:0006cf08       ?accDoDefaultAction@CWnd@@UAEJUtagVARIANT@@@Z 0046df08 f   mfc140d:mfc140d.dll
 0001:0006cf0e       ?put_accName@CWnd@@UAEJUtagVARIANT@@PA_W@Z 0046df0e f   mfc140d:mfc140d.dll
 0001:0006cf14       ?put_accValue@CWnd@@UAEJUtagVARIANT@@PA_W@Z 0046df14 f   mfc140d:mfc140d.dll
 0001:0006cf1a       ?SetProxy@CWnd@@UAEJPAUIAccessibleProxy@@@Z 0046df1a f   mfc140d:mfc140d.dll
 0001:0006cf20       ?CreateAccessibleProxy@CWnd@@UAEJIJPAJ@Z 0046df20 f   mfc140d:mfc140d.dll
 0001:0006cf26       ?OnNotify@CWnd@@MAEHIJPAJ@Z 0046df26 f   mfc140d:mfc140d.dll
 0001:0006cf2c       ?GetSuperWndProcAddr@CWnd@@MAEPAP6GJPAUHWND__@@IIJ@ZXZ 0046df2c f   mfc140d:mfc140d.dll
 0001:0006cf32       ?DoDataExchange@CWnd@@MAEXPAVCDataExchange@@@Z 0046df32 f   mfc140d:mfc140d.dll
 0001:0006cf38       ?BeginModalState@CWnd@@UAEXXZ 0046df38 f   mfc140d:mfc140d.dll
 0001:0006cf3e       ?EndModalState@CWnd@@UAEXXZ 0046df3e f   mfc140d:mfc140d.dll
 0001:0006cf44       ?OnAmbientProperty@CWnd@@UAEHPAVCOleControlSite@@JPAUtagVARIANT@@@Z 0046df44 f   mfc140d:mfc140d.dll
 0001:0006cf4a       ?WindowProc@CWnd@@MAEJIIJ@Z 0046df4a f   mfc140d:mfc140d.dll
 0001:0006cf50       ?OnWndMsg@CWnd@@MAEHIIJPAJ@Z 0046df50 f   mfc140d:mfc140d.dll
 0001:0006cf56       ?DefWindowProcA@CWnd@@MAEJIIJ@Z 0046df56 f   mfc140d:mfc140d.dll
 0001:0006cf5c       ?PostNcDestroy@CWnd@@MAEXXZ 0046df5c f   mfc140d:mfc140d.dll
 0001:0006cf62       ?OnChildNotify@CWnd@@MAEHIIJPAJ@Z 0046df62 f   mfc140d:mfc140d.dll
 0001:0006cf68       ?OnTouchInputs@CWnd@@MAEHIPAUtagTOUCHINPUT@@@Z 0046df68 f   mfc140d:mfc140d.dll
 0001:0006cf6e       ?OnTouchInput@CWnd@@MAEHVCPoint@@HHPAUtagTOUCHINPUT@@@Z 0046df6e f   mfc140d:mfc140d.dll
 0001:0006cf74       ?GetGestureStatus@CWnd@@MAEKVCPoint@@@Z 0046df74 f   mfc140d:mfc140d.dll
 0001:0006cf7a       ?OnGestureZoom@CWnd@@MAEHVCPoint@@J@Z 0046df7a f   mfc140d:mfc140d.dll
 0001:0006cf80       ?OnGesturePan@CWnd@@MAEHVCPoint@@0@Z 0046df80 f   mfc140d:mfc140d.dll
 0001:0006cf86       ?OnGestureRotate@CWnd@@MAEHVCPoint@@N@Z 0046df86 f   mfc140d:mfc140d.dll
 0001:0006cf8c       ?OnGestureTwoFingerTap@CWnd@@MAEHVCPoint@@@Z 0046df8c f   mfc140d:mfc140d.dll
 0001:0006cf92       ?OnGesturePressAndTap@CWnd@@MAEHVCPoint@@J@Z 0046df92 f   mfc140d:mfc140d.dll
 0001:0006cf98       ?ResizeDynamicLayout@CWnd@@MAEXXZ 0046df98 f   mfc140d:mfc140d.dll
 0001:0006cf9e       ?IsFrameWnd@CWnd@@UBEHXZ   0046df9e f   mfc140d:mfc140d.dll
 0001:0006cfa4       ?OnFinalRelease@CWnd@@UAEXXZ 0046dfa4 f   mfc140d:mfc140d.dll
 0001:0006cfaa       ?CreateControlContainer@CWnd@@MAEHPAPAVCOleControlContainer@@@Z 0046dfaa f   mfc140d:mfc140d.dll
 0001:0006cfb0       ?CreateControlSite@CWnd@@MAEHPAVCOleControlContainer@@PAPAVCOleControlSite@@IABU_GUID@@@Z 0046dfb0 f   mfc140d:mfc140d.dll
 0001:0006cfb6       ?Create@CDialog@@UAEHPBDPAVCWnd@@@Z 0046dfb6 f   mfc140d:mfc140d.dll
 0001:0006cfbc       ?Create@CDialog@@UAEHIPAVCWnd@@@Z 0046dfbc f   mfc140d:mfc140d.dll
 0001:0006cfc2       ?CreateIndirect@CDialog@@UAEHPBUDLGTEMPLATE@@PAVCWnd@@PAX@Z 0046dfc2 f   mfc140d:mfc140d.dll
 0001:0006cfc8       ?CreateIndirect@CDialog@@UAEHPAXPAVCWnd@@@Z 0046dfc8 f   mfc140d:mfc140d.dll
 0001:0006cfce       ?DoModal@CDialog@@UAEHXZ   0046dfce f   mfc140d:mfc140d.dll
 0001:0006cfd4       ?OnInitDialog@CDialog@@UAEHXZ 0046dfd4 f   mfc140d:mfc140d.dll
 0001:0006cfda       ?OnSetFont@CDialog@@UAEXPAVCFont@@@Z 0046dfda f   mfc140d:mfc140d.dll
 0001:0006cfe0       ?OnOK@CDialog@@MAEXXZ      0046dfe0 f   mfc140d:mfc140d.dll
 0001:0006cfe6       ?OnCancel@CDialog@@MAEXXZ  0046dfe6 f   mfc140d:mfc140d.dll
 0001:0006cfec       ??1CDialog@@UAE@XZ         0046dfec f   mfc140d:mfc140d.dll
 0001:0006cff2       ?AssertValid@CDialog@@UBEXXZ 0046dff2 f   mfc140d:mfc140d.dll
 0001:0006cff8       ?Dump@CDialog@@UBEXAAVCDumpContext@@@Z 0046dff8 f   mfc140d:mfc140d.dll
 0001:0006cffe       ?OnCmdMsg@CDialog@@UAEHIHPAXPAUAFX_CMDHANDLERINFO@@@Z 0046dffe f   mfc140d:mfc140d.dll
 0001:0006d004       ?CheckAutoCenter@CDialog@@UAEHXZ 0046e004 f   mfc140d:mfc140d.dll
 0001:0006d00a       ?SetOccDialogInfo@CDialog@@MAEHPAU_AFX_OCC_DIALOG_INFO@@@Z 0046e00a f   mfc140d:mfc140d.dll
 0001:0006d010       ?GetOccDialogInfo@CDialog@@MAEPAU_AFX_OCC_DIALOG_INFO@@XZ 0046e010 f   mfc140d:mfc140d.dll
 0001:0006d016       ?PreInitDialog@CDialog@@MAEXXZ 0046e016 f   mfc140d:mfc140d.dll
 0001:0006d01c       ??0CComboBox@@QAE@XZ       0046e01c f   mfc140d:mfc140d.dll
 0001:0006d022       ?GetCount@CComboBox@@QBEHXZ 0046e022 f   mfc140d:mfc140d.dll
 0001:0006d028       ?GetCurSel@CComboBox@@QBEHXZ 0046e028 f   mfc140d:mfc140d.dll
 0001:0006d02e       ?SetCurSel@CComboBox@@QAEHH@Z 0046e02e f   mfc140d:mfc140d.dll
 0001:0006d034       ?GetItemDataPtr@CComboBox@@QBEPAXH@Z 0046e034 f   mfc140d:mfc140d.dll
 0001:0006d03a       ?SetItemDataPtr@CComboBox@@QAEHHPAX@Z 0046e03a f   mfc140d:mfc140d.dll
 0001:0006d040       ?AddString@CComboBox@@QAEHPBD@Z 0046e040 f   mfc140d:mfc140d.dll
 0001:0006d046       ??1CComboBox@@UAE@XZ       0046e046 f   mfc140d:mfc140d.dll
 0001:0006d04c       ??0CEdit@@QAE@XZ           0046e04c f   mfc140d:mfc140d.dll
 0001:0006d052       ?SetLimitText@CEdit@@QAEXI@Z 0046e052 f   mfc140d:mfc140d.dll
 0001:0006d058       ??1CEdit@@UAE@XZ           0046e058 f   mfc140d:mfc140d.dll
 0001:0006d05e       ?AfxGetMainWnd@@YGPAVCWnd@@XZ 0046e05e f   mfc140d:mfc140d.dll
 0001:0006d064       ?AfxGetInstanceHandle@@YGPAUHINSTANCE__@@XZ 0046e064 f   mfc140d:mfc140d.dll
 0001:0006d06a       ?AfxMessageBox@@YGHPBDII@Z 0046e06a f   mfc140d:mfc140d.dll
 0001:0006d070       ?GetColumn@CListCtrl@@QBEHHPAUtagLVCOLUMNA@@@Z 0046e070 f   mfc140d:mfc140d.dll
 0001:0006d076       ?SetColumn@CListCtrl@@QAEHHPBUtagLVCOLUMNA@@@Z 0046e076 f   mfc140d:mfc140d.dll
 0001:0006d07c       ?SetColumnWidth@CListCtrl@@QAEHHH@Z 0046e07c f   mfc140d:mfc140d.dll
 0001:0006d082       ?SetItemText@CListCtrl@@QAEHHHPBD@Z 0046e082 f   mfc140d:mfc140d.dll
 0001:0006d088       ?InsertItem@CListCtrl@@QAEHHPBD@Z 0046e088 f   mfc140d:mfc140d.dll
 0001:0006d08e       ?DeleteAllItems@CListCtrl@@QAEHXZ 0046e08e f   mfc140d:mfc140d.dll
 0001:0006d094       ??1CDialogImpl@@MAE@XZ     0046e094 f   mfc140d:mfc140d.dll
 0001:0006d09a       ?GetThisClass@CDialogEx@@SGPAUCRuntimeClass@@XZ 0046e09a f   mfc140d:mfc140d.dll
 0001:0006d0a0       ??0CDialogEx@@QAE@IPAVCWnd@@@Z 0046e0a0 f   mfc140d:mfc140d.dll
 0001:0006d0a6       ?PreTranslateMessage@CDialogEx@@UAEHPAUtagMSG@@@Z 0046e0a6 f   mfc140d:mfc140d.dll
 0001:0006d0ac       ?OnCommand@CDialogEx@@MAEHIJ@Z 0046e0ac f   mfc140d:mfc140d.dll
 0001:0006d0b2       ??4?$CStringT@DV?$StrTraitMFC_DLL@DV?$ChTraitsCRT@D@ATL@@@@@ATL@@QAEAAV01@PBD@Z 0046e0b2 f   mfc140d:mfc140d.dll
 0001:0006d0b8       ?GetDlgItem@CWnd@@QBEPAV1@H@Z 0046e0b8 f   mfc140d:mfc140d.dll
 0001:0006d0be       ?GetCheck@CButton@@QBEHXZ  0046e0be f   mfc140d:mfc140d.dll
 0001:0006d0c4       ?SetCheck@CButton@@QAEXH@Z 0046e0c4 f   mfc140d:mfc140d.dll
 0001:0006d0ca       ??2CObject@@SGPAXI@Z       0046e0ca f   mfc140d:mfc140d.dll
 0001:0006d0d0       ?ShowWindow@CWnd@@QAEHH@Z  0046e0d0 f   mfc140d:mfc140d.dll
 0001:0006d0d6       ?OnShowWindow@CWnd@@IAEXHI@Z 0046e0d6 f   mfc140d:mfc140d.dll
 0001:0006d0dc       ?MoveWindow@CWnd@@QAEXHHHHH@Z 0046e0dc f   mfc140d:mfc140d.dll
 0001:0006d0e2       ?GetThisMessageMap@CMFCEditBrowseCtrl@@KGPBUAFX_MSGMAP@@XZ 0046e0e2 f   mfc140d:mfc140d.dll
 0001:0006d0e8       ?OnCmdMsg@CCmdTarget@@UAEHIHPAXPAUAFX_CMDHANDLERINFO@@@Z 0046e0e8 f   mfc140d:mfc140d.dll
 0001:0006d0ee       ?OnCommand@CWnd@@MAEHIJ@Z  0046e0ee f   mfc140d:mfc140d.dll
 0001:0006d0f4       ?CheckAutoCenter@CWnd@@UAEHXZ 0046e0f4 f   mfc140d:mfc140d.dll
 0001:0006d0fa       ?AssertValid@CWnd@@UBEXXZ  0046e0fa f   mfc140d:mfc140d.dll
 0001:0006d100       ?Dump@CWnd@@UBEXAAVCDumpContext@@@Z 0046e100 f   mfc140d:mfc140d.dll
 0001:0006d106       ?SetOccDialogInfo@CWnd@@MAEHPAU_AFX_OCC_DIALOG_INFO@@@Z 0046e106 f   mfc140d:mfc140d.dll
 0001:0006d10c       ?GetOccDialogInfo@CWnd@@MAEPAU_AFX_OCC_DIALOG_INFO@@XZ 0046e10c f   mfc140d:mfc140d.dll
 0001:0006d112       ?GetThisClass@CEdit@@SGPAUCRuntimeClass@@XZ 0046e112 f   mfc140d:mfc140d.dll
 0001:0006d118       ??0CMFCEditBrowseCtrl@@QAE@XZ 0046e118 f   mfc140d:mfc140d.dll
 0001:0006d11e       ?PreTranslateMessage@CMFCEditBrowseCtrl@@UAEHPAUtagMSG@@@Z 0046e11e f   mfc140d:mfc140d.dll
 0001:0006d124       ?OnBrowse@CMFCEditBrowseCtrl@@UAEXXZ 0046e124 f   mfc140d:mfc140d.dll
 0001:0006d12a       ?OnDrawBrowseButton@CMFCEditBrowseCtrl@@UAEXPAVCDC@@VCRect@@HH@Z 0046e12a f   mfc140d:mfc140d.dll
 0001:0006d130       ?OnChangeLayout@CMFCEditBrowseCtrl@@UAEXXZ 0046e130 f   mfc140d:mfc140d.dll
 0001:0006d136       ?OnAfterUpdate@CMFCEditBrowseCtrl@@UAEXXZ 0046e136 f   mfc140d:mfc140d.dll
 0001:0006d13c       ?OnIllegalFileName@CMFCEditBrowseCtrl@@UAEHAAV?$CStringT@DV?$StrTraitMFC_DLL@DV?$ChTraitsCRT@D@ATL@@@@@ATL@@@Z 0046e13c f   mfc140d:mfc140d.dll
 0001:0006d142       ??1CMFCEditBrowseCtrl@@UAE@XZ 0046e142 f   mfc140d:mfc140d.dll
 0001:0006d148       ?GetThisMessageMap@CWnd@@KGPBUAFX_MSGMAP@@XZ 0046e148 f   mfc140d:mfc140d.dll
 0001:0006d14e       ?OnMouseLeave@CWnd@@IAEXXZ 0046e14e f   mfc140d:mfc140d.dll
 0001:0006d154       ?OnMouseMove@CWnd@@IAEXIVCPoint@@@Z 0046e154 f   mfc140d:mfc140d.dll
 0001:0006d15a       ?PreTranslateMessage@CWnd@@UAEHPAUtagMSG@@@Z 0046e15a f   mfc140d:mfc140d.dll
 0001:0006d160       ?GetThisClass@CStatic@@SGPAUCRuntimeClass@@XZ 0046e160 f   mfc140d:mfc140d.dll
 0001:0006d166       ??0CStatic@@QAE@XZ         0046e166 f   mfc140d:mfc140d.dll
 0001:0006d16c       ?Create@CStatic@@UAEHPBDKABUtagRECT@@PAVCWnd@@I@Z 0046e16c f   mfc140d:mfc140d.dll
 0001:0006d172       ?DrawItem@CStatic@@UAEXPAUtagDRAWITEMSTRUCT@@@Z 0046e172 f   mfc140d:mfc140d.dll
 0001:0006d178       ??1CStatic@@UAE@XZ         0046e178 f   mfc140d:mfc140d.dll
 0001:0006d17e       ?OnChildNotify@CStatic@@MAEHIIJPAJ@Z 0046e17e f   mfc140d:mfc140d.dll
 0001:0006d184       ?SetText@CStatusBarCtrl@@QAEHPBDHH@Z 0046e184 f   mfc140d:mfc140d.dll
 0001:0006d18a       ?EnableAutomation@CCmdTarget@@QAEXXZ 0046e18a f   mfc140d:mfc140d.dll
 0001:0006d190       ?GetWindowRect@CWnd@@QBEXPAUtagRECT@@@Z 0046e190 f   mfc140d:mfc140d.dll
 0001:0006d196       ?GetClientRect@CWnd@@QBEXPAUtagRECT@@@Z 0046e196 f   mfc140d:mfc140d.dll
 0001:0006d19c       ?GetThisClass@CStatusBarCtrl@@SGPAUCRuntimeClass@@XZ 0046e19c f   mfc140d:mfc140d.dll
 0001:0006d1a2       ??0CStatusBarCtrl@@QAE@XZ  0046e1a2 f   mfc140d:mfc140d.dll
 0001:0006d1a8       ?SetParts@CStatusBarCtrl@@QAEHHPAH@Z 0046e1a8 f   mfc140d:mfc140d.dll
 0001:0006d1ae       ?DrawItem@CStatusBarCtrl@@UAEXPAUtagDRAWITEMSTRUCT@@@Z 0046e1ae f   mfc140d:mfc140d.dll
 0001:0006d1b4       ??1CStatusBarCtrl@@UAE@XZ  0046e1b4 f   mfc140d:mfc140d.dll
 0001:0006d1ba       ?OnChildNotify@CStatusBarCtrl@@MAEHIIJPAJ@Z 0046e1ba f   mfc140d:mfc140d.dll
 0001:0006d1c0       ??0CProgressCtrl@@QAE@XZ   0046e1c0 f   mfc140d:mfc140d.dll
 0001:0006d1c6       ?SetRange32@CProgressCtrl@@QAEXHH@Z 0046e1c6 f   mfc140d:mfc140d.dll
 0001:0006d1cc       ?SetPos@CProgressCtrl@@QAEHH@Z 0046e1cc f   mfc140d:mfc140d.dll
 0001:0006d1d2       ??1CProgressCtrl@@UAE@XZ   0046e1d2 f   mfc140d:mfc140d.dll
 0001:0006d1d8       ?GetThisMessageMap@CMFCListCtrl@@KGPBUAFX_MSGMAP@@XZ 0046e1d8 f   mfc140d:mfc140d.dll
 0001:0006d1de       ?CompareNoCase@?$CStringT@DV?$StrTraitMFC_DLL@DV?$ChTraitsCRT@D@ATL@@@@@ATL@@QBEHPBD@Z 0046e1de f   mfc140d:mfc140d.dll
 0001:0006d1e4       ?GetDlgCtrlID@CWnd@@QBEHXZ 0046e1e4 f   mfc140d:mfc140d.dll
 0001:0006d1ea       ?GetParent@CWnd@@QBEPAV1@XZ 0046e1ea f   mfc140d:mfc140d.dll
 0001:0006d1f0       ?GetBkColor@CListCtrl@@QBEKXZ 0046e1f0 f   mfc140d:mfc140d.dll
 0001:0006d1f6       ?GetItemCount@CListCtrl@@QBEHXZ 0046e1f6 f   mfc140d:mfc140d.dll
 0001:0006d1fc       ?GetTextColor@CListCtrl@@QBEKXZ 0046e1fc f   mfc140d:mfc140d.dll
 0001:0006d202       ?GetItemText@CListCtrl@@QBE?AV?$CStringT@DV?$StrTraitMFC_DLL@DV?$ChTraitsCRT@D@ATL@@@@@ATL@@HH@Z 0046e202 f   mfc140d:mfc140d.dll
 0001:0006d208       ?SetItemData@CListCtrl@@QAEHHK@Z 0046e208 f   mfc140d:mfc140d.dll
 0001:0006d20e       ?SetExtendedStyle@CListCtrl@@QAEKK@Z 0046e20e f   mfc140d:mfc140d.dll
 0001:0006d214       ?FindItem@CListCtrl@@QBEHPAUtagLVFINDINFOA@@H@Z 0046e214 f   mfc140d:mfc140d.dll
 0001:0006d21a       ?InsertColumn@CListCtrl@@QAEHHPBUtagLVCOLUMNA@@@Z 0046e21a f   mfc140d:mfc140d.dll
 0001:0006d220       ?DeleteColumn@CListCtrl@@QAEHH@Z 0046e220 f   mfc140d:mfc140d.dll
 0001:0006d226       ?SortItems@CListCtrl@@QAEHP6GHJJJ@ZK@Z 0046e226 f   mfc140d:mfc140d.dll
 0001:0006d22c       ?DrawItem@CListCtrl@@UAEXPAUtagDRAWITEMSTRUCT@@@Z 0046e22c f   mfc140d:mfc140d.dll
 0001:0006d232       ?OnChildNotify@CListCtrl@@MAEHIIJPAJ@Z 0046e232 f   mfc140d:mfc140d.dll
 0001:0006d238       ?GetItemCount@CHeaderCtrl@@QBEHXZ 0046e238 f   mfc140d:mfc140d.dll
 0001:0006d23e       ?GetThisClass@CMFCListCtrl@@SGPAUCRuntimeClass@@XZ 0046e23e f   mfc140d:mfc140d.dll
 0001:0006d244       ??0CMFCListCtrl@@QAE@XZ    0046e244 f   mfc140d:mfc140d.dll
 0001:0006d24a       ?Sort@CMFCListCtrl@@UAEXHHH@Z 0046e24a f   mfc140d:mfc140d.dll
 0001:0006d250       ?OnCompareItems@CMFCListCtrl@@UAEHJJH@Z 0046e250 f   mfc140d:mfc140d.dll
 0001:0006d256       ?PreSubclassWindow@CMFCListCtrl@@MAEXXZ 0046e256 f   mfc140d:mfc140d.dll
 0001:0006d25c       ??1CMFCListCtrl@@UAE@XZ    0046e25c f   mfc140d:mfc140d.dll
 0001:0006d262       ?InitHeader@CMFCListCtrl@@MAEXXZ 0046e262 f   mfc140d:mfc140d.dll
 0001:0006d268       ?OnHelp@CWinApp@@IAEXXZ    0046e268 f   mfc140d:mfc140d.dll
 0001:0006d26e       ?GetThisMessageMap@CWinApp@@KGPBUAFX_MSGMAP@@XZ 0046e26e f   mfc140d:mfc140d.dll
 0001:0006d274       ?OnFinalRelease@CCmdTarget@@UAEXXZ 0046e274 f   mfc140d:mfc140d.dll
 0001:0006d27a       ?GetInterfaceMap@CCmdTarget@@MBEPBUAFX_INTERFACEMAP@@XZ 0046e27a f   mfc140d:mfc140d.dll
 0001:0006d280       ?PreTranslateMessage@CWinThread@@UAEHPAUtagMSG@@@Z 0046e280 f   mfc140d:mfc140d.dll
 0001:0006d286       ?PumpMessage@CWinThread@@UAEHXZ 0046e286 f   mfc140d:mfc140d.dll
 0001:0006d28c       ?IsIdleMessage@CWinThread@@UAEHPAUtagMSG@@@Z 0046e28c f   mfc140d:mfc140d.dll
 0001:0006d292       ?ProcessMessageFilter@CWinThread@@UAEHHPAUtagMSG@@@Z 0046e292 f   mfc140d:mfc140d.dll
 0001:0006d298       ?GetMainWnd@CWinThread@@UAEPAVCWnd@@XZ 0046e298 f   mfc140d:mfc140d.dll
 0001:0006d29e       ?Delete@CWinThread@@UAEXXZ 0046e29e f   mfc140d:mfc140d.dll
 0001:0006d2a4       ?GetRuntimeClass@CWinApp@@UBEPAUCRuntimeClass@@XZ 0046e2a4 f   mfc140d:mfc140d.dll
 0001:0006d2aa       ??0CWinApp@@QAE@PBD@Z      0046e2aa f   mfc140d:mfc140d.dll
 0001:0006d2b0       ?SetRegistryKey@CWinApp@@IAEXPBD@Z 0046e2b0 f   mfc140d:mfc140d.dll
 0001:0006d2b6       ?GetProfileIntA@CWinApp@@UAEIPBD0H@Z 0046e2b6 f   mfc140d:mfc140d.dll
 0001:0006d2bc       ?WriteProfileInt@CWinApp@@UAEHPBD0H@Z 0046e2bc f   mfc140d:mfc140d.dll
 0001:0006d2c2       ?GetProfileStringA@CWinApp@@UAE?AV?$CStringT@DV?$StrTraitMFC_DLL@DV?$ChTraitsCRT@D@ATL@@@@@ATL@@PBD00@Z 0046e2c2 f   mfc140d:mfc140d.dll
 0001:0006d2c8       ?WriteProfileStringA@CWinApp@@UAEHPBD00@Z 0046e2c8 f   mfc140d:mfc140d.dll
 0001:0006d2ce       ?GetProfileBinary@CWinApp@@UAEHPBD0PAPAEPAI@Z 0046e2ce f   mfc140d:mfc140d.dll
 0001:0006d2d4       ?WriteProfileBinary@CWinApp@@UAEHPBD0PAEI@Z 0046e2d4 f   mfc140d:mfc140d.dll
 0001:0006d2da       ?InitLibId@CWinApp@@UAEXXZ 0046e2da f   mfc140d:mfc140d.dll
 0001:0006d2e0       ?Register@CWinApp@@UAEHXZ  0046e2e0 f   mfc140d:mfc140d.dll
 0001:0006d2e6       ?Unregister@CWinApp@@UAEHXZ 0046e2e6 f   mfc140d:mfc140d.dll
 0001:0006d2ec       ?OpenDocumentFile@CWinApp@@UAEPAVCDocument@@PBD@Z 0046e2ec f   mfc140d:mfc140d.dll
 0001:0006d2f2       ?OpenDocumentFile@CWinApp@@UAEPAVCDocument@@PBDH@Z 0046e2f2 f   mfc140d:mfc140d.dll
 0001:0006d2f8       ?AddToRecentFileList@CWinApp@@UAEXPBD@Z 0046e2f8 f   mfc140d:mfc140d.dll
 0001:0006d2fe       ?InitApplication@CWinApp@@UAEHXZ 0046e2fe f   mfc140d:mfc140d.dll
 0001:0006d304       ?SaveAllModified@CWinApp@@UAEHXZ 0046e304 f   mfc140d:mfc140d.dll
 0001:0006d30a       ?DoMessageBox@CWinApp@@UAEHPBDII@Z 0046e30a f   mfc140d:mfc140d.dll
 0001:0006d310       ?DoWaitCursor@CWinApp@@UAEXH@Z 0046e310 f   mfc140d:mfc140d.dll
 0001:0006d316       ?OnDDECommand@CWinApp@@UAEHPAD@Z 0046e316 f   mfc140d:mfc140d.dll
 0001:0006d31c       ?WinHelpA@CWinApp@@UAEXKI@Z 0046e31c f   mfc140d:mfc140d.dll
 0001:0006d322       ?HtmlHelpA@CWinApp@@UAEXKI@Z 0046e322 f   mfc140d:mfc140d.dll
 0001:0006d328       ?WinHelpInternal@CWinApp@@UAEXKI@Z 0046e328 f   mfc140d:mfc140d.dll
 0001:0006d32e       ?RegisterWithRestartManager@CWinApp@@UAEJHABV?$CStringT@DV?$StrTraitMFC_DLL@DV?$ChTraitsCRT@D@ATL@@@@@ATL@@@Z 0046e32e f   mfc140d:mfc140d.dll
 0001:0006d334       ?RegisterWithRestartManager@CWinApp@@UAEJPB_WKP6GKPAX@Z1KK@Z 0046e334 f   mfc140d:mfc140d.dll
 0001:0006d33a       ?ApplicationRecoveryCallback@CWinApp@@UAEKPAX@Z 0046e33a f   mfc140d:mfc140d.dll
 0001:0006d340       ?GetDataRecoveryHandler@CWinApp@@UAEPAVCDataRecoveryHandler@@XZ 0046e340 f   mfc140d:mfc140d.dll
 0001:0006d346       ?IsTaskbarInteractionEnabled@CWinApp@@UAEHXZ 0046e346 f   mfc140d:mfc140d.dll
 0001:0006d34c       ?InitInstance@CWinApp@@UAEHXZ 0046e34c f   mfc140d:mfc140d.dll
 0001:0006d352       ?ExitInstance@CWinApp@@UAEHXZ 0046e352 f   mfc140d:mfc140d.dll
 0001:0006d358       ?RestartInstance@CWinApp@@UAEHXZ 0046e358 f   mfc140d:mfc140d.dll
 0001:0006d35e       ?Run@CWinApp@@UAEHXZ       0046e35e f   mfc140d:mfc140d.dll
 0001:0006d364       ?OnIdle@CWinApp@@UAEHJ@Z   0046e364 f   mfc140d:mfc140d.dll
 0001:0006d36a       ?ProcessWndProcException@CWinApp@@UAEJPAVCException@@PBUtagMSG@@@Z 0046e36a f   mfc140d:mfc140d.dll
 0001:0006d370       ?LoadAppLangResourceDLL@CWinApp@@UAEPAUHINSTANCE__@@XZ 0046e370 f   mfc140d:mfc140d.dll
 0001:0006d376       ??1CWinApp@@UAE@XZ         0046e376 f   mfc140d:mfc140d.dll
 0001:0006d37c       ?AssertValid@CWinApp@@UBEXXZ 0046e37c f   mfc140d:mfc140d.dll
 0001:0006d382       ?Dump@CWinApp@@UBEXAAVCDumpContext@@@Z 0046e382 f   mfc140d:mfc140d.dll
 0001:0006d388       ?LoadSysPolicies@CWinApp@@UAEHXZ 0046e388 f   mfc140d:mfc140d.dll
 0001:0006d38e       ?AfxMessageBox@@YGHIII@Z   0046e38e f   mfc140d:mfc140d.dll
 0001:0006d394       ?AfxEnableControlContainer@@YAXPAVCOccManager@@@Z 0046e394 f   mfc140d:mfc140d.dll
 0001:0006d39a       ??0CShellManager@@QAE@XZ   0046e39a f   mfc140d:mfc140d.dll
 0001:0006d3a0       ??0CFile@@QAE@PBDI@Z       0046e3a0 f   mfc140d:mfc140d.dll
 0001:0006d3a6       ?SetLength@CFile@@UAEX_K@Z 0046e3a6 f   mfc140d:mfc140d.dll
 0001:0006d3ac       ?Write@CFile@@UAEXPBXI@Z   0046e3ac f   mfc140d:mfc140d.dll
 0001:0006d3b2       ?GetSafeHdc@CDC@@QBEPAUHDC__@@XZ 0046e3b2 f   mfc140d:mfc140d.dll
 0001:0006d3b8       ?DrawIcon@CDC@@QAEHHHPAUHICON__@@@Z 0046e3b8 f   mfc140d:mfc140d.dll
 0001:0006d3be       ??0CPaintDC@@QAE@PAVCWnd@@@Z 0046e3be f   mfc140d:mfc140d.dll
 0001:0006d3c4       ??1CPaintDC@@UAE@XZ        0046e3c4 f   mfc140d:mfc140d.dll
 0001:0006d3ca       ?SendMessageA@CWnd@@QBEJIIJ@Z 0046e3ca f   mfc140d:mfc140d.dll
 0001:0006d3d0       ?GetWindowTextA@CWnd@@QBEHPADH@Z 0046e3d0 f   mfc140d:mfc140d.dll
 0001:0006d3d6       ?IsIconic@CWnd@@QBEHXZ     0046e3d6 f   mfc140d:mfc140d.dll
 0001:0006d3dc       ?EnableWindow@CWnd@@QAEHH@Z 0046e3dc f   mfc140d:mfc140d.dll
 0001:0006d3e2       ?MessageBoxA@CWnd@@QAEHPBD0I@Z 0046e3e2 f   mfc140d:mfc140d.dll
 0001:0006d3e8       ?SetIcon@CWnd@@QAEPAUHICON__@@PAU2@H@Z 0046e3e8 f   mfc140d:mfc140d.dll
 0001:0006d3ee       ?OnPaint@CDialog@@IAEXXZ   0046e3ee f   mfc140d:mfc140d.dll
 0001:0006d3f4       ?ResetContent@CComboBox@@QAEXXZ 0046e3f4 f   mfc140d:mfc140d.dll
 0001:0006d3fa       ?AfxGetApp@@YGPAVCWinApp@@XZ 0046e3fa f   mfc140d:mfc140d.dll
 0001:0006d400       ?LoadIconA@CWinApp@@QBEPAUHICON__@@I@Z 0046e400 f   mfc140d:mfc140d.dll
 0001:0006d406       ??0CFileDialog@@QAE@HPBD0K0PAVCWnd@@KH@Z 0046e406 f   mfc140d:mfc140d.dll
 0001:0006d40c       ??1CFileDialog@@UAE@XZ     0046e40c f   mfc140d:mfc140d.dll
 0001:0006d412       ?DoModal@CFileDialog@@UAEHXZ 0046e412 f   mfc140d:mfc140d.dll
 0001:0006d418       ?GetPathName@CFileDialog@@QBE?AV?$CStringT@DV?$StrTraitMFC_DLL@DV?$ChTraitsCRT@D@ATL@@@@@ATL@@XZ 0046e418 f   mfc140d:mfc140d.dll
 0001:0006d41e       ?Create@CStatusBarCtrl@@QAEHKABUtagRECT@@PAVCWnd@@I@Z 0046e41e f   mfc140d:mfc140d.dll
 0001:0006d424       ?GetThisClass@CComboBoxEx@@SGPAUCRuntimeClass@@XZ 0046e424 f   mfc140d:mfc140d.dll
 0001:0006d42a       ??0CMFCButton@@QAE@XZ      0046e42a f   mfc140d:mfc140d.dll
 0001:0006d430       ??1CMFCButton@@UAE@XZ      0046e430 f   mfc140d:mfc140d.dll
 0001:0006d436       ?GetRuntimeClass@CDialogEx@@UBEPAUCRuntimeClass@@XZ 0046e436 f   mfc140d:mfc140d.dll
 0001:0006d43c       ?StringLength@?$CSimpleStringT@D$00@ATL@@SAHPBD@Z 0046e43c f   mfc140d:mfc140d.dll
 0001:0006d442       ?Concatenate@?$CSimpleStringT@D$00@ATL@@KAXAAV12@PBDH1H@Z 0046e442 f   mfc140d:mfc140d.dll
 0001:0006d448       ??0?$CStringT@DV?$StrTraitMFC_DLL@DV?$ChTraitsCRT@D@ATL@@@@@ATL@@QAE@PAUIAtlStringMgr@1@@Z 0046e448 f   mfc140d:mfc140d.dll
 0001:0006d44e       ?GetManager@?$CStringT@DV?$StrTraitMFC_DLL@DV?$ChTraitsCRT@D@ATL@@@@@ATL@@QBEPAUIAtlStringMgr@2@XZ 0046e44e f   mfc140d:mfc140d.dll
 0001:0006d454       ?DDX_Text@@YGXPAVCDataExchange@@HAAV?$CStringT@DV?$StrTraitMFC_DLL@DV?$ChTraitsCRT@D@ATL@@@@@ATL@@@Z 0046e454 f   mfc140d:mfc140d.dll
 0001:0006d45a       ?IsWindowEnabled@CWnd@@QBEHXZ 0046e45a f   mfc140d:mfc140d.dll
 0001:0006d460       ?UpdateData@CWnd@@QAEHH@Z  0046e460 f   mfc140d:mfc140d.dll
 0001:0006d466       ?GetThisMessageMap@CCmdTarget@@KGPBUAFX_MSGMAP@@XZ 0046e466 f   mfc140d:mfc140d.dll
 0001:0006d46c       ?GetThisClass@CWinThread@@SGPAUCRuntimeClass@@XZ 0046e46c f   mfc140d:mfc140d.dll
 0001:0006d472       ??0CWinThread@@QAE@XZ      0046e472 f   mfc140d:mfc140d.dll
 0001:0006d478       ?CreateThread@CWinThread@@QAEHKIPAU_SECURITY_ATTRIBUTES@@@Z 0046e478 f   mfc140d:mfc140d.dll
 0001:0006d47e       ?Run@CWinThread@@UAEHXZ    0046e47e f   mfc140d:mfc140d.dll
 0001:0006d484       ?OnIdle@CWinThread@@UAEHJ@Z 0046e484 f   mfc140d:mfc140d.dll
 0001:0006d48a       ?ExitInstance@CWinThread@@UAEHXZ 0046e48a f   mfc140d:mfc140d.dll
 0001:0006d490       ?ProcessWndProcException@CWinThread@@UAEJPAVCException@@PBUtagMSG@@@Z 0046e490 f   mfc140d:mfc140d.dll
 0001:0006d496       ??1CWinThread@@UAE@XZ      0046e496 f   mfc140d:mfc140d.dll
 0001:0006d49c       ?AssertValid@CWinThread@@UBEXXZ 0046e49c f   mfc140d:mfc140d.dll
 0001:0006d4a2       ?Dump@CWinThread@@UBEXAAVCDumpContext@@@Z 0046e4a2 f   mfc140d:mfc140d.dll
 0001:0006d4b0       ??1CComBSTR@ATL@@QAE@XZ    0046e4b0 f i mfcs140d:nolib.obj
 0001:0006d4f0       ??1stringdispid@CComTypeInfoHolder@ATL@@QAE@XZ 0046e4f0 f i mfcs140d:nolib.obj
 0001:0006d520       ??_Estringdispid@CComTypeInfoHolder@ATL@@QAEPAXI@Z 0046e520 f i mfcs140d:nolib.obj
 0001:0006d600       _IsolationAwareActivateActCtx@8 0046e600 f i mfcs140d:nolib.obj
 0001:0006d6b0       _IsolationAwareCreateActCtxW@4 0046e6b0 f i mfcs140d:nolib.obj
 0001:0006d760       _IsolationAwareDeactivateActCtx@8 0046e760 f i mfcs140d:nolib.obj
 0001:0006d810       _IsolationAwareFindActCtxSectionStringW@20 0046e810 f i mfcs140d:nolib.obj
 0001:0006d8d0       _IsolationAwarePrivatenPgViNgRzlnPgpgk@4 0046e8d0 f i mfcs140d:nolib.obj
 0001:0006d9e0       _IsolationAwarePrivatezltRgCebPnQQeRff@12 0046e9e0 f i mfcs140d:nolib.obj
 0001:0006daa0       _IsolationAwarePrivatezltRgzbQhYRuNaQYRJ@4 0046eaa0 f i mfcs140d:nolib.obj
 0001:0006dad0       _IsolationAwarePrivatezltRgzbQhYRuNaQYRn@4 0046ead0 f i mfcs140d:nolib.obj
 0001:0006db00       _IsolationAwareQueryActCtxW@28 0046eb00 f i mfcs140d:nolib.obj
 0001:0006dbd0       _IsolationAwareUnregisterClassA@8 0046ebd0 f i mfcs140d:nolib.obj
 0001:0006ddd0       _WinbaseIsolationAwarePrivatetRgCebPnQQeRff_xReaRYQP_QYY@4 0046edd0 f i mfcs140d:nolib.obj
 0001:0006de00       _WinbaseIsolationAwarePrivatetRgzlnPgpgk@0 0046ee00 f i mfcs140d:nolib.obj
 0001:0006e240       ?AfxSocketInit@@YGHPAUWSAData@@@Z 0046f240 f   mfcs140d:sockexp.obj
 0001:0006e270       ?AfxAssertFailedLine@@YGHPBDH@Z 0046f270 f i mfcs140d:appmodul.obj
 0001:0006e350       ?AfxInitialize@@YGHHK@Z    0046f350 f   mfcs140d:appmodul.obj
 0001:0006e3e0       _WinMain@16                0046f3e0 f   mfcs140d:appmodul.obj
 0001:0006e40c       _GetModuleFileNameA@12     0046f40c f   kernel32:KERNEL32.dll
 0001:0006e412       _GetPrivateProfileIntA@16  0046f412 f   kernel32:KERNEL32.dll
 0001:0006e418       _GetPrivateProfileStringA@24 0046f418 f   kernel32:KERNEL32.dll
 0001:0006e41e       _GetStdHandle@4            0046f41e f   kernel32:KERNEL32.dll
 0001:0006e424       _CreateDirectoryA@8        0046f424 f   kernel32:KERNEL32.dll
 0001:0006e42a       _OutputDebugStringA@4      0046f42a f   kernel32:KERNEL32.dll
 0001:0006e430       _CloseHandle@4             0046f430 f   kernel32:KERNEL32.dll
 0001:0006e436       _InitializeCriticalSection@4 0046f436 f   kernel32:KERNEL32.dll
 0001:0006e43c       _EnterCriticalSection@4    0046f43c f   kernel32:KERNEL32.dll
 0001:0006e442       _LeaveCriticalSection@4    0046f442 f   kernel32:KERNEL32.dll
 0001:0006e448       _DeleteCriticalSection@4   0046f448 f   kernel32:KERNEL32.dll
 0001:0006e44e       _ReleaseSemaphore@12       0046f44e f   kernel32:KERNEL32.dll
 0001:0006e454       _WaitForSingleObject@8     0046f454 f   kernel32:KERNEL32.dll
 0001:0006e45a       _Sleep@4                   0046f45a f   kernel32:KERNEL32.dll
 0001:0006e460       _GetCurrentProcessId@0     0046f460 f   kernel32:KERNEL32.dll
 0001:0006e466       _GetCurrentThreadId@0      0046f466 f   kernel32:KERNEL32.dll
 0001:0006e46c       _GetSystemTimeAsFileTime@4 0046f46c f   kernel32:KERNEL32.dll
 0001:0006e472       _CreateSemaphoreA@16       0046f472 f   kernel32:KERNEL32.dll
 0001:0006e478       _GetConsoleScreenBufferInfo@8 0046f478 f   kernel32:KERNEL32.dll
 0001:0006e47e       _SetConsoleTextAttribute@8 0046f47e f   kernel32:KERNEL32.dll
 0001:0006e484       _GetCurrentDirectoryA@8    0046f484 f   kernel32:KERNEL32.dll
 0001:0006e48a       _CreateFileA@28            0046f48a f   kernel32:KERNEL32.dll
 0001:0006e490       _SetUnhandledExceptionFilter@4 0046f490 f   kernel32:KERNEL32.dll
 0001:0006e496       _GetCurrentProcess@0       0046f496 f   kernel32:KERNEL32.dll
 0001:0006e49c       _GetLocalTime@4            0046f49c f   kernel32:KERNEL32.dll
 0001:0006e4a2       _FatalAppExitA@8           0046f4a2 f   kernel32:KERNEL32.dll
 0001:0006e4a8       _DecodePointer@4           0046f4a8 f   kernel32:KERNEL32.dll
 0001:0006e4ae       _RaiseException@16         0046f4ae f   kernel32:KERNEL32.dll
 0001:0006e4b4       _GetLastError@0            0046f4b4 f   kernel32:KERNEL32.dll
 0001:0006e4ba       _SetLastError@4            0046f4ba f   kernel32:KERNEL32.dll
 0001:0006e4c0       _HeapDestroy@4             0046f4c0 f   kernel32:KERNEL32.dll
 0001:0006e4c6       _HeapAlloc@12              0046f4c6 f   kernel32:KERNEL32.dll
 0001:0006e4cc       _HeapReAlloc@16            0046f4cc f   kernel32:KERNEL32.dll
 0001:0006e4d2       _HeapFree@12               0046f4d2 f   kernel32:KERNEL32.dll
 0001:0006e4d8       _HeapSize@12               0046f4d8 f   kernel32:KERNEL32.dll
 0001:0006e4de       _GetProcessHeap@0          0046f4de f   kernel32:KERNEL32.dll
 0001:0006e4e4       _InitializeCriticalSectionEx@12 0046f4e4 f   kernel32:KERNEL32.dll
 0001:0006e4ea       _MultiByteToWideChar@24    0046f4ea f   kernel32:KERNEL32.dll
 0001:0006e4f0       _UnhandledExceptionFilter@4 0046f4f0 f   kernel32:KERNEL32.dll
 0001:0006e4f6       _TerminateProcess@8        0046f4f6 f   kernel32:KERNEL32.dll
 0001:0006e4fc       _IsProcessorFeaturePresent@4 0046f4fc f   kernel32:KERNEL32.dll
 0001:0006e502       _SetEvent@4                0046f502 f   kernel32:KERNEL32.dll
 0001:0006e508       _ResetEvent@4              0046f508 f   kernel32:KERNEL32.dll
 0001:0006e50e       _WaitForSingleObjectEx@12  0046f50e f   kernel32:KERNEL32.dll
 0001:0006e514       _CreateEventW@16           0046f514 f   kernel32:KERNEL32.dll
 0001:0006e51a       _GetModuleHandleW@4        0046f51a f   kernel32:KERNEL32.dll
 0001:0006e520       _GetProcAddress@8          0046f520 f   kernel32:KERNEL32.dll
 0001:0006e526       _IsDebuggerPresent@0       0046f526 f   kernel32:KERNEL32.dll
 0001:0006e52c       _WideCharToMultiByte@32    0046f52c f   kernel32:KERNEL32.dll
 0001:0006e532       _GetStartupInfoW@4         0046f532 f   kernel32:KERNEL32.dll
 0001:0006e538       _QueryPerformanceCounter@4 0046f538 f   kernel32:KERNEL32.dll
 0001:0006e53e       _InitializeSListHead@4     0046f53e f   kernel32:KERNEL32.dll
 0001:0006e544       _VirtualQuery@12           0046f544 f   kernel32:KERNEL32.dll
 0001:0006e54a       _FreeLibrary@4             0046f54a f   kernel32:KERNEL32.dll
 0001:0006e550       _InitializeCriticalSectionAndSpinCount@8 0046f550 f   kernel32:KERNEL32.dll
 0001:0006e556       _GetModuleFileNameW@12     0046f556 f   kernel32:KERNEL32.dll
 0001:0006e55c       _GetModuleHandleA@4        0046f55c f   kernel32:KERNEL32.dll
 0001:0006e562       _LoadLibraryW@4            0046f562 f   kernel32:KERNEL32.dll
 0001:0006e568       _DeleteDC@4                0046f568 f   gdi32:GDI32.dll
 0001:0006e56e       _InitCommonControlsEx@4    0046f56e f   comctl32:COMCTL32.dll
 0001:0006e574       ??$?2PAUHINSTANCE__@@@Wrapper@?$CSimpleArray@PAUHINSTANCE__@@V?$CSimpleArrayEqualHelper@PAUHINSTANCE__@@@ATL@@@ATL@@SAPAXIPAPAUHINSTANCE__@@@Z 0046f574 f i atls:atlbase.obj
 0001:0006e57e       ??0?$CComCritSecLock@VCComCriticalSection@ATL@@@ATL@@QAE@AAVCComCriticalSection@1@_N@Z 0046f57e f i atls:atlbase.obj
 0001:0006e5ae       ??0?$CSimpleArray@PAUHINSTANCE__@@V?$CSimpleArrayEqualHelper@PAUHINSTANCE__@@@ATL@@@ATL@@QAE@XZ 0046f5ae f i atls:atlbase.obj
 0001:0006e5be       ??0CAtlBaseModule@ATL@@QAE@XZ 0046f5be f   atls:atlbase.obj
 0001:0006e625       ??0Wrapper@?$CSimpleArray@PAUHINSTANCE__@@V?$CSimpleArrayEqualHelper@PAUHINSTANCE__@@@ATL@@@ATL@@QAE@ABQAUHINSTANCE__@@@Z 0046f625 f i atls:atlbase.obj
 0001:0006e639       ??0_ATL_BASE_MODULE70@ATL@@QAE@XZ 0046f639 f i atls:atlbase.obj
 0001:0006e664       ??1?$CComCritSecLock@VCComCriticalSection@ATL@@@ATL@@QAE@XZ 0046f664 f i atls:atlbase.obj
 0001:0006e680       ??1?$CSimpleArray@PAUHINSTANCE__@@V?$CSimpleArrayEqualHelper@PAUHINSTANCE__@@@ATL@@@ATL@@QAE@XZ 0046f680 f i atls:atlbase.obj
 0001:0006e685       ??1CAtlBaseModule@ATL@@QAE@XZ 0046f685 f   atls:atlbase.obj
 0001:0006e6a0       ??1_ATL_BASE_MODULE70@ATL@@QAE@XZ 0046f6a0 f i atls:atlbase.obj
 0001:0006e6aa       ??A?$CSimpleArray@PAUHINSTANCE__@@V?$CSimpleArrayEqualHelper@PAUHINSTANCE__@@@ATL@@@ATL@@QAEAAPAUHINSTANCE__@@H@Z 0046f6aa f i atls:atlbase.obj
 0001:0006e6de       ?Add@?$CSimpleArray@PAUHINSTANCE__@@V?$CSimpleArrayEqualHelper@PAUHINSTANCE__@@@ATL@@@ATL@@QAEHABQAUHINSTANCE__@@@Z 0046f6de f i atls:atlbase.obj
 0001:0006e774       ?AddResourceInstance@CAtlBaseModule@ATL@@QAE_NPAUHINSTANCE__@@@Z 0046f774 f   atls:atlbase.obj
 0001:0006e7b3       ?AtlCrtErrorCheck@ATL@@YAHH@Z 0046f7b3 f i atls:atlbase.obj
 0001:0006e7fc       ?AtlThrowImpl@ATL@@YGXJ@Z  0046f7fc f i atls:atlbase.obj
 0001:0006e82b       ?GetHInstanceAt@CAtlBaseModule@ATL@@QAEPAUHINSTANCE__@@H@Z 0046f82b f   atls:atlbase.obj
 0001:0006e881       ?GetSize@?$CSimpleArray@PAUHINSTANCE__@@V?$CSimpleArrayEqualHelper@PAUHINSTANCE__@@@ATL@@@ATL@@QBEHXZ 0046f881 f i atls:atlbase.obj
 0001:0006e885       ?InternalSetAtIndex@?$CSimpleArray@PAUHINSTANCE__@@V?$CSimpleArrayEqualHelper@PAUHINSTANCE__@@@ATL@@@ATL@@QAEXHABQAUHINSTANCE__@@@Z 0046f885 f i atls:atlbase.obj
 0001:0006e8a5       ?Lock@?$CComCritSecLock@VCComCriticalSection@ATL@@@ATL@@QAEJXZ 0046f8a5 f i atls:atlbase.obj
 0001:0006e8bc       ?Lock@CComCriticalSection@ATL@@QAEJXZ 0046f8bc f i atls:atlbase.obj
 0001:0006e8c8       ?RemoveAll@?$CSimpleArray@PAUHINSTANCE__@@V?$CSimpleArrayEqualHelper@PAUHINSTANCE__@@@ATL@@@ATL@@QAEXXZ 0046f8c8 f i atls:atlbase.obj
 0001:0006e8ec       ?RemoveAt@?$CSimpleArray@PAUHINSTANCE__@@V?$CSimpleArrayEqualHelper@PAUHINSTANCE__@@@ATL@@@ATL@@QAEHH@Z 0046f8ec f i atls:atlbase.obj
 0001:0006e946       ?RemoveResourceInstance@CAtlBaseModule@ATL@@QAE_NPAUHINSTANCE__@@@Z 0046f946 f   atls:atlbase.obj
 0001:0006e9bc       ?Unlock@?$CComCritSecLock@VCComCriticalSection@ATL@@@ATL@@QAEXXZ 0046f9bc f i atls:atlbase.obj
 0001:0006e9d1       ?Unlock@CComCriticalSection@ATL@@QAEJXZ 0046f9d1 f i atls:atlbase.obj
 0001:0006e9dd       ?memmove_s@Checked@ATL@@YAXPAXIPBXI@Z 0046f9dd f i atls:atlbase.obj
 0001:0006eaa1       ??0?$CTraceCategoryEx@$00$0A@@ATL@@QAE@PB_W@Z 0046faa1 f i atls:stdafx.obj
 0001:0006eaa6       ??0?$CTraceCategoryEx@$01$0A@@ATL@@QAE@PB_W@Z 0046faa6 f i atls:stdafx.obj
 0001:0006eaab       ??0?$CTraceCategoryEx@$03$0A@@ATL@@QAE@PB_W@Z 0046faab f i atls:stdafx.obj
 0001:0006eab0       ??0?$CTraceCategoryEx@$07$0A@@ATL@@QAE@PB_W@Z 0046fab0 f i atls:stdafx.obj
 0001:0006eab5       ??0?$CTraceCategoryEx@$0BA@$0A@@ATL@@QAE@PB_W@Z 0046fab5 f i atls:stdafx.obj
 0001:0006eaba       ??0?$CTraceCategoryEx@$0BAA@$0A@@ATL@@QAE@PB_W@Z 0046faba f i atls:stdafx.obj
 0001:0006eabf       ??0?$CTraceCategoryEx@$0BAAA@$0A@@ATL@@QAE@PB_W@Z 0046fabf f i atls:stdafx.obj
 0001:0006eac4       ??0?$CTraceCategoryEx@$0BAAAA@$0A@@ATL@@QAE@PB_W@Z 0046fac4 f i atls:stdafx.obj
 0001:0006eac9       ??0?$CTraceCategoryEx@$0BAAAAA@$0A@@ATL@@QAE@PB_W@Z 0046fac9 f i atls:stdafx.obj
 0001:0006eace       ??0?$CTraceCategoryEx@$0CA@$0A@@ATL@@QAE@PB_W@Z 0046face f i atls:stdafx.obj
 0001:0006ead3       ??0?$CTraceCategoryEx@$0CAA@$0A@@ATL@@QAE@PB_W@Z 0046fad3 f i atls:stdafx.obj
 0001:0006ead8       ??0?$CTraceCategoryEx@$0CAAA@$0A@@ATL@@QAE@PB_W@Z 0046fad8 f i atls:stdafx.obj
 0001:0006eadd       ??0?$CTraceCategoryEx@$0CAAAA@$0A@@ATL@@QAE@PB_W@Z 0046fadd f i atls:stdafx.obj
 0001:0006eae2       ??0?$CTraceCategoryEx@$0CAAAAA@$0A@@ATL@@QAE@PB_W@Z 0046fae2 f i atls:stdafx.obj
 0001:0006eae7       ??0?$CTraceCategoryEx@$0EA@$0A@@ATL@@QAE@PB_W@Z 0046fae7 f i atls:stdafx.obj
 0001:0006eaec       ??0?$CTraceCategoryEx@$0EAA@$0A@@ATL@@QAE@PB_W@Z 0046faec f i atls:stdafx.obj
 0001:0006eaf1       ??0?$CTraceCategoryEx@$0EAAA@$0A@@ATL@@QAE@PB_W@Z 0046faf1 f i atls:stdafx.obj
 0001:0006eaf6       ??0?$CTraceCategoryEx@$0EAAAA@$0A@@ATL@@QAE@PB_W@Z 0046faf6 f i atls:stdafx.obj
 0001:0006eafb       ??0?$CTraceCategoryEx@$0EAAAAA@$0A@@ATL@@QAE@PB_W@Z 0046fafb f i atls:stdafx.obj
 0001:0006eb00       ??0?$CTraceCategoryEx@$0IA@$0A@@ATL@@QAE@PB_W@Z 0046fb00 f i atls:stdafx.obj
 0001:0006eb05       ??0?$CTraceCategoryEx@$0IAA@$0A@@ATL@@QAE@PB_W@Z 0046fb05 f i atls:stdafx.obj
 0001:0006eb0a       ??0?$CTraceCategoryEx@$0IAAA@$0A@@ATL@@QAE@PB_W@Z 0046fb0a f i atls:stdafx.obj
 0001:0006eb0f       ??0?$CTraceCategoryEx@$0IAAAA@$0A@@ATL@@QAE@PB_W@Z 0046fb0f f i atls:stdafx.obj
 0001:0006eb14       ??_I@YGXPAXIIP6EX0@Z@Z     0046fb14 f i atls:stdafx.obj
 0001:0006eb48       _SysAllocString@4          0046fb48 f   oleaut32:OLEAUT32.dll
 0001:0006eb4e       _SysFreeString@4           0046fb4e f   oleaut32:OLEAUT32.dll
 0001:0006eb54       _GdiplusShutdown@4         0046fb54 f   gdiplus:gdiplus.dll
 0001:0006eb60       ??$__vcrt_va_start_verify_argument_type@G@@YGXXZ 0046fb60 f i comsuppwd:comsupp.obj
 0001:0006eb70       ??$__vcrt_va_start_verify_argument_type@PB_W@@YGXXZ 0046fb70 f i comsuppwd:comsupp.obj
 0001:0006eb80       ?_com_dispatch_method@@YAJPAUIDispatch@@JGGPAXPB_WZZ 0046fb80 f   comsuppwd:comsupp.obj
 0001:0006ec80       ?_com_dispatch_propget@@YGJPAUIDispatch@@JGPAX@Z 0046fc80 f   comsuppwd:comsupp.obj
 0001:0006ecc0       ?_com_dispatch_propput@@YAJPAUIDispatch@@JGZZ 0046fcc0 f   comsuppwd:comsupp.obj
 0001:0006ee40       ?_com_issue_error@@YGXJ@Z  0046fe40 f   comsuppwd:comsupp.obj
 0001:0006ee90       ?_com_issue_errorex@@YGXJPAUIUnknown@@ABU_GUID@@@Z 0046fe90 f   comsuppwd:comsupp.obj
 0001:0006f040       ?_set_com_error_handler@@YGXP6GXJPAUIErrorInfo@@@Z@Z 00470040 f   comsuppwd:comsupp.obj
 0001:0006f060       ??0_variant_t@@QAE@JG@Z    00470060 f i comsuppwd:comutil.obj
 0001:0006f150       ??1_variant_t@@QAE@XZ      00470150 f i comsuppwd:comutil.obj
 0001:0006f190       ?ConvertBSTRToString@_com_util@@YGPADPA_W@Z 00470190 f   comsuppwd:comutil.obj
 0001:0006f380       ?ConvertStringToBSTR@_com_util@@YGPA_WPBD@Z 00470380 f   comsuppwd:comutil.obj
 0001:0006f680       ?HRESULT_FROM_WIN32@@YGJK@Z 00470680 f i comsuppwd:comutil.obj
 0001:0006f6d0       ??0_com_error@@QAE@ABV0@@Z 004706d0 f i comsuppwd:comraise.obj
 0001:0006f780       ??0_com_error@@QAE@JPAUIErrorInfo@@_N@Z 00470780 f i comsuppwd:comraise.obj
 0001:0006f830       ??1_com_error@@UAE@XZ      00470830 f i comsuppwd:comraise.obj
 0001:0006f8e0       ??_G_com_error@@UAEPAXI@Z  004708e0 f i comsuppwd:comraise.obj
 0001:0006f8e0       ??_E_com_error@@UAEPAXI@Z  004708e0 f i comsuppwd:comraise.obj
 0001:0006f930       ?_com_raise_error@@YGXJPAUIErrorInfo@@@Z 00470930 f   comsuppwd:comraise.obj
 0001:0006f990       ?_com_dispatch_raw_method@@YAJPAUIDispatch@@JGGPAXPB_WZZ 00470990 f   comsuppwd:invkprxy.obj
 0001:0006fa80       ?_com_dispatch_raw_propget@@YGJPAUIDispatch@@JGPAX@Z 00470a80 f   comsuppwd:invkprxy.obj
 0001:0006fac0       ?_com_dispatch_raw_propput@@YAJPAUIDispatch@@JGZZ 00470ac0 f   comsuppwd:invkprxy.obj
 0001:0006fc30       ?_com_invoke_helper@@YAJPAUIDispatch@@JGGPAXPB_WPADPAPAUIErrorInfo@@@Z 00470c30 f   comsuppwd:invkprxy.obj
 0001:00071090       ?WCodeToHRESULT@_com_error@@SGJG@Z 00472090 f i comsuppwd:invkerr.obj
 0001:000710e0       ?_com_handle_excepinfo@@YGJAAUtagEXCEPINFO@@PAPAUIErrorInfo@@@Z 004720e0 f   comsuppwd:invkerr.obj
 0001:000713f8       _WSAStartup@8              004723f8 f   ws2_32:WS2_32.dll
 0001:000713fe       ?AddPatchAuto2OEP@PEMake@@QAE_NPBEPBXI@Z 004723fe f   PELib:PELib.dll
 0001:00071404       ?SectionAlignmentSize@PEMake@@QAEII@Z 00472404 f   PELib:PELib.dll
 0001:0007140a       ?FileAlignmentSize@PEMake@@QAEII@Z 0047240a f   PELib:PELib.dll
 0001:00071410       ?AddSectionToEnd@PEMake@@QAE_NPBEII@Z 00472410 f   PELib:PELib.dll
 0001:00071416       ?RvaToFoa@PEMake@@QAEII@Z  00472416 f   PELib:PELib.dll
 0001:0007141c       ??0PEMake@@QAE@XZ          0047241c f   PELib:PELib.dll
 0001:00071422       ??1PEMake@@UAE@XZ          00472422 f   PELib:PELib.dll
 0001:00071428       ?isAnalysised@PEMake@@QAE_NXZ 00472428 f   PELib:PELib.dll
 0001:0007142e       ?PELoadFile@PEMake@@QAE_NPBD0@Z 0047242e f   PELib:PELib.dll
 0001:00071434       ?PEUnload@PEMake@@QAEXXZ   00472434 f   PELib:PELib.dll
 0001:0007143a       ?CheckPESig@PEMake@@QAE_NXZ 0047243a f   PELib:PELib.dll
 0001:00071440       ?Analysis@PEMake@@QAE_NXZ  00472440 f   PELib:PELib.dll
 0001:00071446       ?SetAnalysised@PEMake@@QAEX_N@Z 00472446 f   PELib:PELib.dll
 0001:0007144c       ?ClsRelocDataDirectory@PEMake@@QAE_NXZ 0047244c f   PELib:PELib.dll
 0001:00071452       ?EncryptImportTable@PEMake@@QAE_NXZ 00472452 f   PELib:PELib.dll
 0001:00071458       ?WriteCtx2VirMem@PEMake@@QAE_NXZ 00472458 f   PELib:PELib.dll
 0001:0007145e       ?FoaToRva@PEMake@@QAEII@Z  0047245e f   PELib:PELib.dll
 0001:00071464       _HESpecifySettings@4       00472464 f   16Edit:16Edit.DLL
 0001:0007146a       _HEEnterWindowLoop@0       0047246a f   16Edit:16Edit.DLL
 0001:00071470       _memset                    00472470 f   vcruntimed:VCRUNTIME140D.dll
 0001:00071476       _memcpy                    00472476 f   vcruntimed:VCRUNTIME140D.dll
 0001:0007147c       _strrchr                   0047247c f   vcruntimed:VCRUNTIME140D.dll
 0001:00071482       ___CxxFrameHandler3        00472482 f   vcruntimed:VCRUNTIME140D.dll
 0001:00071488       __purecall                 00472488 f   vcruntimed:VCRUNTIME140D.dll
 0001:0007148e       _memchr                    0047248e f   vcruntimed:VCRUNTIME140D.dll
 0001:00071494       _memcmp                    00472494 f   vcruntimed:VCRUNTIME140D.dll
 0001:0007149a       _memmove                   0047249a f   vcruntimed:VCRUNTIME140D.dll
 0001:000714a0       __CxxThrowException@8      004724a0 f   vcruntimed:VCRUNTIME140D.dll
 0001:000714a6       ___vcrt_InitializeCriticalSectionEx 004724a6 f   vcruntimed:VCRUNTIME140D.dll
 0001:000714ac       __except_handler4_common   004724ac f   vcruntimed:VCRUNTIME140D.dll
 0001:000714b2       ___std_exception_copy      004724b2 f   vcruntimed:VCRUNTIME140D.dll
 0001:000714b8       ___std_exception_destroy   004724b8 f   vcruntimed:VCRUNTIME140D.dll
 0001:000714be       ___std_type_info_destroy_list 004724be f   vcruntimed:VCRUNTIME140D.dll
 0001:000714c4       ___vcrt_GetModuleFileNameW 004724c4 f   vcruntimed:VCRUNTIME140D.dll
 0001:000714ca       ___vcrt_GetModuleHandleW   004724ca f   vcruntimed:VCRUNTIME140D.dll
 0001:000714d0       ___vcrt_LoadLibraryExW     004724d0 f   vcruntimed:VCRUNTIME140D.dll
 0001:000714d6       ___stdio_common_vsprintf   004724d6 f   ucrtd:ucrtbased.dll
 0001:000714dc       _isalpha                   004724dc f   ucrtd:ucrtbased.dll
 0001:000714e2       _isdigit                   004724e2 f   ucrtd:ucrtbased.dll
 0001:000714e8       _isxdigit                  004724e8 f   ucrtd:ucrtbased.dll
 0001:000714ee       _isalnum                   004724ee f   ucrtd:ucrtbased.dll
 0001:000714f4       _toupper                   004724f4 f   ucrtd:ucrtbased.dll
 0001:000714fa       _strcmp                    004724fa f   ucrtd:ucrtbased.dll
 0001:00071500       _strcpy                    00472500 f   ucrtd:ucrtbased.dll
 0001:00071506       _strlen                    00472506 f   ucrtd:ucrtbased.dll
 0001:0007150c       __strupr_s                 0047250c f   ucrtd:ucrtbased.dll
 0001:00071512       _pow                       00472512 f   ucrtd:ucrtbased.dll
 0001:00071518       _strcat                    00472518 f   ucrtd:ucrtbased.dll
 0001:0007151e       ___stdio_common_vsprintf_s 0047251e f   ucrtd:ucrtbased.dll
 0001:00071524       __invalid_parameter        00472524 f   ucrtd:ucrtbased.dll
 0001:0007152a       __CrtDbgReportW            0047252a f   ucrtd:ucrtbased.dll
 0001:00071530       _free                      00472530 f   ucrtd:ucrtbased.dll
 0001:00071536       _malloc                    00472536 f   ucrtd:ucrtbased.dll
 0001:0007153c       _rand                      0047253c f   ucrtd:ucrtbased.dll
 0001:00071542       _atoi                      00472542 f   ucrtd:ucrtbased.dll
 0001:00071548       ___acrt_iob_func           00472548 f   ucrtd:ucrtbased.dll
 0001:0007154e       _fclose                    0047254e f   ucrtd:ucrtbased.dll
 0001:00071554       _fflush                    00472554 f   ucrtd:ucrtbased.dll
 0001:0007155a       _fopen                     0047255a f   ucrtd:ucrtbased.dll
 0001:00071560       _fread                     00472560 f   ucrtd:ucrtbased.dll
 0001:00071566       _fseek                     00472566 f   ucrtd:ucrtbased.dll
 0001:0007156c       _ftell                     0047256c f   ucrtd:ucrtbased.dll
 0001:00071572       _fwrite                    00472572 f   ucrtd:ucrtbased.dll
 0001:00071578       _remove                    00472578 f   ucrtd:ucrtbased.dll
 0001:0007157e       ___stdio_common_vfprintf   0047257e f   ucrtd:ucrtbased.dll
 0001:00071584       _tolower                   00472584 f   ucrtd:ucrtbased.dll
 0001:0007158a       __localtime64_s            0047258a f   ucrtd:ucrtbased.dll
 0001:00071590       __mktime64                 00472590 f   ucrtd:ucrtbased.dll
 0001:00071596       __time64                   00472596 f   ucrtd:ucrtbased.dll
 0001:0007159c       __beginthreadex            0047259c f   ucrtd:ucrtbased.dll
 0001:000715a2       _wcscpy_s                  004725a2 f   ucrtd:ucrtbased.dll
 0001:000715a8       ___stdio_common_vswprintf_s 004725a8 f   ucrtd:ucrtbased.dll
 0001:000715ae       __splitpath_s              004725ae f   ucrtd:ucrtbased.dll
 0001:000715b4       _strtoll                   004725b4 f   ucrtd:ucrtbased.dll
 0001:000715ba       __invalid_parameter_noinfo 004725ba f   ucrtd:ucrtbased.dll
 0001:000715c0       __errno                    004725c0 f   ucrtd:ucrtbased.dll
 0001:000715c6       _wcslen                    004725c6 f   ucrtd:ucrtbased.dll
 0001:000715cc       ___stdio_common_vsnprintf_s 004725cc f   ucrtd:ucrtbased.dll
 0001:000715d2       __mbscmp                   004725d2 f   ucrtd:ucrtbased.dll
 0001:000715d8       _setlocale                 004725d8 f   ucrtd:ucrtbased.dll
 0001:000715de       __CrtDbgReport             004725de f   ucrtd:ucrtbased.dll
 0001:000715e4       __free_dbg                 004725e4 f   ucrtd:ucrtbased.dll
 0001:000715ea       _terminate                 004725ea f   ucrtd:ucrtbased.dll
 0001:000715f0       __callnewh                 004725f0 f   ucrtd:ucrtbased.dll
 0001:000715f6       __seh_filter_dll           004725f6 f   ucrtd:ucrtbased.dll
 0001:000715fc       __configure_narrow_argv    004725fc f   ucrtd:ucrtbased.dll
 0001:00071602       __initialize_narrow_environment 00472602 f   ucrtd:ucrtbased.dll
 0001:00071608       __initialize_onexit_table  00472608 f   ucrtd:ucrtbased.dll
 0001:0007160e       __register_onexit_function 0047260e f   ucrtd:ucrtbased.dll
 0001:00071614       __execute_onexit_table     00472614 f   ucrtd:ucrtbased.dll
 0001:0007161a       __crt_atexit               0047261a f   ucrtd:ucrtbased.dll
 0001:00071620       __crt_at_quick_exit        00472620 f   ucrtd:ucrtbased.dll
 0001:00071626       __cexit                    00472626 f   ucrtd:ucrtbased.dll
 0001:0007162c       __seh_filter_exe           0047262c f   ucrtd:ucrtbased.dll
 0001:00071632       __set_app_type             00472632 f   ucrtd:ucrtbased.dll
 0001:00071638       ___setusermatherr          00472638 f   ucrtd:ucrtbased.dll
 0001:0007163e       __get_narrow_winmain_command_line 0047263e f   ucrtd:ucrtbased.dll
 0001:00071644       __initterm                 00472644 f   ucrtd:ucrtbased.dll
 0001:0007164a       __initterm_e               0047264a f   ucrtd:ucrtbased.dll
 0001:00071650       _exit                      00472650 f   ucrtd:ucrtbased.dll
 0001:00071656       __exit                     00472656 f   ucrtd:ucrtbased.dll
 0001:0007165c       __set_fmode                0047265c f   ucrtd:ucrtbased.dll
 0001:00071662       __c_exit                   00472662 f   ucrtd:ucrtbased.dll
 0001:00071668       __register_thread_local_exe_atexit_callback 00472668 f   ucrtd:ucrtbased.dll
 0001:0007166e       __configthreadlocale       0047266e f   ucrtd:ucrtbased.dll
 0001:00071674       __set_new_mode             00472674 f   ucrtd:ucrtbased.dll
 0001:0007167a       ___p__commode              0047267a f   ucrtd:ucrtbased.dll
 0001:00071680       __controlfp_s              00472680 f   ucrtd:ucrtbased.dll
 0001:00071686       __wmakepath_s              00472686 f   ucrtd:ucrtbased.dll
 0001:0007168c       __wsplitpath_s             0047268c f   ucrtd:ucrtbased.dll
 0001:00071692       __strnicmp                 00472692 f   ucrtd:ucrtbased.dll
 0001:00071698       __strupr                   00472698 f   ucrtd:ucrtbased.dll
 0001:0007169e       __memicmp                  0047269e f   ucrtd:ucrtbased.dll
 0001:000716a4       __strlwr                   004726a4 f   ucrtd:ucrtbased.dll
 0001:000716aa       __setmbcp                  004726aa f   ucrtd:ucrtbased.dll
 0001:000716b0       __recalloc                 004726b0 f   ucrtd:ucrtbased.dll
 0001:000716c0       ??_V@YAXPAXI@Z             004726c0 f   MSVCRTD:delete_array_size.obj
 0001:000716e0       __alloca_probe_16          004726e0 f   MSVCRTD:alloca16.obj
 0001:000716f6       __alloca_probe_8           004726f6     MSVCRTD:alloca16.obj
 0001:00071718       _PeekMessageA@20           00472718 f   User32:USER32.dll
 0001:0007171e       _PostQuitMessage@4         0047271e f   User32:USER32.dll
 0001:00071724       ?_AfxSocketInit@@YGHPAUWSAData@@@Z 00472724 f   mfc140d:mfc140d.dll
 0001:0007172a       ?AfxGetModuleState@@YGPAVAFX_MODULE_STATE@@XZ 0047272a f   mfc140d:mfc140d.dll
 0001:00071730       ?AfxWinMain@@YGHPAUHINSTANCE__@@0PADH@Z 00472730 f   mfc140d:mfc140d.dll
 0001:00071736       _OutputDebugStringW@4      00472736 f   kernel32:KERNEL32.dll
 0001:0007173c       _LocalFree@4               0047273c f   kernel32:KERNEL32.dll
 0001:00071742       _GetErrorInfo@8            00472742 f   oleaut32:OLEAUT32.dll
 0001:00071748       _VariantClear@4            00472748 f   oleaut32:OLEAUT32.dll
 0001:0007174e       _VariantInit@4             0047274e f   oleaut32:OLEAUT32.dll
 0001:00071754       _VariantChangeType@16      00472754 f   oleaut32:OLEAUT32.dll
 0001:0007175a       _SetErrorInfo@8            0047275a f   oleaut32:OLEAUT32.dll
 0001:00071760       _CreateErrorInfo@4         00472760 f   oleaut32:OLEAUT32.dll
 0001:00071770       ___vcrt_initialize         00472770 f   MSVCRTD:ucrt_stubs.obj
 0001:00071770       ___scrt_stub_for_acrt_initialize 00472770 f   MSVCRTD:ucrt_stubs.obj
 0001:00071770       ___acrt_initialize         00472770 f   MSVCRTD:ucrt_stubs.obj
 0001:00071780       ___acrt_thread_attach      00472780 f   MSVCRTD:ucrt_stubs.obj
 0001:00071780       ___scrt_stub_for_acrt_thread_attach 00472780 f   MSVCRTD:ucrt_stubs.obj
 0001:00071780       ___vcrt_thread_attach      00472780 f   MSVCRTD:ucrt_stubs.obj
 0001:00071790       ___acrt_thread_detach      00472790 f   MSVCRTD:ucrt_stubs.obj
 0001:00071790       ___scrt_stub_for_acrt_thread_detach 00472790 f   MSVCRTD:ucrt_stubs.obj
 0001:00071790       ___vcrt_thread_detach      00472790 f   MSVCRTD:ucrt_stubs.obj
 0001:000717a0       ___vcrt_uninitialize       004727a0 f   MSVCRTD:ucrt_stubs.obj
 0001:000717a0       ___acrt_uninitialize       004727a0 f   MSVCRTD:ucrt_stubs.obj
 0001:000717a0       ___scrt_stub_for_acrt_uninitialize 004727a0 f   MSVCRTD:ucrt_stubs.obj
 0001:000717b0       ___acrt_uninitialize_critical 004727b0 f   MSVCRTD:ucrt_stubs.obj
 0001:000717b0       ___vcrt_uninitialize_critical 004727b0 f   MSVCRTD:ucrt_stubs.obj
 0001:000717b0       ___scrt_stub_for_acrt_uninitialize_critical 004727b0 f   MSVCRTD:ucrt_stubs.obj
 0001:000717c0       ___scrt_stub_for_is_c_termination_complete 004727c0 f   MSVCRTD:ucrt_stubs.obj
 0001:000717c0       __is_c_termination_complete 004727c0 f   MSVCRTD:ucrt_stubs.obj
 0001:000717d0       ?SetDlgUI@CPETOOLSDlg@@QAEHXZ 004727d0 f   PETOOLSDlg.obj
 0001:00079fa0       ??__Fcache@?1??GetCDCCacheInstance@CImage@ATL@@CAPAVCDCCache@12@XZ@YAXXZ 0047afa0 f i GlobeVar.obj
 0001:00079ff0       ??__FgdiPlus@?1??GetInitGDIPlusInstance@CImage@ATL@@CAPAVCInitGDIPlus@12@XZ@YAXXZ 0047aff0 f i GlobeVar.obj
 0001:0007a040       ??__FstrHeap@?1??GetInstance@CAtlStringMgr@ATL@@SAPAUIAtlStringMgr@2@XZ@YAXXZ 0047b040 f i GlobeVar.obj
 0001:0007a090       ??__FstrMgr@?1??GetInstance@CAtlStringMgr@ATL@@SAPAUIAtlStringMgr@2@XZ@YAXXZ 0047b090 f i GlobeVar.obj
 0002:00000000       ___xc_a                    0047d000     MSVCRTD:initializers.obj
 0002:000004a0       ___xc_z                    0047d4a0     MSVCRTD:initializers.obj
 0002:000005a4       ___xi_a                    0047d5a4     MSVCRTD:initializers.obj
 0002:000009b4       ___xi_z                    0047d9b4     MSVCRTD:initializers.obj
 0002:00000ab8       ___xl_a                    0047dab8     MSVCRTD:tlssup.obj
 0002:00000abc       ___xl_z                    0047dabc     MSVCRTD:tlssup.obj
 0002:00000ac0       ___xp_a                    0047dac0     MSVCRTD:initializers.obj
 0002:00000bc4       ___xp_z                    0047dbc4     MSVCRTD:initializers.obj
 0002:00000cc8       ___xt_a                    0047dcc8     MSVCRTD:initializers.obj
 0002:00000dcc       ___xt_z                    0047ddcc     MSVCRTD:initializers.obj
 0002:00000ed0       ?addr16@@3QBUt_addrdec@@B  0047ded0     asmserv.obj
 0002:00000f10       ?addr32@@3QBUt_addrdec@@B  0047df10     asmserv.obj
 0002:00000f50       ?cmddata@@3QBUt_cmddata@@B 0047df50     asmserv.obj
 0002:00003d18       ?vxdcmd@@3Ut_cmddata@@B    00480d18     asmserv.obj
 0002:00003d30       ?dangerous@@3QBUt_cmddata@@B 00480d30     asmserv.obj
 0002:00003d94       ??_C@_08KGNJAMHC@Button11?$AA@ 00480d94     PETOOLSDlg.obj
 0002:00003da0       ??_C@_0BD@HMHJBFJ@?G?k?Q?$KB?T?q?R?$KK?$LH?V?N?v?$LF?D?N?D?$LM?$PO?$AA@ 00480da0     PETOOLSDlg.obj
 0002:00003db4       ??_C@_0BH@PHMNNICG@?$LP?$KK?J?$LM?I?h?V?C?$LG?T?$LL?$LA?$LP?r?$LP?X?$LM?$PO?$LF?D?V?$LF?$AA@ 00480db4     PETOOLSDlg.obj
 0002:00003dcc       ??_C@_0BB@BKKJHJE@?$LG?T?$LL?$LA?$LP?r?V?$LF?I?h?V?C?J?$KH?$LA?$NM?$AA@ 00480dcc     PETOOLSDlg.obj
 0002:00003de0       ??_C@_0BP@JGJJJPFN@?$LC?K?$LF?$KF?9?$LJ?$KG?D?$NM?9?H?$KF?V?X?$LG?$KI?N?$LL?$LB?m?3?H?$KF?$LD?$PN?$LD?I?$LJ?$KG?$CB?$AA@ 00480de0     PETOOLSDlg.obj
 0002:00003e00       ??_C@_0BC@NGEIOBLI@?V?X?$LG?$KI?N?$LL?$LB?m?H?$KF?$LD?$PN?$LD?I?$LJ?$KG?$CB?$AA@ 00480e00     PETOOLSDlg.obj
 0002:00003e14       ??_C@_04IBNHJNAL@?$LB?$KD?$LE?f?$AA@ 00480e14     PETOOLSDlg.obj
 0002:00003e1c       ??_C@_0N@PMLKJFOO@?J?G?$LH?q?$LB?$KD?$LE?f?N?D?$LM?$PO?$AA@ 00480e1c     PETOOLSDlg.obj
 0002:00003e40       ??_C@_09MJPHCMFD@?L?m?$LM?S?J?$KH?$LA?$NM?$CB?$AA@ 00480e40     PETOOLSDlg.obj
 0002:00003e4c       ??_C@_0BP@JJONBLOI@?$LC?K?$LF?$KF?9?$LJ?$KG?D?$NM?9?$LF?$LM?H?k?$LB?m?$LM?S?C?$NM?3?$LM?S?C?$NM?$LD?I?$LJ?$KG?$CB?$AA@ 00480e4c     PETOOLSDlg.obj
 0002:00003e70       ??_C@_0CK@EGPBCGMD@TXT?5Files?$CI?$CK?4exe?$CJ?$HM?$CK?4exe?$HMAll?5Files@ 00480e70     PETOOLSDlg.obj
 0002:000046f0       ??_C@_02CNCKMBBD@AL?$AA@   004816f0     asmserv.obj
 0002:000046f4       ??_C@_02COKOBFHN@CL?$AA@   004816f4     asmserv.obj
 0002:000046f8       ??_C@_02CLOBADPI@DL?$AA@   004816f8     asmserv.obj
 0002:000046fc       ??_C@_02CPGMHPEK@BL?$AA@   004816fc     asmserv.obj
 0002:00004700       ??_C@_02EJEGAEBH@AH?$AA@   00481700     asmserv.obj
 0002:00004704       ??_C@_02EKMCNAHJ@CH?$AA@   00481704     asmserv.obj
 0002:00004708       ??_C@_02EPINMGPM@DH?$AA@   00481708     asmserv.obj
 0002:0000470c       ??_C@_02ELAALKEO@BH?$AA@   0048170c     asmserv.obj
 0002:00004710       ??_C@_02HIBJGAMI@R8?$AA@   00481710     asmserv.obj
 0002:00004714       ??_C@_02DIEBGEG@AX?$AA@    00481714     asmserv.obj
 0002:00004718       ??_C@_02MCCI@CX?$AA@       00481718     asmserv.obj
 0002:0000471c       ??_C@_02FEPNEKN@DX?$AA@    0048171c     asmserv.obj
 0002:00004720       ??_C@_02BMCKIBP@BX?$AA@    00481720     asmserv.obj
 0002:00004724       ??_C@_02NEPPOLFA@SP?$AA@   00481724     asmserv.obj
 0002:00004728       ??_C@_02MJBLCCBH@BP?$AA@   00481728     asmserv.obj
 0002:0000472c       ??_C@_02EPPPECEI@SI?$AA@   0048172c     asmserv.obj
 0002:00004730       ??_C@_02FGJGPHLN@DI?$AA@   00481730     asmserv.obj
 0002:00004734       ??_C@_03BDAKPJBI@R16?$AA@  00481734     asmserv.obj
 0002:00004738       ??_C@_03HBELLIEH@EAX?$AA@  00481738     asmserv.obj
 0002:0000473c       ??_C@_03HCMPGMCJ@ECX?$AA@  0048173c     asmserv.obj
 0002:00004740       ??_C@_03HHIAHKKM@EDX?$AA@  00481740     asmserv.obj
 0002:00004744       ??_C@_03HDANAGBO@EBX?$AA@  00481744     asmserv.obj
 0002:00004748       ??_C@_03KGDAEFFB@ESP?$AA@  00481748     asmserv.obj
 0002:0000474c       ??_C@_03LLNEIMBG@EBP?$AA@  0048174c     asmserv.obj
 0002:00004750       ??_C@_03DNDAOMEJ@ESI?$AA@  00481750     asmserv.obj
 0002:00004754       ??_C@_03CEFJFJLM@EDI?$AA@  00481754     asmserv.obj
 0002:00004758       ??_C@_03HEOCOIHC@R32?$AA@  00481758     asmserv.obj
 0002:0000475c       ??_C@_02OHHJGHFB@ES?$AA@   0048175c     asmserv.obj
 0002:00004760       ??_C@_02ODPEBLOD@CS?$AA@   00481760     asmserv.obj
 0002:00004764       ??_C@_02PPNCLIJD@SS?$AA@   00481764     asmserv.obj
 0002:00004768       ??_C@_02OGLLANGG@DS?$AA@   00481768     asmserv.obj
 0002:0000476c       ??_C@_02OFDPNJAI@FS?$AA@   0048176c     asmserv.obj
 0002:00004770       ??_C@_02OEPNLDDP@GS?$AA@   00481770     asmserv.obj
 0002:00004774       ??_C@_04MHKPKEIP@SEG?$DP?$AA@ 00481774     asmserv.obj
 0002:0000477c       ??_C@_08KJDIOCD@?$CI0?9BYTE?$CJ?$AA@ 0048177c     asmserv.obj
 0002:00004788       ??_C@_04ELFAHOMP@BYTE?$AA@ 00481788     asmserv.obj
 0002:00004790       ??_C@_04ILLECDIN@WORD?$AA@ 00481790     asmserv.obj
 0002:00004798       ??_C@_08IEBMIJMA@?$CI3?9BYTE?$CJ?$AA@ 00481798     asmserv.obj
 0002:000047a4       ??_C@_05GIJNDNEJ@DWORD?$AA@ 004817a4     asmserv.obj
 0002:000047ac       ??_C@_08ECHDIAEH@?$CI5?9BYTE?$CJ?$AA@ 004817ac     asmserv.obj
 0002:000047b8       ??_C@_05CFFFJMEC@FWORD?$AA@ 004817b8     asmserv.obj
 0002:000047c0       ??_C@_08FGIHDK@?$CI7?9BYTE?$CJ?$AA@ 004817c0     asmserv.obj
 0002:000047cc       ??_C@_05DLIGKOGB@QWORD?$AA@ 004817cc     asmserv.obj
 0002:000047d4       ??_C@_08BFNMJFAI@?$CI9?9BYTE?$CJ?$AA@ 004817d4     asmserv.obj
 0002:000047e0       ??_C@_05KLKPGCJA@TBYTE?$AA@ 004817e0     asmserv.obj
 0002:000047e8       ??_C@_05DMLMDNKL@BX?$CLSI?$AA@ 004817e8     asmserv.obj
 0002:000047f0       ??_C@_05CFNFIIFO@BX?$CLDI?$AA@ 004817f0     asmserv.obj
 0002:000047f8       ??_C@_05MMMHGGK@BP?$CLSI?$AA@ 004817f8     asmserv.obj
 0002:00004800       ??_C@_05BFKFMDJP@BP?$CLDI?$AA@ 00481800     asmserv.obj
 0002:00004807       ??_C@_00CNPNBAHC@?$AA@     00481807     asmserv.obj
 0002:00004808       ??_C@_03LDPADADA@ST0?$AA@  00481808     asmserv.obj
 0002:0000480c       ??_C@_03KKOLABHB@ST1?$AA@  0048180c     asmserv.obj
 0002:00004810       ??_C@_03IBMGFCLC@ST2?$AA@  00481810     asmserv.obj
 0002:00004814       ??_C@_03JINNGDPD@ST3?$AA@  00481814     asmserv.obj
 0002:00004818       ??_C@_03NHJMPFDE@ST4?$AA@  00481818     asmserv.obj
 0002:0000481c       ??_C@_03MOIHMEHF@ST5?$AA@  0048181c     asmserv.obj
 0002:00004820       ??_C@_03OFKKJHLG@ST6?$AA@  00481820     asmserv.obj
 0002:00004824       ??_C@_03PMLBKGPH@ST7?$AA@  00481824     asmserv.obj
 0002:00004828       ??_C@_03MLLEKAKD@FPU?$AA@  00481828     asmserv.obj
 0002:0000482c       ??_C@_03BAMBIIGD@MM0?$AA@  0048182c     asmserv.obj
 0002:00004830       ??_C@_03JNKLJCC@MM1?$AA@   00481830     asmserv.obj
 0002:00004834       ??_C@_03CCPHOKOB@MM2?$AA@  00481834     asmserv.obj
 0002:00004838       ??_C@_03DLOMNLKA@MM3?$AA@  00481838     asmserv.obj
 0002:0000483c       ??_C@_03HEKNENGH@MM4?$AA@  0048183c     asmserv.obj
 0002:00004840       ??_C@_03GNLGHMCG@MM5?$AA@  00481840     asmserv.obj
 0002:00004844       ??_C@_03EGJLCPOF@MM6?$AA@  00481844     asmserv.obj
 0002:00004848       ??_C@_03FPIABOKE@MM7?$AA@  00481848     asmserv.obj
 0002:0000484c       ??_C@_03LNOFGJMM@MMX?$AA@  0048184c     asmserv.obj
 0002:00004850       ??_C@_03OHGEBLBN@CR0?$AA@  00481850     asmserv.obj
 0002:00004854       ??_C@_03POHPCKFM@CR1?$AA@  00481854     asmserv.obj
 0002:00004858       ??_C@_03NFFCHJJP@CR2?$AA@  00481858     asmserv.obj
 0002:0000485c       ??_C@_03MMEJEINO@CR3?$AA@  0048185c     asmserv.obj
 0002:00004860       ??_C@_03IDAINOBJ@CR4?$AA@  00481860     asmserv.obj
 0002:00004864       ??_C@_03JKBDOPFI@CR5?$AA@  00481864     asmserv.obj
 0002:00004868       ??_C@_03LBDOLMJL@CR6?$AA@  00481868     asmserv.obj
 0002:0000486c       ??_C@_03KICFINNK@CR7?$AA@  0048186c     asmserv.obj
 0002:00004870       ??_C@_03EKEAPKLC@CRX?$AA@  00481870     asmserv.obj
 0002:00004874       ??_C@_03HKLDCDKE@DR0?$AA@  00481874     asmserv.obj
 0002:00004878       ??_C@_03GDKIBCOF@DR1?$AA@  00481878     asmserv.obj
 0002:0000487c       ??_C@_03EIIFEBCG@DR2?$AA@  0048187c     asmserv.obj
 0002:00004880       ??_C@_03FBJOHAGH@DR3?$AA@  00481880     asmserv.obj
 0002:00004884       ??_C@_03BONPOGKA@DR4?$AA@  00481884     asmserv.obj
 0002:00004888       ??_C@_03HMENHOB@DR5?$AA@   00481888     asmserv.obj
 0002:0000488c       ??_C@_03CMOJIECC@DR6?$AA@  0048188c     asmserv.obj
 0002:00004890       ??_C@_03DFPCLFGD@DR7?$AA@  00481890     asmserv.obj
 0002:00004894       ??_C@_03NHJHMCAL@DRX?$AA@  00481894     asmserv.obj
 0002:00004898       ??_C@_03GEANJIEE@NOP?$AA@  00481898     asmserv.obj
 0002:0000489c       ??_C@_03CAOCJACM@MOV?$AA@  0048189c     asmserv.obj
 0002:000048a0       ??_C@_04KLEHGNFN@PUSH?$AA@ 004818a0     asmserv.obj
 0002:000048a8       ??_C@_04CAGKGBIO@CALL?$AA@ 004818a8     asmserv.obj
 0002:000048b0       ??_C@_03JAEKPGAJ@LEA?$AA@  004818b0     asmserv.obj
 0002:000048b4       ??_C@_05KHFAANCB@JE?0JZ?$AA@ 004818b4     asmserv.obj
 0002:000048bc       ??_C@_03NEMLLIOI@POP?$AA@  004818bc     asmserv.obj
 0002:000048c0       ??_C@_03BOJFLAKG@ADD?$AA@  004818c0     asmserv.obj
 0002:000048c4       ??_C@_07JMDDLKNA@JNZ?0JNE?$AA@ 004818c4     asmserv.obj
 0002:000048d0       ??_C@_03OIOLNLHN@JMP?$AA@  004818d0     asmserv.obj
 0002:000048d4       ??_C@_04OIKJMBFP@TEST?$AA@ 004818d4     asmserv.obj
 0002:000048dc       ??_C@_03CDEJPCIF@XOR?$AA@  004818dc     asmserv.obj
 0002:000048e0       ??_C@_03JFODJEPH@CMP?$AA@  004818e0     asmserv.obj
 0002:000048e4       ??_C@_08LFEDKMH@RETN?0RET?$AA@ 004818e4     asmserv.obj
 0002:000048f0       ??_C@_03JJPHILFI@INC?$AA@  004818f0     asmserv.obj
 0002:000048f4       ??_C@_03KPDLEBHD@SUB?$AA@  004818f4     asmserv.obj
 0002:000048f8       ??_C@_07MLBKHJDF@JLE?0JNG?$AA@ 004818f8     asmserv.obj
 0002:00004904       ??_C@_04NCILNIKB@RETN?$AA@ 00481904     asmserv.obj
 0002:0000490c       ??_C@_02PDPFNDMG@OR?$AA@   0048190c     asmserv.obj
 0002:00004910       ??_C@_03GHMILMGE@DEC?$AA@  00481910     asmserv.obj
 0002:00004914       ??_C@_05NFKGJPLN@MOVSX?$AA@ 00481914     asmserv.obj
 0002:0000491c       ??_C@_07EABGGLBA@JL?0JNGE?$AA@ 0048191c     asmserv.obj
 0002:00004928       ??_C@_03BDACDFHA@AND?$AA@  00481928     asmserv.obj
 0002:0000492c       ??_C@_03GBFNEA@NOT?$AA@    0048192c     asmserv.obj
 0002:00004930       ??_C@_03PBAHGDAB@SHR?$AA@  00481930     asmserv.obj
 0002:00004934       ??_C@_07CKOJPEAE@JGE?0JNL?$AA@ 00481934     asmserv.obj
 0002:00004940       ??_C@_07EOEENAAL@JG?0JNLE?$AA@ 00481940     asmserv.obj
 0002:0000494c       ??_C@_03CFEGFMNO@SHL?$AA@  0048194c     asmserv.obj
 0002:00004950       ??_C@_03LGFCPEIG@SBB?$AA@  00481950     asmserv.obj
 0002:00004954       ??_C@_03GMBJJJAE@NEG?$AA@  00481954     asmserv.obj
 0002:00004958       ??_C@_05GACDJFGI@LEAVE?$AA@ 00481958     asmserv.obj
 0002:00004960       ??_C@_07OFHCNFKC@?$CGPUSHA?$CK?$AA@ 00481960     asmserv.obj
 0002:0000496c       ??_C@_06MNONMPDF@?$CGPOPA?$CK?$AA@ 0048196c     asmserv.obj
 0002:00004974       ??_C@_04HJKOHOIB@XCHG?$AA@ 00481974     asmserv.obj
 0002:0000497c       ??_C@_03FBNECGGB@ADC?$AA@  0048197c     asmserv.obj
 0002:00004980       ??_C@_03IBHOEMFB@MUL?$AA@  00481980     asmserv.obj
 0002:00004984       ??_C@_04DDPLFOGI@IMUL?$AA@ 00481984     asmserv.obj
 0002:0000498c       ??_C@_03FJGHKDBE@DIV?$AA@  0048198c     asmserv.obj
 0002:00004990       ??_C@_04OLOCLBCN@IDIV?$AA@ 00481990     asmserv.obj
 0002:00004998       ??_C@_09CCBGGGGA@?$CGCBW?3CWDE?$AA@ 00481998     asmserv.obj
 0002:000049a4       ??_C@_08ILLHFEMI@?$CGCWD?3CDQ?$AA@ 004819a4     asmserv.obj
 0002:000049b0       ??_C@_03JILFCNDO@ROL?$AA@  004819b0     asmserv.obj
 0002:000049b4       ??_C@_03EMPEBCOB@ROR?$AA@  004819b4     asmserv.obj
 0002:000049b8       ??_C@_03JBKPNEFK@RCL?$AA@  004819b8     asmserv.obj
 0002:000049bc       ??_C@_03EFOOOLIF@RCR?$AA@  004819bc     asmserv.obj
 0002:000049c0       ??_C@_03PONGFIIO@SAR?$AA@  004819c0     asmserv.obj
 0002:000049c4       ??_C@_02KFCHNDB@JO?$AA@    004819c4     asmserv.obj
 0002:000049c8       ??_C@_03CHPHGLLK@JNO?$AA@  004819c8     asmserv.obj
 0002:000049cc       ??_C@_05IOHAHICJ@JB?0JC?$AA@ 004819cc     asmserv.obj
 0002:000049d4       ??_C@_07CFOMJNKA@JNB?0JNC?$AA@ 004819d4     asmserv.obj
 0002:000049e0       ??_C@_07MNHPKFOO@JBE?0JNA?$AA@ 004819e0     asmserv.obj
 0002:000049ec       ??_C@_07CHAKMIDL@JA?0JNBE?$AA@ 004819ec     asmserv.obj
 0002:000049f8       ??_C@_02OMCFCAGM@JS?$AA@   004819f8     asmserv.obj
 0002:000049fc       ??_C@_03MBIADGOH@JNS?$AA@  004819fc     asmserv.obj
 0002:00004a00       ??_C@_06DDCHJALM@JPE?0JP?$AA@ 00481a00     asmserv.obj
 0002:00004a08       ??_C@_07MPHMCIHP@JPO?0JNP?$AA@ 00481a08     asmserv.obj
 0002:00004a14       ??_C@_0M@EKICBBJF@$JCXZ?3JECXZ?$AA@ 00481a14     asmserv.obj
 0002:00004a24       ??_C@_03PFMOLPFC@CLC?$AA@  00481a24     asmserv.obj
 0002:00004a28       ??_C@_03LHOCBKAF@STC?$AA@  00481a28     asmserv.obj
 0002:00004a2c       ??_C@_03PEAMNFGF@CMC?$AA@  00481a2c     asmserv.obj
 0002:00004a30       ??_C@_03LKIPCJJF@CLD?$AA@  00481a30     asmserv.obj
 0002:00004a34       ??_C@_03PIKDIMMC@STD?$AA@  00481a34     asmserv.obj
 0002:00004a38       ??_C@_03PCBFHNI@CLI?$AA@   00481a38     asmserv.obj
 0002:00004a3c       ??_C@_03ENANPCIP@STI?$AA@  00481a3c     asmserv.obj
 0002:00004a40       ??_C@_04LCNKIKLM@CMPS?$AA@ 00481a40     asmserv.obj
 0002:00004a48       ??_C@_04IBKMNOEK@LODS?$AA@ 00481a48     asmserv.obj
 0002:00004a50       ??_C@_04KDGOIAOE@MOVS?$AA@ 00481a50     asmserv.obj
 0002:00004a58       ??_C@_04CPABKDEK@SCAS?$AA@ 00481a58     asmserv.obj
 0002:00004a60       ??_C@_04OIFBOBGG@STOS?$AA@ 00481a60     asmserv.obj
 0002:00004a68       ??_C@_08JKOFCKKP@REP?5MOVS?$AA@ 00481a68     asmserv.obj
 0002:00004a74       ??_C@_08LICHHEAB@REP?5LODS?$AA@ 00481a74     asmserv.obj
 0002:00004a80       ??_C@_08NBNKELCN@REP?5STOS?$AA@ 00481a80     asmserv.obj
 0002:00004a8c       ??_C@_09PKCPKJME@REPE?5CMPS?$AA@ 00481a8c     asmserv.obj
 0002:00004a98       ??_C@_09GHPEIADC@REPE?5SCAS?$AA@ 00481a98     asmserv.obj
 0002:00004aa4       ??_C@_0L@BIOEKKAN@REPNE?5CMPS?$AA@ 00481aa4     asmserv.obj
 0002:00004ab4       ??_C@_0L@IFDPIDPL@REPNE?5SCAS?$AA@ 00481ab4     asmserv.obj
 0002:00004ac4       ??_C@_04BKFCFCKJ@RETF?$AA@ 00481ac4     asmserv.obj
 0002:00004acc       ??_C@_04PFFLDDIO@SHLD?$AA@ 00481acc     asmserv.obj
 0002:00004ad4       ??_C@_04ODODLNPE@SHRD?$AA@ 00481ad4     asmserv.obj
 0002:00004adc       ??_C@_05OOCHMNJI@BSWAP?$AA@ 00481adc     asmserv.obj
 0002:00004ae4       ??_C@_04PBJABMKN@XADD?$AA@ 00481ae4     asmserv.obj
 0002:00004aec       ??_C@_06DLPIJCHC@$LOOP?$CK?$AA@ 00481aec     asmserv.obj
 0002:00004af4       ??_C@_07DDDOFDMC@$LOOP?$CKE?$AA@ 00481af4     asmserv.obj
 0002:00004b00       ??_C@_08PEACMJGO@$LOOP?$CKNE?$AA@ 00481b00     asmserv.obj
 0002:00004b0c       ??_C@_05EMNIMLKD@ENTER?$AA@ 00481b0c     asmserv.obj
 0002:00004b14       ??_C@_02BBAPPCCJ@IN?$AA@   00481b14     asmserv.obj
 0002:00004b18       ??_C@_03KJGMBMID@OUT?$AA@  00481b18     asmserv.obj
 0002:00004b1c       ??_C@_03NDDFJJAJ@INS?$AA@  00481b1c     asmserv.obj
 0002:00004b20       ??_C@_04OFIOLABB@OUTS?$AA@ 00481b20     asmserv.obj
 0002:00004b28       ??_C@_07FLCMBAOK@REP?5INS?$AA@ 00481b28     asmserv.obj
 0002:00004b34       ??_C@_08NMAFBKFK@REP?5OUTS?$AA@ 00481b34     asmserv.obj
 0002:00004b40       ??_C@_03GFCJIGAI@AAA?$AA@  00481b40     asmserv.obj
 0002:00004b44       ??_C@_03BNNNPGNL@AAS?$AA@  00481b44     asmserv.obj
 0002:00004b48       ??_C@_03MJJMMJAE@AAM?$AA@  00481b48     asmserv.obj
 0002:00004b4c       ??_C@_03BIFOHCEN@AAD?$AA@  00481b4c     asmserv.obj
 0002:00004b50       ??_C@_03FCPHHGDK@DAA?$AA@  00481b50     asmserv.obj
 0002:00004b54       ??_C@_03CKADAGOJ@DAS?$AA@  00481b54     asmserv.obj
 0002:00004b58       ??_C@_03CHEMLMMF@HLT?$AA@  00481b58     asmserv.obj
 0002:00004b5c       ??_C@_04EPPDBEMK@XLAT?$AA@ 00481b5c     asmserv.obj
 0002:00004b64       ??_C@_05NKHHKEDC@MOVZX?$AA@ 00481b64     asmserv.obj
 0002:00004b6c       ??_C@_04DBNKAKHO@WAIT?$AA@ 00481b6c     asmserv.obj
 0002:00004b74       ??_C@_04FPNMLGAJ@LAHF?$AA@ 00481b74     asmserv.obj
 0002:00004b7c       ??_C@_04LNGMLGFK@SAHF?$AA@ 00481b7c     asmserv.obj
 0002:00004b84       ??_C@_07OADNMDCH@?$CGPUSHF?$CK?$AA@ 00481b84     asmserv.obj
 0002:00004b90       ??_C@_06MIKCNJLA@?$CGPOPF?$CK?$AA@ 00481b90     asmserv.obj
 0002:00004b98       ??_C@_03JMHEAPMO@INT?$AA@  00481b98     asmserv.obj
 0002:00004b9c       ??_C@_04IICLPOII@INT3?$AA@ 00481b9c     asmserv.obj
 0002:00004ba4       ??_C@_04LKBMIHC@INTO?$AA@  00481ba4     asmserv.obj
 0002:00004bac       ??_C@_06MGOAJGD@?$CGIRET?$CK?$AA@ 00481bac     asmserv.obj
 0002:00004bb4       ??_C@_04PGPAMAFA@SETO?$AA@ 00481bb4     asmserv.obj
 0002:00004bbc       ??_C@_05BNLOJIMJ@SETNO?$AA@ 00481bbc     asmserv.obj
 0002:00004bc4       ??_C@_09MLFNDHBF@SETB?0SETC?$AA@ 00481bc4     asmserv.obj
 0002:00004bd0       ??_C@_0M@FCOMOFIH@SETNB?0SETNC?$AA@ 00481bd0     asmserv.obj
 0002:00004be0       ??_C@_09JFPKKAID@SETE?0SETZ?$AA@ 00481be0     asmserv.obj
 0002:00004bec       ??_C@_0M@MDCJEFIG@SETNE?0SETNZ?$AA@ 00481bec     asmserv.obj
 0002:00004bfc       ??_C@_0M@IMCLHNAI@SETBE?0SETNA?$AA@ 00481bfc     asmserv.obj
 0002:00004c0c       ??_C@_0M@LKPPIOLA@SETA?0SETNBE?$AA@ 00481c0c     asmserv.obj
 0002:00004c1c       ??_C@_04BAIHJNAN@SETS?$AA@ 00481c1c     asmserv.obj
 0002:00004c24       ??_C@_05PLMJMFJE@SETNS?$AA@ 00481c24     asmserv.obj
 0002:00004c2c       ??_C@_0L@BDAFIDNB@SETPE?0SETP?$AA@ 00481c2c     asmserv.obj
 0002:00004c3c       ??_C@_0M@MMAECICH@SETPO?0SETNP?$AA@ 00481c3c     asmserv.obj
 0002:00004c4c       ??_C@_0M@ENHLKLAM@SETL?0SETNGE?$AA@ 00481c4c     asmserv.obj
 0002:00004c5c       ??_C@_0M@HDBCEGAK@SETGE?0SETNL?$AA@ 00481c5c     asmserv.obj
 0002:00004c6c       ??_C@_0M@BCLDABBM@SETLE?0SETNG?$AA@ 00481c6c     asmserv.obj
 0002:00004c7c       ??_C@_0M@MDHLNKDA@SETG?0SETNLE?$AA@ 00481c7c     asmserv.obj
 0002:00004c8c       ??_C@_02KNHHOHBD@BT?$AA@   00481c8c     asmserv.obj
 0002:00004c90       ??_C@_03BFIFDIKO@BTS?$AA@  00481c90     asmserv.obj
 0002:00004c94       ??_C@_03MJOAJOP@BTR?$AA@   00481c94     asmserv.obj
 0002:00004c98       ??_C@_03FPEHCKPP@BTC?$AA@  00481c98     asmserv.obj
 0002:00004c9c       ??_C@_03OJHMOMON@LDS?$AA@  00481c9c     asmserv.obj
 0002:00004ca0       ??_C@_03OILOIGNK@LES?$AA@  00481ca0     asmserv.obj
 0002:00004ca4       ??_C@_03OKPIDIID@LFS?$AA@  00481ca4     asmserv.obj
 0002:00004ca8       ??_C@_03OLDKFCLE@LGS?$AA@  00481ca8     asmserv.obj
 0002:00004cac       ??_C@_03PABFFJBI@LSS?$AA@  00481cac     asmserv.obj
 0002:00004cb0       ??_C@_04NDKJAIL@ARPL?$AA@  00481cb0     asmserv.obj
 0002:00004cb8       ??_C@_05MEMMOPPI@BOUND?$AA@ 00481cb8     asmserv.obj
 0002:00004cc0       ??_C@_03CHHPMIDP@BSF?$AA@  00481cc0     asmserv.obj
 0002:00004cc4       ??_C@_03JNBBPGK@BSR?$AA@   00481cc4     asmserv.obj
 0002:00004cc8       ??_C@_04NGPEFAF@CLTS?$AA@  00481cc8     asmserv.obj
 0002:00004cd0       ??_C@_05LLDFPDMF@CMOVO?$AA@ 00481cd0     asmserv.obj
 0002:00004cd8       ??_C@_06JNJGDKDB@CMOVNO?$AA@ 00481cd8     asmserv.obj
 0002:00004ce0       ??_C@_0M@IKOKBIEE@CMOVB?0CMOVC?$AA@ 00481ce0     asmserv.obj
 0002:00004cf0       ??_C@_0O@LGLPKEBG@CMOVNB?0CMOVNC?$AA@ 00481cf0     asmserv.obj
 0002:00004d00       ??_C@_0M@BLCPLIEF@CMOVE?0CMOVZ?$AA@ 00481d00     asmserv.obj
 0002:00004d10       ??_C@_0O@EJNOGAMH@CMOVNE?0CMOVNZ?$AA@ 00481d10     asmserv.obj
 0002:00004d20       ??_C@_0O@PKNEELND@CMOVBE?0CMOVNA?$AA@ 00481d20     asmserv.obj
 0002:00004d30       ??_C@_0O@GADEBJIN@CMOVA?0CMOVNBE?$AA@ 00481d30     asmserv.obj
 0002:00004d40       ??_C@_05FNECKOJI@CMOVS?$AA@ 00481d40     asmserv.obj
 0002:00004d48       ??_C@_06HLOBGHGM@CMOVNS?$AA@ 00481d48     asmserv.obj
 0002:00004d50       ??_C@_0N@IMNKJEDA@CMOVPE?0CMOVP?$AA@ 00481d50     asmserv.obj
 0002:00004d60       ??_C@_0O@BPHILDII@CMOVPO?0CMOVNP?$AA@ 00481d60     asmserv.obj
 0002:00004d70       ??_C@_0O@JDABFANG@CMOVL?0CMOVNGE?$AA@ 00481d70     asmserv.obj
 0002:00004d80       ??_C@_0O@KJFDPONK@CMOVGE?0CMOVNL?$AA@ 00481d80     asmserv.obj
 0002:00004d90       ??_C@_0O@LCEHNMOG@CMOVLE?0CMOVNG?$AA@ 00481d90     asmserv.obj
 0002:00004da0       ??_C@_0O@GHLEEEMA@CMOVG?0CMOVNLE?$AA@ 00481da0     asmserv.obj
 0002:00004db0       ??_C@_07FEOOIPLF@CMPXCHG?$AA@ 00481db0     asmserv.obj
 0002:00004dbc       ??_C@_09MICAJAN@CMPXCHG8B?$AA@ 00481dbc     asmserv.obj
 0002:00004dc8       ??_C@_05OIGPCKIL@CPUID?$AA@ 00481dc8     asmserv.obj
 0002:00004dd0       ??_C@_04OLNBMFNH@INVD?$AA@ 00481dd0     asmserv.obj
 0002:00004dd8       ??_C@_03PGKMBPEH@LAR?$AA@  00481dd8     asmserv.obj
 0002:00004ddc       ??_C@_03DNEPFHIG@LSL?$AA@  00481ddc     asmserv.obj
 0002:00004de0       ??_C@_06DDEHFBKL@INVLPG?$AA@ 00481de0     asmserv.obj
 0002:00004de8       ??_C@_06BEHNJBOK@WBINVD?$AA@ 00481de8     asmserv.obj
 0002:00004df0       ??_C@_04LFJGAGC@LGDT?$AA@  00481df0     asmserv.obj
 0002:00004df8       ??_C@_04OJOJGADB@SGDT?$AA@ 00481df8     asmserv.obj
 0002:00004e00       ??_C@_04OLIGBHFB@LIDT?$AA@ 00481e00     asmserv.obj
 0002:00004e08       ??_C@_04JDGBHAC@SIDT?$AA@  00481e08     asmserv.obj
 0002:00004e10       ??_C@_04NMFIOHGD@LLDT?$AA@ 00481e10     asmserv.obj
 0002:00004e18       ??_C@_04DOOIOHDA@SLDT?$AA@ 00481e18     asmserv.obj
 0002:00004e20       ??_C@_03OMEBHONM@LTR?$AA@  00481e20     asmserv.obj
 0002:00004e24       ??_C@_03OEDLDJBF@STR?$AA@  00481e24     asmserv.obj
 0002:00004e28       ??_C@_04FGKAGGDA@LMSW?$AA@ 00481e28     asmserv.obj
 0002:00004e30       ??_C@_04LEBAGGGD@SMSW?$AA@ 00481e30     asmserv.obj
 0002:00004e38       ??_C@_04MFPBFPIO@VERR?$AA@ 00481e38     asmserv.obj
 0002:00004e40       ??_C@_04LIIGKLML@VERW?$AA@ 00481e40     asmserv.obj
 0002:00004e48       ??_C@_05FDMJBNPD@RDTSC?$AA@ 00481e48     asmserv.obj
 0002:00004e50       ??_C@_05CNABCGPG@RDMSR?$AA@ 00481e50     asmserv.obj
 0002:00004e58       ??_C@_05JCGMNFGH@WRMSR?$AA@ 00481e58     asmserv.obj
 0002:00004e60       ??_C@_05MKBDAENO@RDPMC?$AA@ 00481e60     asmserv.obj
 0002:00004e68       ??_C@_03JEJCEGGL@RSM?$AA@  00481e68     asmserv.obj
 0002:00004e6c       ??_C@_03LIILKOBO@UD2?$AA@  00481e6c     asmserv.obj
 0002:00004e70       ??_C@_08IJIBINK@SYSENTER?$AA@ 00481e70     asmserv.obj
 0002:00004e7c       ??_C@_07ECBFNMOF@SYSEXIT?$AA@ 00481e7c     asmserv.obj
 0002:00004e88       ??_C@_04MHBCOKMD@SALC?$AA@ 00481e88     asmserv.obj
 0002:00004e90       ??_C@_05PMHLGCKH@F2XM1?$AA@ 00481e90     asmserv.obj
 0002:00004e98       ??_C@_04IINAIADH@FCHS?$AA@ 00481e98     asmserv.obj
 0002:00004ea0       ??_C@_04CPEOMNGK@FABS?$AA@ 00481ea0     asmserv.obj
 0002:00004ea8       ??_C@_05FNJOOKEG@FCLEX?$AA@ 00481ea8     asmserv.obj
 0002:00004eb0       ??_C@_05BIIIIMAE@FINIT?$AA@ 00481eb0     asmserv.obj
 0002:00004eb8       ??_C@_07INBLHIKE@FDECSTP?$AA@ 00481eb8     asmserv.obj
 0002:00004ec4       ??_C@_07IGALOJKH@FINCSTP?$AA@ 00481ec4     asmserv.obj
 0002:00004ed0       ??_C@_04BKCMDFEH@FTST?$AA@ 00481ed0     asmserv.obj
 0002:00004ed8       ??_C@_05CKNBAIHP@FSQRT?$AA@ 00481ed8     asmserv.obj
 0002:00004ee0       ??_C@_04CGGHNBID@FSIN?$AA@ 00481ee0     asmserv.obj
 0002:00004ee8       ??_C@_04INJPJGLC@FCOS?$AA@ 00481ee8     asmserv.obj
 0002:00004ef0       ??_C@_07MLHHJGOD@FSINCOS?$AA@ 00481ef0     asmserv.obj
 0002:00004efc       ??_C@_05PEOCGFGP@FPTAN?$AA@ 00481efc     asmserv.obj
 0002:00004f04       ??_C@_06HHJIAEEF@FPATAN?$AA@ 00481f04     asmserv.obj
 0002:00004f0c       ??_C@_05PNKNMBKM@FPREM?$AA@ 00481f0c     asmserv.obj
 0002:00004f14       ??_C@_06BJMAEFLA@FPREM1?$AA@ 00481f14     asmserv.obj
 0002:00004f1c       ??_C@_05CGHABLLA@FYL2X?$AA@ 00481f1c     asmserv.obj
 0002:00004f24       ??_C@_07MEEBGICG@FYL2XP1?$AA@ 00481f24     asmserv.obj
 0002:00004f30       ??_C@_07BLILKJNK@FRNDINT?$AA@ 00481f30     asmserv.obj
 0002:00004f3c       ??_C@_04IOGCGACA@FLD1?$AA@ 00481f3c     asmserv.obj
 0002:00004f44       ??_C@_06LIFLBKHH@FLDL2T?$AA@ 00481f44     asmserv.obj
 0002:00004f4c       ??_C@_06OLICDJGH@FLDL2E?$AA@ 00481f4c     asmserv.obj
 0002:00004f54       ??_C@_05FDEOBHPD@FLDPI?$AA@ 00481f54     asmserv.obj
 0002:00004f5c       ??_C@_06NJMGHMON@FLDLG2?$AA@ 00481f5c     asmserv.obj
 0002:00004f64       ??_C@_06NGBHEHGC@FLDLN2?$AA@ 00481f64     asmserv.obj
 0002:00004f6c       ??_C@_04IGLNCEM@FLDZ?$AA@  00481f6c     asmserv.obj
 0002:00004f74       ??_C@_06HCHMILO@FSCALE?$AA@ 00481f74     asmserv.obj
 0002:00004f7c       ??_C@_04FENIBNKM@FNOP?$AA@ 00481f7c     asmserv.obj
 0002:00004f84       ??_C@_05DHOAMBLJ@FSTSW?$AA@ 00481f84     asmserv.obj
 0002:00004f8c       ??_C@_04NEFIFEPJ@FXAM?$AA@ 00481f8c     asmserv.obj
 0002:00004f94       ??_C@_07DPHKAOPH@FXTRACT?$AA@ 00481f94     asmserv.obj
 0002:00004fa0       ??_C@_06KJFOCEJM@FCOMPP?$AA@ 00481fa0     asmserv.obj
 0002:00004fa8       ??_C@_07OINEGJLC@FUCOMPP?$AA@ 00481fa8     asmserv.obj
 0002:00004fb4       ??_C@_05NKNECJIG@FFREE?$AA@ 00481fb4     asmserv.obj
 0002:00004fbc       ??_C@_06FOOLDBG@FCMOVB?$AA@ 00481fbc     asmserv.obj
 0002:00004fc4       ??_C@_06EKKPCFNB@FCMOVE?$AA@ 00481fc4     asmserv.obj
 0002:00004fcc       ??_C@_07HJNPOAKC@FCMOVBE?$AA@ 00481fcc     asmserv.obj
 0002:00004fd8       ??_C@_06GNDHIA@FCMOVU?$AA@ 00481fd8     asmserv.obj
 0002:00004fe0       ??_C@_07DPIEIPAB@FCMOVNB?$AA@ 00481fe0     asmserv.obj
 0002:00004fec       ??_C@_07HAMFBJMG@FCMOVNE?$AA@ 00481fec     asmserv.obj
 0002:00004ff8       ??_C@_08PKDGAPFJ@FCMOVNBE?$AA@ 00481ff8     asmserv.obj
 0002:00005004       ??_C@_07DKAHALJH@FCMOVNU?$AA@ 00482004     asmserv.obj
 0002:00005010       ??_C@_05BCOBDHAA@FCOMI?$AA@ 00482010     asmserv.obj
 0002:00005018       ??_C@_06LKKJLMGD@FCOMIP?$AA@ 00482018     asmserv.obj
 0002:00005020       ??_C@_06JMNGHJKL@FUCOMI?$AA@ 00482020     asmserv.obj
 0002:00005028       ??_C@_07PLCDPBEN@FUCOMIP?$AA@ 00482028     asmserv.obj
 0002:00005034       ??_C@_04COEADFEO@FADD?$AA@ 00482034     asmserv.obj
 0002:0000503c       ??_C@_05CLPBHBPG@FADDP?$AA@ 0048203c     asmserv.obj
 0002:00005044       ??_C@_04JPOOMEJL@FSUB?$AA@ 00482044     asmserv.obj
 0002:0000504c       ??_C@_05NNPJPJFM@FSUBP?$AA@ 0048204c     asmserv.obj
 0002:00005054       ??_C@_05OPMPJLNO@FSUBR?$AA@ 00482054     asmserv.obj
 0002:0000505c       ??_C@_06NLDPGNBM@FSUBRP?$AA@ 0048205c     asmserv.obj
 0002:00005064       ??_C@_04LBKLMJLJ@FMUL?$AA@ 00482064     asmserv.obj
 0002:0000506c       ??_C@_05ILHPNLF@FMULP?$AA@ 0048206c     asmserv.obj
 0002:00005074       ??_C@_04FJNOKJGN@FCOM?$AA@ 00482074     asmserv.obj
 0002:0000507c       ??_C@_05IJOBJOBI@FCOMP?$AA@ 0048207c     asmserv.obj
 0002:00005084       ??_C@_05NAHPPLPA@FUCOM?$AA@ 00482084     asmserv.obj
 0002:0000508c       ??_C@_06HNGNALD@FUCOMP?$AA@ 0048208c     asmserv.obj
 0002:00005094       ??_C@_04GJLCCGPM@FDIV?$AA@ 00482094     asmserv.obj
 0002:0000509c       ??_C@_05ONJFBEF@FDIVP?$AA@ 0048209c     asmserv.obj
 0002:000050a4       ??_C@_05DMOPDDMH@FDIVR?$AA@ 004820a4     asmserv.obj
 0002:000050ac       ??_C@_06LPIHOFHE@FDIVRP?$AA@ 004820ac     asmserv.obj
 0002:000050b4       ??_C@_03INFBNJKH@FLD?$AA@  004820b4     asmserv.obj
 0002:000050b8       ??_C@_03NAOJCPLL@FST?$AA@  004820b8     asmserv.obj
 0002:000050bc       ??_C@_04OGNINOHP@FSTP?$AA@ 004820bc     asmserv.obj
 0002:000050c4       ??_C@_04KKKLHENC@FXCH?$AA@ 004820c4     asmserv.obj
 0002:000050cc       ??_C@_05CPBBNFA@FIADD?$AA@ 004820cc     asmserv.obj
 0002:000050d4       ??_C@_05LDFPOMIF@FISUB?$AA@ 004820d4     asmserv.obj
 0002:000050dc       ??_C@_06BFOMBHJF@FISUBR?$AA@ 004820dc     asmserv.obj
 0002:000050e4       ??_C@_05JNBKOBKH@FIMUL?$AA@ 004820e4     asmserv.obj
 0002:000050ec       ??_C@_05EFADAOOC@FIDIV?$AA@ 004820ec     asmserv.obj
 0002:000050f4       ??_C@_06MGMMLPIM@FIDIVR?$AA@ 004820f4     asmserv.obj
 0002:000050fc       ??_C@_04DCOGMLBI@FBLD?$AA@ 004820fc     asmserv.obj
 0002:00005104       ??_C@_05LNLJMHHA@FBSTP?$AA@ 00482104     asmserv.obj
 0002:0000510c       ??_C@_05HFGPIBHD@FICOM?$AA@ 0048210c     asmserv.obj
 0002:00005114       ??_C@_06HDMCBCFD@FICOMP?$AA@ 00482114     asmserv.obj
 0002:0000511c       ??_C@_04OFOHEMBJ@FILD?$AA@ 0048211c     asmserv.obj
 0002:00005124       ??_C@_04LIFPLKAF@FIST?$AA@ 00482124     asmserv.obj
 0002:0000512c       ??_C@_05MKGJPGGB@FISTP?$AA@ 0048212c     asmserv.obj
 0002:00005134       ??_C@_05JJGPDFAF@FLDCW?$AA@ 00482134     asmserv.obj
 0002:0000513c       ??_C@_05CLMGGCMJ@FSTCW?$AA@ 0048213c     asmserv.obj
 0002:00005144       ??_C@_06KKIOKGEL@FLDENV?$AA@ 00482144     asmserv.obj
 0002:0000514c       ??_C@_06DIOOIBIH@FSTENV?$AA@ 0048214c     asmserv.obj
 0002:00005154       ??_C@_06MMJJBBPL@FRSTOR?$AA@ 00482154     asmserv.obj
 0002:0000515c       ??_C@_05COBINECM@FSAVE?$AA@ 0048215c     asmserv.obj
 0002:00005164       ??_C@_07OMMEDNBF@FXRSTOR?$AA@ 00482164     asmserv.obj
 0002:00005170       ??_C@_06BMLBIJFJ@FXSAVE?$AA@ 00482170     asmserv.obj
 0002:00005178       ??_C@_04BJBLFJIC@FENI?$AA@ 00482178     asmserv.obj
 0002:00005180       ??_C@_05JDBCDKLG@FDISI?$AA@ 00482180     asmserv.obj
 0002:00005188       ??_C@_04CJGEEPDP@EMMS?$AA@ 00482188     asmserv.obj
 0002:00005190       ??_C@_04KGONAEHC@MOVD?$AA@ 00482190     asmserv.obj
 0002:00005198       ??_C@_04JBFIOCGG@MOVQ?$AA@ 00482198     asmserv.obj
 0002:000051a0       ??_C@_08JDFIPNPK@PACKSSWB?$AA@ 004821a0     asmserv.obj
 0002:000051ac       ??_C@_08LKINAGMH@PACKSSDW?$AA@ 004821ac     asmserv.obj
 0002:000051b8       ??_C@_08BMBIAIFK@PACKUSWB?$AA@ 004821b8     asmserv.obj
 0002:000051c4       ??_C@_05IGIKOAKD@PADDB?$AA@ 004821c4     asmserv.obj
 0002:000051cc       ??_C@_05LBDPAGLH@PADDW?$AA@ 004821cc     asmserv.obj
 0002:000051d4       ??_C@_05NANAEHCF@PADDD?$AA@ 004821d4     asmserv.obj
 0002:000051dc       ??_C@_05HAICGIAJ@PSUBB?$AA@ 004821dc     asmserv.obj
 0002:000051e4       ??_C@_05EHDHIOBN@PSUBW?$AA@ 004821e4     asmserv.obj
 0002:000051ec       ??_C@_05CGNIMPIP@PSUBD?$AA@ 004821ec     asmserv.obj
 0002:000051f4       ??_C@_06JAPCJMHC@PADDSB?$AA@ 004821f4     asmserv.obj
 0002:000051fc       ??_C@_06KHEHHKGG@PADDSW?$AA@ 004821fc     asmserv.obj
 0002:00005204       ??_C@_06KGAHNOAM@PSUBSB?$AA@ 00482204     asmserv.obj
 0002:0000520c       ??_C@_06JBLCDIBI@PSUBSW?$AA@ 0048220c     asmserv.obj
 0002:00005214       ??_C@_07EEFLFJJA@PADDUSB?$AA@ 00482214     asmserv.obj
 0002:00005220       ??_C@_07HDOOLPIE@PADDUSW?$AA@ 00482220     asmserv.obj
 0002:0000522c       ??_C@_07PDNAPAOJ@PSUBUSB?$AA@ 0048222c     asmserv.obj
 0002:00005238       ??_C@_07MEGFBGPN@PSUBUSW?$AA@ 00482238     asmserv.obj
 0002:00005244       ??_C@_04MMHHNCLK@PAND?$AA@ 00482244     asmserv.obj
 0002:0000524c       ??_C@_05EFICEPML@PANDN?$AA@ 0048224c     asmserv.obj
 0002:00005254       ??_C@_07DCDGKLMC@PCMPEQB?$AA@ 00482254     asmserv.obj
 0002:00005260       ??_C@_07FIDENNG@PCMPEQW?$AA@ 00482260     asmserv.obj
 0002:0000526c       ??_C@_07GEGMAMEE@PCMPEQD?$AA@ 0048226c     asmserv.obj
 0002:00005278       ??_C@_07JOPEKBKC@PCMPGTB?$AA@ 00482278     asmserv.obj
 0002:00005284       ??_C@_07KJEBEHLG@PCMPGTW?$AA@ 00482284     asmserv.obj
 0002:00005290       ??_C@_07MIKOAGCE@PCMPGTD?$AA@ 00482290     asmserv.obj
 0002:0000529c       ??_C@_07GKMAJNPH@PMADDWD?$AA@ 0048229c     asmserv.obj
 0002:000052a8       ??_C@_06FIMCGAFB@PMULHW?$AA@ 004822a8     asmserv.obj
 0002:000052b0       ??_C@_06FPMLMIIN@PMULLW?$AA@ 004822b0     asmserv.obj
 0002:000052b8       ??_C@_03OGPNNKGK@POR?$AA@  004822b8     asmserv.obj
 0002:000052bc       ??_C@_05GALILLAC@PSLLW?$AA@ 004822bc     asmserv.obj
 0002:000052c4       ??_C@_05BFHPKJA@PSLLD?$AA@ 004822c4     asmserv.obj
 0002:000052cc       ??_C@_05DGOCBMIE@PSLLQ?$AA@ 004822cc     asmserv.obj
 0002:000052d4       ??_C@_05NIKGAIPN@PSRAW?$AA@ 004822d4     asmserv.obj
 0002:000052dc       ??_C@_05LJEJEJGP@PSRAD?$AA@ 004822dc     asmserv.obj
 0002:000052e4       ??_C@_05NAHOJLKO@PSRLW?$AA@ 004822e4     asmserv.obj
 0002:000052ec       ??_C@_05LBJBNKDM@PSRLD?$AA@ 004822ec     asmserv.obj
 0002:000052f4       ??_C@_05IGCEDMCI@PSRLQ?$AA@ 004822f4     asmserv.obj
 0002:000052fc       ??_C@_09PMMNNPOF@PUNPCKHBW?$AA@ 004822fc     asmserv.obj
 0002:00005308       ??_C@_09IHMPPPOM@PUNPCKHWD?$AA@ 00482308     asmserv.obj
 0002:00005314       ??_C@_09KOBKAENB@PUNPCKHDQ?$AA@ 00482314     asmserv.obj
 0002:00005320       ??_C@_09HDKPEILC@PUNPCKLBW?$AA@ 00482320     asmserv.obj
 0002:0000532c       ??_C@_09IKNGILL@PUNPCKLWD?$AA@ 0048232c     asmserv.obj
 0002:00005338       ??_C@_09CBHIJDIG@PUNPCKLDQ?$AA@ 00482338     asmserv.obj
 0002:00005344       ??_C@_04PMDMBFEP@PXOR?$AA@ 00482344     asmserv.obj
 0002:0000534c       ??_C@_05IHIFPAPA@FEMMS?$AA@ 0048234c     asmserv.obj
 0002:00005354       ??_C@_08CNJFFEGL@PREFETCH?$AA@ 00482354     asmserv.obj
 0002:00005360       ??_C@_09CPLHOGBH@PREFETCHW?$AA@ 00482360     asmserv.obj
 0002:0000536c       ??_C@_08MDLCOHD@MASKMOVQ?$AA@ 0048236c     asmserv.obj
 0002:00005378       ??_C@_06LNMMHDJN@MOVNTQ?$AA@ 00482378     asmserv.obj
 0002:00005380       ??_C@_05HONMMBOO@PAVGB?$AA@ 00482380     asmserv.obj
 0002:00005388       ??_C@_05EJGJCHPK@PAVGW?$AA@ 00482388     asmserv.obj
 0002:00005390       ??_C@_06MIBNHPFL@PEXTRW?$AA@ 00482390     asmserv.obj
 0002:00005398       ??_C@_06MNKIOFLL@PINSRW?$AA@ 00482398     asmserv.obj
 0002:000053a0       ??_C@_06CKKNNEK@PMAXSW?$AA@ 004823a0     asmserv.obj
 0002:000053a8       ??_C@_06DBJCEHOM@PMAXUB?$AA@ 004823a8     asmserv.obj
 0002:000053b0       ??_C@_06EHKIJOMI@PMINSW?$AA@ 004823b0     asmserv.obj
 0002:000053b8       ??_C@_06HEJAAEGO@PMINUB?$AA@ 004823b8     asmserv.obj
 0002:000053c0       ??_C@_08HGPDOAHD@PMOVMSKB?$AA@ 004823c0     asmserv.obj
 0002:000053cc       ??_C@_07OKEKLMPP@PMULHUW?$AA@ 004823cc     asmserv.obj
 0002:000053d8       ??_C@_0M@ODCMAMFB@PREFETCHNTA?$AA@ 004823d8     asmserv.obj
 0002:000053e8       ??_C@_0L@FOPMLKIL@PREFETCHT0?$AA@ 004823e8     asmserv.obj
 0002:000053f8       ??_C@_0L@EHOHILMK@PREFETCHT1?$AA@ 004823f8     asmserv.obj
 0002:00005408       ??_C@_0L@GMMKNIAJ@PREFETCHT2?$AA@ 00482408     asmserv.obj
 0002:00005418       ??_C@_06DMFNJPMB@PSADBW?$AA@ 00482418     asmserv.obj
 0002:00005420       ??_C@_06NOOBGFJG@PSHUFW?$AA@ 00482420     asmserv.obj
 0002:00005428       ??_C@_06LNKFEKDE@SFENCE?$AA@ 00482428     asmserv.obj
 0002:00005430       ??_C@_07ENOFIANA@PAVGUSB?$AA@ 00482430     asmserv.obj
 0002:0000543c       ??_C@_05FFCOGLAH@PFADD?$AA@ 0048243c     asmserv.obj
 0002:00005444       ??_C@_05OEIAJKNC@PFSUB?$AA@ 00482444     asmserv.obj
 0002:0000544c       ??_C@_06OALEAMLE@PFSUBR?$AA@ 0048244c     asmserv.obj
 0002:00005454       ??_C@_05BPCAOLEF@PFACC?$AA@ 00482454     asmserv.obj
 0002:0000545c       ??_C@_07PCFJFIIO@PFCMPGE?$AA@ 0048245c     asmserv.obj
 0002:00005468       ??_C@_07KBIAHLJO@PFCMPGT?$AA@ 00482468     asmserv.obj
 0002:00005474       ??_C@_07NPHDFLLF@PFCMPEQ?$AA@ 00482474     asmserv.obj
 0002:00005480       ??_C@_05ONMPKPGG@PFMIN?$AA@ 00482480     asmserv.obj
 0002:00005488       ??_C@_05PPEEELAJ@PFMAX?$AA@ 00482488     asmserv.obj
 0002:00005490       ??_C@_05KNHACHMK@PI2FD?$AA@ 00482490     asmserv.obj
 0002:00005498       ??_C@_05CEHMPHCG@PF2ID?$AA@ 00482498     asmserv.obj
 0002:000054a0       ??_C@_05DMGDFCKG@PFRCP?$AA@ 004824a0     asmserv.obj
 0002:000054a8       ??_C@_07BEILIFLN@PFRSQRT?$AA@ 004824a8     asmserv.obj
 0002:000054b4       ??_C@_05MKMFJHPA@PFMUL?$AA@ 004824b4     asmserv.obj
 0002:000054bc       ??_C@_08MKDHLILD@PFRCPIT1?$AA@ 004824bc     asmserv.obj
 0002:000054c8       ??_C@_08PEIBJDJI@PFRSQIT1?$AA@ 004824c8     asmserv.obj
 0002:000054d4       ??_C@_08OBBKOLHA@PFRCPIT2?$AA@ 004824d4     asmserv.obj
 0002:000054e0       ??_C@_07OPAFKKHK@PMULHRW?$AA@ 004824e0     asmserv.obj
 0002:000054ec       ??_C@_05EFJDLGLE@PF2IW?$AA@ 004824ec     asmserv.obj
 0002:000054f4       ??_C@_06PFKENGGI@PFNACC?$AA@ 004824f4     asmserv.obj
 0002:000054fc       ??_C@_07IJENGNML@PFPNACC?$AA@ 004824fc     asmserv.obj
 0002:00005508       ??_C@_05MMJPGGFI@PI2FW?$AA@ 00482508     asmserv.obj
 0002:00005510       ??_C@_06JKGODLFN@PSWAPD?$AA@ 00482510     asmserv.obj
 0002:00005518       ??_C@_05CKAIKK@CMPSB?$AA@  00482518     asmserv.obj
 0002:00005520       ??_C@_05DHJPOOLO@CMPSW?$AA@ 00482520     asmserv.obj
 0002:00005528       ??_C@_05FGHAKPCM@CMPSD?$AA@ 00482528     asmserv.obj
 0002:00005530       ??_C@_05FEMHCJNH@LODSB?$AA@ 00482530     asmserv.obj
 0002:00005538       ??_C@_05GDHCMPMD@LODSW?$AA@ 00482538     asmserv.obj
 0002:00005540       ??_C@_05CJNIOFB@LODSD?$AA@ 00482540     asmserv.obj
 0002:00005548       ??_C@_05GFILGFGG@MOVSB?$AA@ 00482548     asmserv.obj
 0002:00005550       ??_C@_05FCDOIDHC@MOVSW?$AA@ 00482550     asmserv.obj
 0002:00005558       ??_C@_05DDNBMCOA@MOVSD?$AA@ 00482558     asmserv.obj
 0002:00005560       ??_C@_05FEGJIEKK@SCASB?$AA@ 00482560     asmserv.obj
 0002:00005568       ??_C@_05GDNMGCLO@SCASW?$AA@ 00482568     asmserv.obj
 0002:00005570       ??_C@_05CDDCDCM@SCASD?$AA@ 00482570     asmserv.obj
 0002:00005578       ??_C@_05GGHGLIAL@STOSB?$AA@ 00482578     asmserv.obj
 0002:00005580       ??_C@_05FBMDFOBP@STOSW?$AA@ 00482580     asmserv.obj
 0002:00005588       ??_C@_05DACMBPIN@STOSD?$AA@ 00482588     asmserv.obj
 0002:00005590       ??_C@_09IELMHGNE@REP?5MOVSB?$AA@ 00482590     asmserv.obj
 0002:0000559c       ??_C@_09LDAJJAMA@REP?5MOVSW?$AA@ 0048259c     asmserv.obj
 0002:000055a8       ??_C@_09NCOGNBFC@REP?5MOVSD?$AA@ 004825a8     asmserv.obj
 0002:000055b4       ??_C@_09LFPADKGF@REP?5LODSB?$AA@ 004825b4     asmserv.obj
 0002:000055c0       ??_C@_09ICEFNMHB@REP?5LODSW?$AA@ 004825c0     asmserv.obj
 0002:000055cc       ??_C@_09ODKKJNOD@REP?5LODSD?$AA@ 004825cc     asmserv.obj
 0002:000055d8       ??_C@_09IHEBKLLJ@REP?5STOSB?$AA@ 004825d8     asmserv.obj
 0002:000055e4       ??_C@_09LAPEENKN@REP?5STOSW?$AA@ 004825e4     asmserv.obj
 0002:000055f0       ??_C@_09NBBLAMDP@REP?5STOSD?$AA@ 004825f0     asmserv.obj
 0002:000055fc       ??_C@_0L@FOLMAEIH@REPE?5CMPSB?$AA@ 004825fc     asmserv.obj
 0002:0000560c       ??_C@_0L@GJAJOCJD@REPE?5CMPSW?$AA@ 0048260c     asmserv.obj
 0002:0000561c       ??_C@_0L@IOGKDAB@REPE?5CMPSD?$AA@ 0048261c     asmserv.obj
 0002:0000562c       ??_C@_0L@KPPIIIH@REPE?5SCASB?$AA@ 0048262c     asmserv.obj
 0002:0000563c       ??_C@_0L@DNEKGOJD@REPE?5SCASW?$AA@ 0048263c     asmserv.obj
 0002:0000564c       ??_C@_0L@FMKFCPAB@REPE?5SCASD?$AA@ 0048264c     asmserv.obj
 0002:0000565c       ??_C@_0M@LMOGLFJA@REPNE?5CMPSB?$AA@ 0048265c     asmserv.obj
 0002:0000566c       ??_C@_0M@ILFDFDIE@REPNE?5CMPSW?$AA@ 0048266c     asmserv.obj
 0002:0000567c       ??_C@_0M@OKLMBCBG@REPNE?5CMPSD?$AA@ 0048267c     asmserv.obj
 0002:0000568c       ??_C@_0M@OIKFDJJA@REPNE?5SCASB?$AA@ 0048268c     asmserv.obj
 0002:0000569c       ??_C@_0M@NPBANPIE@REPNE?5SCASW?$AA@ 0048269c     asmserv.obj
 0002:000056ac       ??_C@_0M@LOPPJOBG@REPNE?5SCASD?$AA@ 004826ac     asmserv.obj
 0002:000056bc       ??_C@_04LLEAKALK@INSB?$AA@ 004826bc     asmserv.obj
 0002:000056c4       ??_C@_04IMPFEGKO@INSW?$AA@ 004826c4     asmserv.obj
 0002:000056cc       ??_C@_04ONBKAHDM@INSD?$AA@ 004826cc     asmserv.obj
 0002:000056d4       ??_C@_05KIBKIDMF@OUTSB?$AA@ 004826d4     asmserv.obj
 0002:000056dc       ??_C@_05JPKPGFNB@OUTSW?$AA@ 004826dc     asmserv.obj
 0002:000056e4       ??_C@_05POEACEED@OUTSD?$AA@ 004826e4     asmserv.obj
 0002:000056ec       ??_C@_08ICMLAKPB@REP?5INSB?$AA@ 004826ec     asmserv.obj
 0002:000056f8       ??_C@_08LFHOOMOF@REP?5INSW?$AA@ 004826f8     asmserv.obj
 0002:00005704       ??_C@_08NEJBKNHH@REP?5INSD?$AA@ 00482704     asmserv.obj
 0002:00005710       ??_C@_09EJCNJAHH@REP?5OUTSB?$AA@ 00482710     asmserv.obj
 0002:0000571c       ??_C@_09HOJIHGGD@REP?5OUTSW?$AA@ 0048271c     asmserv.obj
 0002:00005728       ??_C@_09BPHHDHPB@REP?5OUTSD?$AA@ 00482728     asmserv.obj
 0002:00005734       ??_C@_07POGEFNFM@$LOOP?$CKZ?$AA@ 00482734     asmserv.obj
 0002:00005740       ??_C@_08DJFIMHPA@$LOOP?$CKNZ?$AA@ 00482740     asmserv.obj
 0002:0000574c       ??_C@_05JPDLLFLB@FWAIT?$AA@ 0048274c     asmserv.obj
 0002:00005754       ??_C@_05LJLBPFDN@XLATB?$AA@ 00482754     asmserv.obj
 0002:0000575c       ??_C@_07FGJGKIPB@VxDCall?$AA@ 0048275c     asmserv.obj
 0002:00005768       ??_C@_03IDJKLHOF@JCC?$AA@  00482768     asmserv.obj
 0002:0000576c       ??_C@_05LJNDEEJG@SETCC?$AA@ 0048276c     asmserv.obj
 0002:00005774       ??_C@_06DJPLOGGO@CMOVCC?$AA@ 00482774     asmserv.obj
 0002:0000577c       ??_C@_0CM@EJKOJJCD@Win95?198?5may?5crash?5when?5NEG?5ESP?5@ 0048277c     asmserv.obj
 0002:000057b0       ??_C@_0CM@PAJOADCN@Win95?198?5may?5crash?5when?5NOT?5ESP?5@ 004827b0     asmserv.obj
 0002:000057e4       ??_C@_0DK@CJPDCHIK@Win95?198?5may?5crash?5when?5VxD?5call@ 004827e4     asmserv.obj
 0002:0000582c       ??_C@_0DH@KEGEENPA@LOCK?5CMPXCHG8B?5may?5crash?5some?5pr@ 0048282c     asmserv.obj
 0002:00005870       ??_C@_0O@KOIBPDHB@?$CLINF?57F800000?$AA@ 00482870     asmserv.obj
 0002:00005880       ??_C@_0O@LBJLGPFB@?9INF?5FF800000?$AA@ 00482880     asmserv.obj
 0002:00005890       ??_C@_0L@HLIFJGMB@?$CLNAN?5?$CF08lX?$AA@ 00482890     asmserv.obj
 0002:000058a0       ??_C@_0L@JDDAFMIC@?9NAN?5?$CF08lX?$AA@ 004828a0     asmserv.obj
 0002:000058b0       ??_C@_03MDAFIFFL@0?40?$AA@ 004828b0     asmserv.obj
 0002:000058b4       ??_C@_05NEEIEJHF@?$CF?$CD?47g?$AA@ 004828b4     asmserv.obj
 0002:000058bc       ??_C@_0BH@HJNEPECD@?$CLINF?57F800000?500000000?$AA@ 004828bc     asmserv.obj
 0002:000058d8       ??_C@_0BH@LCCEKEPA@?9INF?5FF800000?500000000?$AA@ 004828d8     asmserv.obj
 0002:000058f4       ??_C@_0BB@DJBMPONA@?$CLNAN?5?$CF08lX?5?$CF08lX?$AA@ 004828f4     asmserv.obj
 0002:00005908       ??_C@_0BB@JOCIEJNI@?9NAN?5?$CF08lX?5?$CF08lX?$AA@ 00482908     asmserv.obj
 0002:0000591c       ??_C@_07MKMIPCIM@?$CF?$CD?416lg?$AA@ 0048291c     asmserv.obj
 0002:00005928       ??_C@_0BM@ICHJCEKH@?$CLINF?57FFF?580000000?500000000?$AA@ 00482928     asmserv.obj
 0002:0000594c       ??_C@_0BM@BKOLFDNJ@?9INF?5FFFF?580000000?500000000?$AA@ 0048294c     asmserv.obj
 0002:00005970       ??_C@_0BH@IGNJEGPE@?$CFcNAN?5?$CF04X?5?$CF08lX?5?$CF08lX?$AA@ 00482970     asmserv.obj
 0002:0000598c       ??_C@_0BH@EINIIOJO@?$CFc?$DP?$DP?$DP?5?$CF04X?5?$CF08lX?5?$CF08lX?$AA@ 0048298c     asmserv.obj
 0002:000059a8       ??_C@_0BJ@HMFBGGMO@?$CFcUNORM?5?$CF04X?5?$CF08lX?5?$CF08lX?$AA@ 004829a8     asmserv.obj
 0002:000059c8       ??_C@_04BNDCEGOP@?90?40?$AA@ 004829c8     asmserv.obj
 0002:000059d0       ??_C@_07JAEOJBGA@?$CF?$CD?420Lg?$AA@ 004829d0     asmserv.obj
 0002:000059dc       ??_C@_07LDPNJFHL@?$CF?$CD?419Lf?$AA@ 004829dc     asmserv.obj
 0002:000059e8       ??_C@_07JINAMGLI@?$CF?$CD?419Le?$AA@ 004829e8     asmserv.obj
 0002:000059f4       ??_C@_02KEGNLNML@?0?5?$AA@ 004829f4     asmserv.obj
 0002:000059f8       __real@0000000000000000    004829f8     asmserv.obj
 0002:00005a08       __real@3ee4f8b588e368f1    00482a08     asmserv.obj
 0002:00005a18       __real@3ff0000000000000    00482a18     asmserv.obj
 0002:00005a28       __real@4202a05f20000000    00482a28     asmserv.obj
 0002:00005a38       __real@bee4f8b588e368f1    00482a38     asmserv.obj
 0002:00005a48       __real@bff0000000000000    00482a48     asmserv.obj
 0002:00005a58       __real@c202a05f20000000    00482a58     asmserv.obj
 0002:00005a64       ??_C@_0BA@FLOMBBGK@NULL?5input?5line?$AA@ 00482a64     assembl.obj
 0002:00005a78       ??_C@_0BE@MMEKCLOK@Too?5long?5identifier?$AA@ 00482a78     assembl.obj
 0002:00005a90       ??_C@_02LAJDCOFE@ST?$AA@   00482a90     assembl.obj
 0002:00005a94       ??_C@_0CC@MGGNOKKP@FPU?5registers?5have?5indexes?50?5to?5@ 00482a94     assembl.obj
 0002:00005abc       ??_C@_0BN@EILNFDMM@Closing?5parenthesis?5expected?$AA@ 00482abc     assembl.obj
 0002:00005ae0       ??_C@_03LHIBGDPH@EIP?$AA@  00482ae0     assembl.obj
 0002:00005ae4       ??_C@_05NODMBNGI@SHORT?$AA@ 00482ae4     assembl.obj
 0002:00005aec       ??_C@_04KCJFIMMJ@LONG?$AA@ 00482aec     assembl.obj
 0002:00005af4       ??_C@_04ILABJOOE@NEAR?$AA@ 00482af4     assembl.obj
 0002:00005afc       ??_C@_03JJBBPPCD@FAR?$AA@  00482afc     assembl.obj
 0002:00005b00       ??_C@_05EIDBELPO@LOCAL?$AA@ 00482b00     assembl.obj
 0002:00005b08       ??_C@_0BI@GLGCFIND@Integer?5number?5expected?$AA@ 00482b08     assembl.obj
 0002:00005b24       ??_C@_03CNBDDMKH@ARG?$AA@  00482b24     assembl.obj
 0002:00005b28       ??_C@_03HDFFPFLF@REP?$AA@  00482b28     assembl.obj
 0002:00005b2c       ??_C@_04DGHGKJLG@REPE?$AA@ 00482b2c     assembl.obj
 0002:00005b34       ??_C@_04PLCMKHCI@REPZ?$AA@ 00482b34     assembl.obj
 0002:00005b3c       ??_C@_05KDGPDELB@REPNE?$AA@ 00482b3c     assembl.obj
 0002:00005b44       ??_C@_05GODFDKCP@REPNZ?$AA@ 00482b44     assembl.obj
 0002:00005b4c       ??_C@_04GPIFAJG@LOCK?$AA@  00482b4c     assembl.obj
 0002:00005b54       ??_C@_03PGIOJGPL@PTR?$AA@  00482b54     assembl.obj
 0002:00005b58       ??_C@_05NGLEMOLB@CONST?$AA@ 00482b58     assembl.obj
 0002:00005b60       ??_C@_06KPFMBGLO@OFFSET?$AA@ 00482b60     assembl.obj
 0002:00005b68       ??_C@_06CLKFOGHC@SIGNED?$AA@ 00482b68     assembl.obj
 0002:00005b70       ??_C@_08FEBCPJEE@UNSIGNED?$AA@ 00482b70     assembl.obj
 0002:00005b7c       ??_C@_04IBPLICII@CHAR?$AA@ 00482b7c     assembl.obj
 0002:00005b84       ??_C@_05GGMHDFKJ@FLOAT?$AA@ 00482b84     assembl.obj
 0002:00005b8c       ??_C@_06BJLJNGLL@DOUBLE?$AA@ 00482b8c     assembl.obj
 0002:00005b94       ??_C@_07NDJJBMBA@FLOAT10?$AA@ 00482b94     assembl.obj
 0002:00005ba0       ??_C@_06IGECGLFO@STRING?$AA@ 00482ba0     assembl.obj
 0002:00005ba8       ??_C@_07JNMBHMBK@UNICODE?$AA@ 00482ba8     assembl.obj
 0002:00005bb4       ??_C@_03GGAHOJCI@MSG?$AA@  00482bb4     assembl.obj
 0002:00005bb8       ??_C@_0BD@FNIOEKA@Unknown?5identifier?$AA@ 00482bb8     assembl.obj
 0002:00005bd0       ??_C@_0CI@JEGKNMID@Hexadecimal?5digits?5after?50x?4?4?4?5e@ 00482bd0     assembl.obj
 0002:00005c00       ??_C@_0CI@CDNNCOHE@Please?5don?8t?5mix?50xXXXX?5and?5XXXX@ 00482c00     assembl.obj
 0002:00005c30       ??_C@_0BF@OGJGLIIG@Not?5a?5decimal?5number?$AA@ 00482c30     assembl.obj
 0002:00005c4c       ??_C@_0BB@PHNOJALP@Invalid?5exponent?$AA@ 00482c4c     assembl.obj
 0002:00005c60       ??_C@_0CA@KDLEHGNP@Unterminated?5character?5constant?$AA@ 00482c60     assembl.obj
 0002:00005c88       ??_C@_0BJ@CIBHECAN@Empty?5character?5constant?$AA@ 00482c88     assembl.obj
 0002:00005ca8       ??_C@_0N@LPKHDFBN@Syntax?5error?$AA@ 00482ca8     assembl.obj
 0002:00005cb8       ??_C@_0BF@MGHHAMDH@Too?5long?5import?5name?$AA@ 00482cb8     assembl.obj
 0002:00005cd4       ??_C@_0BJ@PPEDLFLP@Unterminated?5import?5name?$AA@ 00482cd4     assembl.obj
 0002:00005cf4       ??_C@_0CO@PDMHPED@Invalid?5combination?5of?5jump?5addr@ 00482cf4     assembl.obj
 0002:00005d2c       ??_C@_0BJ@NEDFDMFK@Integer?5address?5expected?$AA@ 00482d2c     assembl.obj
 0002:00005d4c       ??_C@_0DC@BNNLKIH@Floating?9point?5numbers?5are?5not?5a@ 00482d4c     assembl.obj
 0002:00005d88       ??_C@_0CB@PIMEEELE@Only?5one?5opening?5bracket?5allowed@ 00482d88     assembl.obj
 0002:00005db0       ??_C@_0BJ@DFBHKJHE@Duplicated?5size?5modifier?$AA@ 00482db0     assembl.obj
 0002:00005dd0       ??_C@_0BM@EDIMBKND@Duplicated?5segment?5register?$AA@ 00482dd0     assembl.obj
 0002:00005df4       ??_C@_0BD@PMJDBOKM@Semicolon?5expected?$AA@ 00482df4     assembl.obj
 0002:00005e0c       ??_C@_0CF@CIBKECB@Address?5expression?5requires?5brac@ 00482e0c     assembl.obj
 0002:00005e38       ??_C@_0BM@EICLEDLO@Unable?5to?5subtract?5register?$AA@ 00482e38     assembl.obj
 0002:00005e5c       ??_C@_0BD@LLICLNKC@Too?5many?5registers?$AA@ 00482e5c     assembl.obj
 0002:00005e74       ??_C@_0CK@JDOBEKJI@Sorry?0?516?9bit?5addressing?5is?5not?5@ 00482e74     assembl.obj
 0002:00005ea8       ??_C@_0BP@OOHGJIDA@Undefined?5scale?5is?5not?5allowed?$AA@ 00482ea8     assembl.obj
 0002:00005ed0       ??_C@_0O@EGGNDOGF@Invalid?5scale?$AA@ 00482ed0     assembl.obj
 0002:00005ee0       ??_C@_0BA@PPGKIIJA@Invalid?5address?$AA@ 00482ee0     assembl.obj
 0002:00005ef4       ??_C@_0CA@KNGKKOMO@Only?5one?5register?5may?5be?5scaled?$AA@ 00482ef4     assembl.obj
 0002:00005f1c       ??_C@_0BF@HOGIBDEE@Unrecognized?5operand?$AA@ 00482f1c     assembl.obj
 0002:00005f38       ??_C@_0CF@OKFAOFPK@Jump?5address?5modifier?5is?5not?5all@ 00482f38     assembl.obj
 0002:00005f64       ??_C@_0BH@HNDAKHIP@Internal?5OLLYDBG?5error?$AA@ 00482f64     assembl.obj
 0002:00005f80       ??_C@_0BG@EMHDIDLC@Duplicated?5REP?5prefix?$AA@ 00482f80     assembl.obj
 0002:00005f9c       ??_C@_0BH@JKBGCCE@Duplicated?5LOCK?5prefix?$AA@ 00482f9c     assembl.obj
 0002:00005fb8       ??_C@_0BK@DNDOGJMP@Command?5mnemonic?5expected?$AA@ 00482fb8     assembl.obj
 0002:00005fd8       ??_C@_06CLPJINAL@REP?5?$CFs?$AA@ 00482fd8     assembl.obj
 0002:00005fe0       ??_C@_07JNNGFADN@REPE?5?$CFs?$AA@ 00482fe0     assembl.obj
 0002:00005fec       ??_C@_08DIBNBKLK@REPNE?5?$CFs?$AA@ 00482fec     assembl.obj
 0002:00005ff8       ??_C@_0BK@EOHGPKN@Extra?5input?5after?5operand?$AA@ 00482ff8     assembl.obj
 0002:00006018       ??_C@_0BJ@BGCMBJIK@Internal?5Assembler?5error?$AA@ 00483018     assembl.obj
 0002:00006038       ??_C@_0BF@LGLCGIBC@Unrecognized?5command?$AA@ 00483038     assembl.obj
 0002:00006054       ??_C@_0BB@GBFMBMEN@Too?5few?5operands?$AA@ 00483054     assembl.obj
 0002:00006068       ??_C@_0BC@OKPBNAEE@Too?5many?5operands?$AA@ 00483068     assembl.obj
 0002:00006080       ??_C@_0CI@KCNDCFPE@Command?5does?5not?5support?5given?5o@ 00483080     assembl.obj
 0002:000060b0       ??_C@_0BL@GOPIPKHI@Invalid?5jump?5size?5modifier?$AA@ 004830b0     assembl.obj
 0002:000060d0       ??_C@_0BJ@EABCHCFP@Wrong?5number?5of?5operands?$AA@ 004830d0     assembl.obj
 0002:000060f0       ??_C@_0BM@OHDBDKON@Please?5specify?5operand?5size?$AA@ 004830f0     assembl.obj
 0002:00006114       ??_C@_0BB@LMAPEECD@Bad?5operand?5size?$AA@ 00483114     assembl.obj
 0002:00006128       ??_C@_0BL@LKOHMCBP@Different?5size?5of?5operands?$AA@ 00483128     assembl.obj
 0002:00006148       ??_C@_0BJ@BHEIDCKB@Invalid?5segment?5register?$AA@ 00483148     assembl.obj
 0002:00006168       ??_C@_0BP@BFOLADCJ@Constant?5out?5of?5expected?5range?$AA@ 00483168     assembl.obj
 0002:00006190       ??_C@_0BC@BANNIBFC@Erroneous?5command?$AA@ 00483190     assembl.obj
 0002:000061a8       ??_C@_0BG@OIDGFOGF@Invalid?5indexing?5mode?$AA@ 004831a8     assembl.obj
 0002:000061c4       ??_C@_0BB@IGIGECLK@Unable?5to?5POP?5CS?$AA@ 004831c4     assembl.obj
 0002:000061d8       ??_C@_0CD@IFPBKHIK@Constant?5does?5not?5fit?5into?5opera@ 004831d8     assembl.obj
 0002:00006204       ??_C@_0CN@LOGKPLI@Relative?5jump?5out?5of?5range?0?5use?5@ 00483204     assembl.obj
 0002:00006240       __real@4024000000000000    00483240     assembl.obj
 0002:00006250       __real@4048000000000000    00483250     assembl.obj
 0002:0000625c       ??_C@_0L@BPDPIOID@?$CFs_REG?$CF02d?$AA@ 0048325c     disasm.obj
 0002:0000626c       ??_C@_02DKCKIIND@?$CFs?$AA@ 0048326c     disasm.obj
 0002:00006270       ??_C@_02BNFKEMBG@st?$AA@   00483270     disasm.obj
 0002:00006274       ??_C@_06BHLNBNFI@?$CFs?$CI?$CFi?$CJ?$AA@ 00483274     disasm.obj
 0002:0000627c       ??_C@_02JAOCGLHE@mm?$AA@   0048327c     disasm.obj
 0002:00006280       ??_C@_02DNCLAJDG@MM?$AA@   00483280     disasm.obj
 0002:00006284       ??_C@_04MDMPPDAB@?$CFs?$CFi?$AA@ 00483284     disasm.obj
 0002:0000628c       ??_C@_0N@EOALFPCB@?$CFs_?$CFsMEM?$CF02d?$AA@ 0048328c     disasm.obj
 0002:0000629c       ??_C@_04LPBNIBKA@PTR?5?$AA@ 0048329c     disasm.obj
 0002:000062a4       ??_C@_05DNIIFBMG@?$CFs?5?$CFs?$AA@ 004832a4     disasm.obj
 0002:000062ac       ??_C@_0N@GMCLHELC@?$CI?$CFi?9BYTE?$CJ?5?$CFs?$AA@ 004832ac     disasm.obj
 0002:000062bc       ??_C@_03DKEJHHJP@?$CFs?3?$AA@ 004832bc     disasm.obj
 0002:000062c0       ??_C@_04KEMPFJED@?9?$CFlX?$AA@ 004832c0     disasm.obj
 0002:000062c8       ??_C@_03HKPIJKPH@?$CFlX?$AA@ 004832c8     disasm.obj
 0002:000062cc       ??_C@_04EHDLHMJM@near?$AA@ 004832cc     disasm.obj
 0002:000062d4       ??_C@_03IKGEINEE@?$CFs?5?$AA@ 004832d4     disasm.obj
 0002:000062d8       ??_C@_03JEOKDCFP@far?$AA@  004832d8     disasm.obj
 0002:000062dc       ??_C@_01MIFGBAGJ@?$CL?$AA@ 004832dc     disasm.obj
 0002:000062e0       ??_C@_02NIBELBKK@?$CK2?$AA@ 004832e0     disasm.obj
 0002:000062e4       ??_C@_02IOEOBGCM@?$CK4?$AA@ 004832e4     disasm.obj
 0002:000062e8       ??_C@_02CCPLFJCA@?$CK8?$AA@ 004832e8     disasm.obj
 0002:000062ec       ??_C@_05FOGJLOPA@BX?$CLAL?$AA@ 004832ec     disasm.obj
 0002:000062f4       ??_C@_06GEPEJKPD@EBX?$CLAL?$AA@ 004832f4     disasm.obj
 0002:000062fc       ??_C@_08MMFGLJE@?$CFs_IMM32?$AA@ 004832fc     disasm.obj
 0002:00006308       ??_C@_07FMFDHFEG@vxdjump?$AA@ 00483308     disasm.obj
 0002:00006314       ??_C@_07GDEIDNCC@VxDJump?$AA@ 00483314     disasm.obj
 0002:00006320       ??_C@_01HIHLOKLC@1?$AA@    00483320     disasm.obj
 0002:00006324       ??_C@_0L@KMJKMOPP@?$CFs_IMM?$CF02d?$AA@ 00483324     disasm.obj
 0002:00006334       ??_C@_05BFKKPKCG@short?$AA@ 00483334     disasm.obj
 0002:0000633c       ??_C@_05LOENEHAJ@?$CF08lX?$AA@ 0048333c     disasm.obj
 0002:00006344       ??_C@_04EBNJJJJI@?$CF?4?$CKs?$AA@ 00483344     disasm.obj
 0002:0000634c       ??_C@_0N@BJJLHADD@?$CFs?5?$CF04X?3?$CF08X?$AA@ 0048334c     disasm.obj
 0002:0000635c       ??_C@_05ONEOBAM@?$CFs_?$CFs?$AA@ 0048335c     disasm.obj
 0002:00006364       ??_C@_05KFFJODAE@?$CF02X?3?$AA@ 00483364     disasm.obj
 0002:0000636c       ??_C@_08BJKLNNMO@DATASIZE?$AA@ 0048336c     disasm.obj
 0002:00006378       ??_C@_08PJEAHKBO@ADDRSIZE?$AA@ 00483378     disasm.obj
 0002:00006384       ??_C@_01OGPIMHDM@?$DP?$AA@ 00483384     disasm.obj
 0002:00006388       ??_C@_0L@DOKNIKCI@PREFIX?5?$CFs?3?$AA@ 00483388     disasm.obj
 0002:00006398       ??_C@_0BD@IGFJKIID@Superfluous?5prefix?$AA@ 00483398     disasm.obj
 0002:000063b0       ??_C@_05IMOOOKID@LOCK?5?$AA@ 004833b0     disasm.obj
 0002:000063b8       ??_C@_04JFFKLGJF@?$CF02X?$AA@ 004833b8     disasm.obj
 0002:000063c0       ??_C@_03KEJNOKD@V?$CFs?$AA@ 004833c0     disasm.obj
 0002:000063c4       ??_C@_03BBKEAIF@?$DP?$DP?$DP?$AA@ 004833c4     disasm.obj
 0002:000063c8       ??_C@_0CE@NCCFEBPM@Command?5crosses?5end?5of?5memory?5bl@ 004833c8     disasm.obj
 0002:000063f4       ??_C@_0BA@MPOJHAMO@Unknown?5command?$AA@ 004833f4     disasm.obj
 0002:00006408       ??_C@_0BL@PBNMDHJE@Undefined?5segment?5register?$AA@ 00483408     disasm.obj
 0002:00006428       ??_C@_0BI@EKOMELAL@Illegal?5use?5of?5register?$AA@ 00483428     disasm.obj
 0002:00006444       ??_C@_0BL@GANPMEJI@Memory?5address?5not?5allowed?$AA@ 00483444     disasm.obj
 0002:00006464       ??_C@_0O@NIPGCINC@Unknown?5error?$AA@ 00483464     disasm.obj
 0002:00006474       ??_C@_0BD@LJLJEHAF@Privileged?5command?$AA@ 00483474     disasm.obj
 0002:0000648c       ??_C@_0M@OHNEPNKN@I?1O?5command?$AA@ 0048348c     disasm.obj
 0002:0000649c       ??_C@_08DEDHOLAK@Far?5jump?$AA@ 0048349c     disasm.obj
 0002:000064a8       ??_C@_08BOJHONJ@Far?5call?$AA@ 004834a8     disasm.obj
 0002:000064b4       ??_C@_0L@GMPFMIKJ@Far?5return?$AA@ 004834b4     disasm.obj
 0002:000064c4       ??_C@_0CB@LHNPLLBD@Modification?5of?5segment?5register@ 004834c4     disasm.obj
 0002:000064ec       ??_C@_0CC@LPFNBAMB@Shift?5constant?5out?5of?5range?51?4?43@ 004834ec     disasm.obj
 0002:00006514       ??_C@_0M@GBDCECLF@LOCK?5prefix?$AA@ 00483514     disasm.obj
 0002:00006524       ??_C@_0BK@KDMBFBHJ@Unaligned?5stack?5operation?$AA@ 00483524     disasm.obj
 0002:00006544       ??_C@_17CNPHIMPH@?$AA?$CF?$AAl?$AAs?$AA?$AA@ 00483544     DebugLog.obj
 0002:00006550       ??_C@_1JA@DKOIEICI@?$AAc?$AA?3?$AA?2?$AAp?$AAr?$AAo?$AAg?$AAr?$AAa?$AAm?$AA?5?$AAf?$AAi?$AAl?$AAe?$AAs?$AA?5?$AA?$CI?$AAx?$AA8?$AA6?$AA?$CJ?$AA?2?$AAm?$AAi?$AAc?$AAr?$AAo?$AAs?$AAo?$AAf?$AAt@ 00483550     DebugLog.obj
 0002:000065fc       ??_C@_1CG@JNLFBNGN@?$AA?$CC?$AAi?$AAn?$AAv?$AAa?$AAl?$AAi?$AAd?$AA?5?$AAa?$AAr?$AAg?$AAu?$AAm?$AAe?$AAn?$AAt?$AA?$CC?$AA?$AA@ 004835fc     DebugLog.obj
 0002:0000662c       ??_C@_0BN@HMCJOMKN@_Count?5?$DM?$DN?5?$CIsize_t?$CJ?$CI?91?$CJ?5?1?5_Sz?$AA@ 0048362c     DebugLog.obj
 0002:00006650       ??_C@_1EI@MLOBABC@?$AA?$CC?$AA_?$AAC?$AAo?$AAu?$AAn?$AAt?$AA?5?$AA?$DM?$AA?$DN?$AA?5?$AA?$CI?$AAs?$AAi?$AAz?$AAe?$AA_?$AAt?$AA?$CJ?$AA?$CI?$AA?9?$AA1?$AA?$CJ?$AA?5?$AA?1?$AA?5?$AA_?$AAS?$AAz?$AA?$CC?$AA?5?$AA?$CG@ 00483650     DebugLog.obj
 0002:000066a8       ??_C@_1CC@LOFJFFDB@?$AAs?$AAt?$AAd?$AA?3?$AA?3?$AA_?$AAD?$AAe?$AAa?$AAl?$AAl?$AAo?$AAc?$AAa?$AAt?$AAe?$AA?$AA@ 004836a8     DebugLog.obj
 0002:000066d0       ??_C@_0DD@GBGGGKGG@?$CI_Ptr_user?5?$CG?5?$CI_BIG_ALLOCATION_AL@ 004836d0     DebugLog.obj
 0002:00006710       ??_C@_1HE@CDMBFOKC@?$AA?$CC?$AA?$CI?$AA_?$AAP?$AAt?$AAr?$AA_?$AAu?$AAs?$AAe?$AAr?$AA?5?$AA?$CG?$AA?5?$AA?$CI?$AA_?$AAB?$AAI?$AAG?$AA_?$AAA?$AAL?$AAL?$AAO?$AAC?$AAA?$AAT?$AAI?$AAO?$AAN?$AA_?$AAA@ 00483710     DebugLog.obj
 0002:000067a0       ??_C@_0EI@NOJHEJCJ@reinterpret_cast?$DMuintptr_t?5?$CK?$DO?$CI_P@ 004837a0     DebugLog.obj
 0002:000067f8       ??_C@_1JO@EKLKIEHP@?$AA?$CC?$AAr?$AAe?$AAi?$AAn?$AAt?$AAe?$AAr?$AAp?$AAr?$AAe?$AAt?$AA_?$AAc?$AAa?$AAs?$AAt?$AA?$DM?$AAu?$AAi?$AAn?$AAt?$AAp?$AAt?$AAr?$AA_?$AAt?$AA?5?$AA?$CK?$AA?$DO?$AA?$CI?$AA_@ 004837f8     DebugLog.obj
 0002:000068b8       ??_C@_0BL@OCKMEJON@_Ptr_container?5?$DM?5_Ptr_user?$AA@ 004838b8     DebugLog.obj
 0002:000068d8       ??_C@_1EE@PDHAHDDC@?$AA?$CC?$AA_?$AAP?$AAt?$AAr?$AA_?$AAc?$AAo?$AAn?$AAt?$AAa?$AAi?$AAn?$AAe?$AAr?$AA?5?$AA?$DM?$AA?5?$AA_?$AAP?$AAt?$AAr?$AA_?$AAu?$AAs?$AAe?$AAr?$AA?$CC?$AA?5?$AA?$CG?$AA?$CG?$AA?5@ 004838d8     DebugLog.obj
 0002:0000692c       ??_C@_0DB@GLFJLNCE@2?5?$CK?5sizeof?$CIvoid?5?$CK?$CJ?5?$DM?$DN?5_Ptr_user?5@ 0048392c     DebugLog.obj
 0002:00006968       ??_C@_1HA@NAPGMHAO@?$AA?$CC?$AA2?$AA?5?$AA?$CK?$AA?5?$AAs?$AAi?$AAz?$AAe?$AAo?$AAf?$AA?$CI?$AAv?$AAo?$AAi?$AAd?$AA?5?$AA?$CK?$AA?$CJ?$AA?5?$AA?$DM?$AA?$DN?$AA?5?$AA_?$AAP?$AAt?$AAr?$AA_?$AAu?$AAs?$AAe?$AAr@ 00483968     DebugLog.obj
 0002:000069f0       ??_C@_0CN@BLHJCAL@_Ptr_user?5?9?5_Ptr_container?5?$DM?$DN?5_N@ 004839f0     DebugLog.obj
 0002:00006a28       ??_C@_1GI@DHJGPFNI@?$AA?$CC?$AA_?$AAP?$AAt?$AAr?$AA_?$AAu?$AAs?$AAe?$AAr?$AA?5?$AA?9?$AA?5?$AA_?$AAP?$AAt?$AAr?$AA_?$AAc?$AAo?$AAn?$AAt?$AAa?$AAi?$AAn?$AAe?$AAr?$AA?5?$AA?$DM?$AA?$DN?$AA?5?$AA_@ 00483a28     DebugLog.obj
 0002:00006b04       ??_C@_09GGKLIPBA@LOG_TRACE?$AA@ 00483b04     log4z.obj
 0002:00006b10       ??_C@_09IPJFNELH@LOG_DEBUG?$AA@ 00483b10     log4z.obj
 0002:00006b1c       ??_C@_09PALELKOJ@LOG_INFO?5?$AA@ 00483b1c     log4z.obj
 0002:00006b28       ??_C@_09JFIBOECM@LOG_WARN?5?$AA@ 00483b28     log4z.obj
 0002:00006b34       ??_C@_09OABENLKN@LOG_ERROR?$AA@ 00483b34     log4z.obj
 0002:00006b40       ??_C@_09DPFNHGJE@LOG_ALARM?$AA@ 00483b40     log4z.obj
 0002:00006b4c       ??_C@_09LKHEAJFI@LOG_FATAL?$AA@ 00483b4c     log4z.obj
 0002:00006b58       ??_C@_04KGFMLCPK@Main?$AA@ 00483b58     log4z.obj
 0002:00006b60       ??_C@_06GLOIENHC@?4?1log?1?$AA@ 00483b60     log4z.obj
 0002:00006b68       ??_C@_1JA@MHADJNIL@?$AAc?$AA?3?$AA?2?$AAp?$AAr?$AAo?$AAg?$AAr?$AAa?$AAm?$AA?5?$AAf?$AAi?$AAl?$AAe?$AAs?$AA?5?$AA?$CI?$AAx?$AA8?$AA6?$AA?$CJ?$AA?2?$AAm?$AAi?$AAc?$AAr?$AAo?$AAs?$AAo?$AAf?$AAt@ 00483b68     log4z.obj
 0002:00006c14       ??_C@_1DC@POOIKBAO@?$AAI?$AAT?$AAE?$AAR?$AAA?$AAT?$AAO?$AAR?$AA?5?$AAL?$AAI?$AAS?$AAT?$AA?5?$AAC?$AAO?$AAR?$AAR?$AAU?$AAP?$AAT?$AAE?$AAD?$AA?$CB?$AA?$AA@ 00483c14     log4z.obj
 0002:00006c50       ??_C@_0BE@LMNLACIC@_Ptr_container?5?$CB?$DN?50?$AA@ 00483c50     log4z.obj
 0002:00006c68       ??_C@_1DG@HGDKEBPG@?$AA?$CC?$AA_?$AAP?$AAt?$AAr?$AA_?$AAc?$AAo?$AAn?$AAt?$AAa?$AAi?$AAn?$AAe?$AAr?$AA?5?$AA?$CB?$AA?$DN?$AA?5?$AA0?$AA?$CC?$AA?5?$AA?$CG?$AA?$CG?$AA?5?$AA0?$AA?$AA@ 00483c68     log4z.obj
 0002:00006ca8       ??_C@_1BO@NKFMJPA@?$AAs?$AAt?$AAd?$AA?3?$AA?3?$AA_?$AAA?$AAl?$AAl?$AAo?$AAc?$AAa?$AAt?$AAe?$AA?$AA@ 00483ca8     log4z.obj
 0002:00006ccc       ??_C@_09GLJCAGLP@_Ptr?5?$CB?$DN?50?$AA@ 00483ccc     log4z.obj
 0002:00006cd8       ??_C@_1CC@GKJLLHIM@?$AA?$CC?$AA_?$AAP?$AAt?$AAr?$AA?5?$AA?$CB?$AA?$DN?$AA?5?$AA0?$AA?$CC?$AA?5?$AA?$CG?$AA?$CG?$AA?5?$AA0?$AA?$AA@ 00483cd8     log4z.obj
 0002:00006d00       ?npos@?$basic_string@DU?$char_traits@D@std@@V?$allocator@D@2@@std@@2IB 00483d00     log4z.obj
 0002:00006d04       ??_C@_05LAPONLG@false?$AA@ 00483d04     log4z.obj
 0002:00006d0c       ??_C@_04LOAJBDKD@true?$AA@ 00483d0c     log4z.obj
 0002:00006d18       ??_7ILog4zManager@log4z@zsummer@@6B@ 00483d18     log4z.obj
 0002:00006da4       ??_C@_0BB@JCEFLFJE@0123456789abcdef?$AA@ 00483da4     log4z.obj
 0002:00006db8       ??_C@_0MJ@HFBCCPGP@00010203040506070809101112131415@ 00483db8     log4z.obj
 0002:00006eb0       ??_C@_0CAB@NJMJMIBI@000102030405060708090A0B0C0D0E0F@ 00483eb0     log4z.obj
 0002:0000711c       ??_7LockHelper@log4z@zsummer@@6B@ 0048411c     log4z.obj
 0002:00007128       ??_7SemHelper@log4z@zsummer@@6B@ 00484128     log4z.obj
 0002:00007134       ??_7ThreadHelper@log4z@zsummer@@6B@ 00484134     log4z.obj
 0002:00007144       ??_7LogerManager@log4z@zsummer@@6BThreadHelper@12@@ 00484144     log4z.obj
 0002:00007154       ??_7LogerManager@log4z@zsummer@@6BILog4zManager@12@@ 00484154     log4z.obj
 0002:000071e0       ??_C@_01KMDKNFGN@?1?$AA@   004841e0     log4z.obj
 0002:000071e4       ??_C@_04DEKFDDBK@?$AN?6?7?5?$AA@ 004841e4     log4z.obj
 0002:000071ec       ??_C@_01NEMOKFLO@?$DN?$AA@ 004841ec     log4z.obj
 0002:000071f0       ??_C@_02GPECMEKF@?$FL?$FN?$AA@ 004841f0     log4z.obj
 0002:000071f4       ??_C@_04GHJNJNPO@main?$AA@ 004841f4     log4z.obj
 0002:00007200       ??_C@_0EC@MOBAJIFH@log4z?5configure?5warning?3?5duplica@ 00484200     log4z.obj
 0002:00007250       ??_C@_0FM@PGHGLBK@log4z?5configure?5warning?3?5not?5fou@ 00484250     log4z.obj
 0002:000072c0       ??_C@_04LNEJFJGI@path?$AA@ 004842c0     log4z.obj
 0002:000072c8       ??_C@_04MEMAJGDJ@name?$AA@ 004842c8     log4z.obj
 0002:000072d0       ??_C@_05KJNJLLGA@level?$AA@ 004842d0     log4z.obj
 0002:000072d8       ??_C@_05IMBNNINJ@trace?$AA@ 004842d8     log4z.obj
 0002:000072e0       ??_C@_03NFKEKGGK@all?$AA@  004842e0     log4z.obj
 0002:000072e4       ??_C@_05GFCDIDHO@debug?$AA@ 004842e4     log4z.obj
 0002:000072ec       ??_C@_04NIDJFNBE@info?$AA@ 004842ec     log4z.obj
 0002:000072f4       ??_C@_04FNLOFOEM@warn?$AA@ 004842f4     log4z.obj
 0002:000072fc       ??_C@_07FPLKDJGL@warning?$AA@ 004842fc     log4z.obj
 0002:00007308       ??_C@_05KKCIMGE@error?$AA@ 00484308     log4z.obj
 0002:00007310       ??_C@_05NFOLCBFN@alarm?$AA@ 00484310     log4z.obj
 0002:00007318       ??_C@_05FAMCFOJB@fatal?$AA@ 00484318     log4z.obj
 0002:00007320       ??_C@_07GCCODDFC@display?$AA@ 00484320     log4z.obj
 0002:0000732c       ??_C@_01GBGANLPD@0?$AA@    0048432c     log4z.obj
 0002:00007330       ??_C@_07LEOOLFBI@outfile?$AA@ 00484330     log4z.obj
 0002:0000733c       ??_C@_08LBCCPANJ@monthdir?$AA@ 0048433c     log4z.obj
 0002:00007348       ??_C@_09FLKNOHPB@limitsize?$AA@ 00484348     log4z.obj
 0002:00007354       ??_C@_08KNCLELJK@fileline?$AA@ 00484354     log4z.obj
 0002:00007360       ??_C@_06OFNJOBDK@enable?$AA@ 00484360     log4z.obj
 0002:00007368       ??_C@_07PIICLBHM@reserve?$AA@ 00484368     log4z.obj
 0002:00007374       ??_C@_04LCHJEEKG@?$CF06u?$AA@ 00484374     log4z.obj
 0002:0000737c       ??_C@_07DEBHDLBL@process?$AA@ 0048437c     log4z.obj
 0002:00007388       ??_C@_01KICIPPFI@?2?$AA@   00484388     log4z.obj
 0002:0000738c       ??_C@_01LFCBOECM@?4?$AA@   0048438c     log4z.obj
 0002:00007390       ??_C@_0CF@JPFJGHHE@log4z?3?5create?5log4z?5thread?5error@ 00484390     log4z.obj
 0002:000073bc       ??_C@_0BD@HOHLGPP@?5?$CB?$CB?$CB?5?$CB?$CB?$CB?5?$CB?$CB?$CB?5?$CB?$CB?$CB?$AN?6?$AA@ 004843bc     log4z.obj
